EXPORTS
	?ExecuteScript@KFbxUINode@fbxsdk_20100@@AAEXPBD@Z
	?OnPaint@KFbxUINode@fbxsdk_20100@@QAEXPBVKFbxPaintEvent@2@@Z
	?UpdateDependencies@KFbxUINode@fbxsdk_20100@@QAEXXZ
	?RemoveAt@?$KArrayTemplate@PAVKFbxDependency@fbxsdk_20100@@@fbxsdk_20100@@QAEPAVKFbxDependency@2@H@Z
	?InsertAt@?$KArrayTemplate@PAVKFbxDependency@fbxsdk_20100@@@fbxsdk_20100@@QAEHHPAVKFbxDependency@2@@Z
	??0?$KFbxUITree@VKFbxUINode@fbxsdk_20100@@@fbxsdk_20100@@IAE@XZ
	??_7?$KFbxUITree@VKFbxUINode@fbxsdk_20100@@@fbxsdk_20100@@6B@
	??_R4?$KFbxUITree@VKFbxUINode@fbxsdk_20100@@@fbxsdk_20100@@6B@
	??_R0?AV?$KFbxUITree@VKFbxUINode@fbxsdk_20100@@@fbxsdk_20100@@@8
	??_R3?$KFbxUITree@VKFbxUINode@fbxsdk_20100@@@fbxsdk_20100@@8
	??_R2?$KFbxUITree@VKFbxUINode@fbxsdk_20100@@@fbxsdk_20100@@8
	??_R1A@?0A@EA@?$KFbxUITree@VKFbxUINode@fbxsdk_20100@@@fbxsdk_20100@@8
	??$Bind@VKFbxObjectPropertyChanged@fbxsdk_20100@@VKFbxUINode@2@@KFbxListener@kfbxevents@fbxsdk_20100@@QAEPAVKFbxEventHandler@12@AAVKFbxEmitter@12@P8KFbxUINode@2@AEXPBVKFbxObjectPropertyChanged@2@@Z@Z
	??_G?$KFbxMemberFuncEventHandler@VKFbxObjectPropertyChanged@fbxsdk_20100@@VKFbxUINode@2@@kfbxevents@fbxsdk_20100@@UAEPAXI@Z
	?RemoveAt@?$KArrayTemplate@PAVKFbxUINode@fbxsdk_20100@@@fbxsdk_20100@@QAEPAVKFbxUINode@2@H@Z
	?OnPropertyChanged@KFbxUINode@fbxsdk_20100@@QAEXPBVKFbxObjectPropertyChanged@2@@Z
	?ClearDependencies@KFbxUINode@fbxsdk_20100@@QAEXXZ
	?Add@?$KArrayTemplate@PAVKFbxDependency@fbxsdk_20100@@@fbxsdk_20100@@QAEHPAVKFbxDependency@2@@Z
	?RecursiveDelete@?$KFbxUITree@VKFbxUINode@fbxsdk_20100@@@fbxsdk_20100@@QAEXXZ
	?SetProperty@KFbxUINode@fbxsdk_20100@@QAEXVKFbxProperty@2@@Z
	?RegisterDependency@KFbxUINode@fbxsdk_20100@@QAEXPAVKFbxDependency@2@@Z
	??1?$KFbxUITree@VKFbxUINode@fbxsdk_20100@@@fbxsdk_20100@@MAE@XZ
	??_G?$KFbxUITree@VKFbxUINode@fbxsdk_20100@@@fbxsdk_20100@@MAEPAXI@Z
	??0KFbxUINode@fbxsdk_20100@@IAE@PAV01@@Z
	??_7KFbxUINode@fbxsdk_20100@@6B@
	??_R4KFbxUINode@fbxsdk_20100@@6B@
	??_R0?AVKFbxUINode@fbxsdk_20100@@@8
	??_R3KFbxUINode@fbxsdk_20100@@8
	??_R2KFbxUINode@fbxsdk_20100@@8
	??_R1A@?0A@EA@KFbxUINode@fbxsdk_20100@@8
	??_R1M@?0A@EA@KFbxListener@kfbxevents@fbxsdk_20100@@8
	??_R0?AVKFbxListener@kfbxevents@fbxsdk_20100@@@8
	??_R3KFbxListener@kfbxevents@fbxsdk_20100@@8
	??_R2KFbxListener@kfbxevents@fbxsdk_20100@@8
	??_R1A@?0A@EA@KFbxListener@kfbxevents@fbxsdk_20100@@8
	??_R1BI@?0A@EA@KFbxEmitter@kfbxevents@fbxsdk_20100@@8
	??_R0?AVKFbxEmitter@kfbxevents@fbxsdk_20100@@@8
	??_R3KFbxEmitter@kfbxevents@fbxsdk_20100@@8
	??_R2KFbxEmitter@kfbxevents@fbxsdk_20100@@8
	??_R1A@?0A@EA@KFbxEmitter@kfbxevents@fbxsdk_20100@@8
	??1KFbxUINode@fbxsdk_20100@@UAE@XZ
	??_GKFbxUINode@fbxsdk_20100@@UAEPAXI@Z
	?smMutex@?$KFbxEvent@VKFbxEventButtonWidgetClick@fbxsdk_20100@@@kfbxevents@fbxsdk_20100@@0VKFbxMutex@kfbxmp@3@A
	?smMutex@?$KFbxEvent@VKFbxObjectPropertyChanged@fbxsdk_20100@@@kfbxevents@fbxsdk_20100@@0VKFbxMutex@kfbxmp@3@A
	?smMutex@?$KFbxEvent@VKFbxScriptEvent@fbxsdk_20100@@@kfbxevents@fbxsdk_20100@@0VKFbxMutex@kfbxmp@3@A
	?smMutex@?$KFbxEvent@VKFbxUIUpdateEvent@fbxsdk_20100@@@kfbxevents@fbxsdk_20100@@0VKFbxMutex@kfbxmp@3@A
	?smMutex@?$KFbxEvent@VKFbxPaintEvent@fbxsdk_20100@@@kfbxevents@fbxsdk_20100@@0VKFbxMutex@kfbxmp@3@A
	?FbxTypeOf@fbxsdk_20100@@YA?AW4EFbxType@1@ABM@Z
	?Destroy@?$KFbxPropertyValueCondition@M@fbxsdk_20100@@UAEXXZ
	?GetSize@?$KDynamicArray@MVKBaseAllocator@fbxsdk_20100@@@fbxsdk_20100@@QBEIXZ
	??A?$KDynamicArray@MVKBaseAllocator@fbxsdk_20100@@@fbxsdk_20100@@QAEAAMI@Z
	??$Get@M@KFbxProperty@fbxsdk_20100@@QBEMPBM@Z
	?Test@?$KFbxPropertyValueCondition@M@fbxsdk_20100@@UAE_NXZ
	??1?$KFbxPropertyValueCondition@M@fbxsdk_20100@@UAE@XZ
	??_G?$KFbxPropertyValueCondition@M@fbxsdk_20100@@UAEPAXI@Z
	?Create@?$KFbxPropertyValueCondition@_N@fbxsdk_20100@@SAPAVKFbxCondition@2@ABVKFbxProperty@2@_N1@Z
	?Create@?$KFbxPropertyValueCondition@H@fbxsdk_20100@@SAPAVKFbxCondition@2@ABVKFbxProperty@2@H_N@Z
	?Create@?$KFbxPropertyValueCondition@M@fbxsdk_20100@@SAPAVKFbxCondition@2@ABVKFbxProperty@2@M_N@Z
	?CreateDependencyCondition@KFbxDependencyBindFunctor@fbxsdk_20100@@AAEPAVKFbxCondition@2@ABVKFbxUINode@2@0@Z
	?CreateDependencyCondition@KFbxDependencyBindFunctor@fbxsdk_20100@@AAEPAVKFbxCondition@2@ABVKFbxUINode@2@0VKString@2@@Z
	??RKFbxDependencyBindFunctor@fbxsdk_20100@@QAEXAAVKFbxUINode@1@@Z
	?smMutex@?$KFbxEvent@VKFbxEventButtonWidgetClick@fbxsdk_20100@@@kfbxevents@fbxsdk_20100@@0VKFbxMutex@kfbxmp@3@A
	?smMutex@?$KFbxEvent@VKFbxObjectPropertyChanged@fbxsdk_20100@@@kfbxevents@fbxsdk_20100@@0VKFbxMutex@kfbxmp@3@A
	?smMutex@?$KFbxEvent@VKFbxScriptEvent@fbxsdk_20100@@@kfbxevents@fbxsdk_20100@@0VKFbxMutex@kfbxmp@3@A
	?smMutex@?$KFbxEvent@VKFbxUIUpdateEvent@fbxsdk_20100@@@kfbxevents@fbxsdk_20100@@0VKFbxMutex@kfbxmp@3@A
	?smMutex@?$KFbxEvent@VKFbxPaintEvent@fbxsdk_20100@@@kfbxevents@fbxsdk_20100@@0VKFbxMutex@kfbxmp@3@A
	?CreatePropertyMap@KFbxUIBuilder@fbxsdk_20100@@AAEXVKFbxProperty@2@ABVKString@2@@Z
	?ClearPropertyMap@KFbxUIBuilder@fbxsdk_20100@@AAEXXZ
	??0?$KMap@VKString@fbxsdk_20100@@VKFbxProperty@2@VKFbxStringCompare@KFbxUIBuilder@2@VKBaseAllocator@2@@fbxsdk_20100@@QAE@XZ
	??1?$KMap@VKString@fbxsdk_20100@@VKFbxProperty@2@VKFbxStringCompare@KFbxUIBuilder@2@VKBaseAllocator@2@@fbxsdk_20100@@QAE@XZ
	?AdoptChildNode@?$KFbxUITree@VKFbxUINode@fbxsdk_20100@@@fbxsdk_20100@@QAEXPAVKFbxUINode@2@@Z
	??0KFbxUIBuilder@fbxsdk_20100@@QAE@XZ
	??_7KFbxUIBuilder@fbxsdk_20100@@6B@
	??_R4KFbxUIBuilder@fbxsdk_20100@@6B@
	??_R0?AVKFbxUIBuilder@fbxsdk_20100@@@8
	??_R3KFbxUIBuilder@fbxsdk_20100@@8
	??_R2KFbxUIBuilder@fbxsdk_20100@@8
	??_R1A@?0A@EA@KFbxUIBuilder@fbxsdk_20100@@8
	??1KFbxUIBuilder@fbxsdk_20100@@UAE@XZ
	?RecursiveBuild@KFbxUIBuilder@fbxsdk_20100@@IAEXABVKFbxUIObject@2@ABVKFbxObject@2@AAVKFbxUINode@2@VKString@2@@Z
	??_GKFbxUIBuilder@fbxsdk_20100@@UAEPAXI@Z
	?Build@KFbxUIBuilder@fbxsdk_20100@@QAEPAVKFbxUIInstance@2@ABVKFbxUIObject@2@ABVKFbxObject@2@AAVKFbxUINode@2@@Z
	?smMutex@?$KFbxEvent@VKFbxEventButtonWidgetClick@fbxsdk_20100@@@kfbxevents@fbxsdk_20100@@0VKFbxMutex@kfbxmp@3@A
	?smMutex@?$KFbxEvent@VKFbxObjectPropertyChanged@fbxsdk_20100@@@kfbxevents@fbxsdk_20100@@0VKFbxMutex@kfbxmp@3@A
	?smMutex@?$KFbxEvent@VKFbxScriptEvent@fbxsdk_20100@@@kfbxevents@fbxsdk_20100@@0VKFbxMutex@kfbxmp@3@A
	?smMutex@?$KFbxEvent@VKFbxUIUpdateEvent@fbxsdk_20100@@@kfbxevents@fbxsdk_20100@@0VKFbxMutex@kfbxmp@3@A
	?smMutex@?$KFbxEvent@VKFbxPaintEvent@fbxsdk_20100@@@kfbxevents@fbxsdk_20100@@0VKFbxMutex@kfbxmp@3@A
	?Set@?$KFbxTypedProperty@W4EAccessMode@KFbxVideo@fbxsdk_20100@@@fbxsdk_20100@@QAE_NABW4EAccessMode@KFbxVideo@2@@Z
	?Get@?$KFbxTypedProperty@W4EAccessMode@KFbxVideo@fbxsdk_20100@@@fbxsdk_20100@@QBE?AW4EAccessMode@KFbxVideo@2@XZ
	??1?$KArrayTemplate@PAVKStringListItem@fbxsdk_20100@@@fbxsdk_20100@@QAE@XZ
	??A?$KArrayTemplate@PAVKStringListItem@fbxsdk_20100@@@fbxsdk_20100@@QBEAAPAVKStringListItem@1@H@Z
	??1?$KBaseArray@V?$KBaseArraySizeType@PAVKFbxTakeNode@fbxsdk_20100@@@fbxsdk_20100@@@fbxsdk_20100@@IAE@XZ
	??1?$KBaseArray@V?$KBaseArraySizeType@PAVKFbxDefaultTakeCallback@fbxsdk_20100@@@fbxsdk_20100@@@fbxsdk_20100@@IAE@XZ
	?Set@?$KFbxTypedProperty@N@fbxsdk_20100@@QAE_NABN_N@Z
	?Set@?$KFbxTypedProperty@H@fbxsdk_20100@@QAE_NABH_N@Z
	?Set@?$KFbxTypedProperty@VKString@fbxsdk_20100@@@fbxsdk_20100@@QAE_NABVKString@2@_N@Z
	?Set@?$KFbxTypedProperty@VKTime@fbxsdk_20100@@@fbxsdk_20100@@QAE_NABVKTime@2@_N@Z
	?Set@?$KFbxTypedProperty@W4EInterlaceMode@KFbxVideo@fbxsdk_20100@@@fbxsdk_20100@@QAE_NABW4EInterlaceMode@KFbxVideo@2@_N@Z
	?Set@?$KFbxTypedProperty@_N@fbxsdk_20100@@QAE_NAB_N_N@Z
	?Set@?$KFbxTypedProperty@W4EAccessMode@KFbxVideo@fbxsdk_20100@@@fbxsdk_20100@@QAE_NABW4EAccessMode@KFbxVideo@2@_N@Z
	?GetArrayCount@?$KBaseArray@V?$KBaseArraySizeType@PAVKStringListItem@fbxsdk_20100@@@fbxsdk_20100@@@fbxsdk_20100@@IBEHXZ
	??$GetDstIfObject@VKFbxTexture@fbxsdk_20100@@@KFbxConnectEvent@fbxsdk_20100@@QBEPAVKFbxTexture@1@PBV21@@Z
	??$GetDstIfObject@VKFbxLight@fbxsdk_20100@@@KFbxConnectEvent@fbxsdk_20100@@QBEPAVKFbxLight@1@PBV21@@Z
	?GetFileName@KFbxVideo@fbxsdk_20100@@QAE?AVKString@2@XZ
	?GetFrameRate@KFbxVideo@fbxsdk_20100@@QAENXZ
	?GetLastFrame@KFbxVideo@fbxsdk_20100@@QAEHXZ
	?GetWidth@KFbxVideo@fbxsdk_20100@@QAEHXZ
	?GetHeight@KFbxVideo@fbxsdk_20100@@QAEHXZ
	?GetStartFrame@KFbxVideo@fbxsdk_20100@@QAEHXZ
	?SetStartFrame@KFbxVideo@fbxsdk_20100@@QAEXH@Z
	?GetStopFrame@KFbxVideo@fbxsdk_20100@@QAEHXZ
	?SetStopFrame@KFbxVideo@fbxsdk_20100@@QAEXH@Z
	?GetPlaySpeed@KFbxVideo@fbxsdk_20100@@QAENXZ
	?SetPlaySpeed@KFbxVideo@fbxsdk_20100@@QAEXN@Z
	?GetOffset@KFbxVideo@fbxsdk_20100@@QAE?AVKTime@2@XZ
	?SetOffset@KFbxVideo@fbxsdk_20100@@QAEXVKTime@2@@Z
	?GetFreeRunning@KFbxVideo@fbxsdk_20100@@QAE_NXZ
	?SetFreeRunning@KFbxVideo@fbxsdk_20100@@QAEX_N@Z
	?GetLoop@KFbxVideo@fbxsdk_20100@@QAE_NXZ
	?SetLoop@KFbxVideo@fbxsdk_20100@@QAEX_N@Z
	?GetInterlaceMode@KFbxVideo@fbxsdk_20100@@QAE?AW4EInterlaceMode@12@XZ
	?SetInterlaceMode@KFbxVideo@fbxsdk_20100@@QAEXW4EInterlaceMode@12@@Z
	?GetAccessMode@KFbxVideo@fbxsdk_20100@@QAE?AW4EAccessMode@12@XZ
	?SetAccessMode@KFbxVideo@fbxsdk_20100@@QAEXW4EAccessMode@12@@Z
	?Clone@KFbxVideo@fbxsdk_20100@@UBEPAVKFbxObject@2@PAV32@W4ECloneType@32@@Z
	??1?$KArrayTemplate@PAVKFbxTakeNode@fbxsdk_20100@@@fbxsdk_20100@@QAE@XZ
	??1?$KArrayTemplate@PAVKFbxDefaultTakeCallback@fbxsdk_20100@@@fbxsdk_20100@@QAE@XZ
	?StaticInit@?$KFbxTypedProperty@N@fbxsdk_20100@@QAEABVKFbxProperty@2@PAVKFbxObject@2@PBDABVKFbxDataType@2@ABN_NW4eFbxPropertyFlags@FbxPropertyFlags@2@@Z
	?StaticInit@?$KFbxTypedProperty@H@fbxsdk_20100@@QAEABVKFbxProperty@2@PAVKFbxObject@2@PBDABVKFbxDataType@2@ABH_NW4eFbxPropertyFlags@FbxPropertyFlags@2@@Z
	?StaticInit@?$KFbxTypedProperty@VKString@fbxsdk_20100@@@fbxsdk_20100@@QAEABVKFbxProperty@2@PAVKFbxObject@2@PBDABVKFbxDataType@2@ABVKString@2@_NW4eFbxPropertyFlags@FbxPropertyFlags@2@@Z
	?StaticInit@?$KFbxTypedProperty@VKTime@fbxsdk_20100@@@fbxsdk_20100@@QAEABVKFbxProperty@2@PAVKFbxObject@2@PBDABVKFbxDataType@2@ABVKTime@2@_NW4eFbxPropertyFlags@FbxPropertyFlags@2@@Z
	?StaticInit@?$KFbxTypedProperty@W4EInterlaceMode@KFbxVideo@fbxsdk_20100@@@fbxsdk_20100@@QAEABVKFbxProperty@2@PAVKFbxObject@2@PBDABVKFbxDataType@2@ABW4EInterlaceMode@KFbxVideo@2@_NW4eFbxPropertyFlags@FbxPropertyFlags@2@@Z
	?StaticInit@?$KFbxTypedProperty@_N@fbxsdk_20100@@QAEABVKFbxProperty@2@PAVKFbxObject@2@PBDABVKFbxDataType@2@AB_N_NW4eFbxPropertyFlags@FbxPropertyFlags@2@@Z
	?StaticInit@?$KFbxTypedProperty@W4EAccessMode@KFbxVideo@fbxsdk_20100@@@fbxsdk_20100@@QAEABVKFbxProperty@2@PAVKFbxObject@2@PBDABVKFbxDataType@2@ABW4EAccessMode@KFbxVideo@2@_NW4eFbxPropertyFlags@FbxPropertyFlags@2@@Z
	?GetCount@?$KBaseArray@V?$KBaseArraySizeType@PAVKStringListItem@fbxsdk_20100@@@fbxsdk_20100@@@fbxsdk_20100@@QBEHXZ
	??1KFbxTakeNodeContainer@fbxsdk_20100@@UAE@XZ
	??_7KFbxTakeNodeContainer@fbxsdk_20100@@6B@
	??_R4KFbxTakeNodeContainer@fbxsdk_20100@@6B@
	??_R0?AVKFbxTakeNodeContainer@fbxsdk_20100@@@8
	??_R3KFbxTakeNodeContainer@fbxsdk_20100@@8
	??_R2KFbxTakeNodeContainer@fbxsdk_20100@@8
	??_R1A@?0A@EA@KFbxTakeNodeContainer@fbxsdk_20100@@8
	?GetClassId@KFbxTakeNodeContainer@fbxsdk_20100@@UBE?AVkFbxClassId@2@XZ
	??_GKFbxTakeNodeContainer@fbxsdk_20100@@UAEPAXI@Z
	??0KFbxVideo@fbxsdk_20100@@IAE@AAVKFbxSdkManager@1@PBD@Z
	??_7KFbxVideo@fbxsdk_20100@@6B@
	??_R4KFbxVideo@fbxsdk_20100@@6B@
	??_R0?AVKFbxVideo@fbxsdk_20100@@@8
	??_R3KFbxVideo@fbxsdk_20100@@8
	??_R2KFbxVideo@fbxsdk_20100@@8
	??_R1A@?0A@EA@KFbxVideo@fbxsdk_20100@@8
	?GetClassId@KFbxVideo@fbxsdk_20100@@UBE?AVkFbxClassId@2@XZ
	??1KFbxVideo@fbxsdk_20100@@UAE@XZ
	??_GKFbxVideo@fbxsdk_20100@@UAEPAXI@Z
	?ConstructProperties@KFbxVideo@fbxsdk_20100@@MAE_N_N@Z
	?ConnecNotify@KFbxVideo@fbxsdk_20100@@MAE_NABVKFbxConnectEvent@2@@Z
	?SetFileName@KFbxVideo@fbxsdk_20100@@QAE_NPBD@Z
	?Add@?$KStringListTemplate@VKStringListItem@fbxsdk_20100@@@fbxsdk_20100@@QAEHPADI@Z
	?Clear@?$KStringListTemplate@VKStringListItem@fbxsdk_20100@@@fbxsdk_20100@@UAEXXZ
	??1?$KStringListTemplate@VKStringListItem@fbxsdk_20100@@@fbxsdk_20100@@UAE@XZ
	??_7?$KStringListTemplate@VKStringListItem@fbxsdk_20100@@@fbxsdk_20100@@6B@
	??_R4?$KStringListTemplate@VKStringListItem@fbxsdk_20100@@@fbxsdk_20100@@6B@
	??_R0?AV?$KStringListTemplate@VKStringListItem@fbxsdk_20100@@@fbxsdk_20100@@@8
	??_R3?$KStringListTemplate@VKStringListItem@fbxsdk_20100@@@fbxsdk_20100@@8
	??_R2?$KStringListTemplate@VKStringListItem@fbxsdk_20100@@@fbxsdk_20100@@8
	??_R1A@?0A@EA@?$KStringListTemplate@VKStringListItem@fbxsdk_20100@@@fbxsdk_20100@@8
	??0KStringListItem@fbxsdk_20100@@QAE@PBDI@Z
	?GetBlockCount@?$KBaseArray@V?$KBaseArraySizeType@PAVKStringListItem@fbxsdk_20100@@@fbxsdk_20100@@@fbxsdk_20100@@IBEHXZ
	?GetHeader@?$KBaseArray@V?$KBaseArraySizeType@PAVKStringListItem@fbxsdk_20100@@@fbxsdk_20100@@@fbxsdk_20100@@IAEPAUKHeader@12@XZ
	?GetTypeSize@?$KBaseArraySizeType@PAVKStringListItem@fbxsdk_20100@@@fbxsdk_20100@@QBEHXZ
	?GetAt@?$KArrayTemplate@PAVKStringListItem@fbxsdk_20100@@@fbxsdk_20100@@QBEPAVKStringListItem@2@H@Z
	?GetTypeSize@?$KBaseArray@V?$KBaseArraySizeType@PAVKStringListItem@fbxsdk_20100@@@fbxsdk_20100@@@fbxsdk_20100@@QBEHXZ
	?SetArrayCount@?$KBaseArray@V?$KBaseArraySizeType@PAVKStringListItem@fbxsdk_20100@@@fbxsdk_20100@@@fbxsdk_20100@@IAEXH@Z
	?SetBlockCount@?$KBaseArray@V?$KBaseArraySizeType@PAVKStringListItem@fbxsdk_20100@@@fbxsdk_20100@@@fbxsdk_20100@@IAEXH@Z
	?InsertAt@?$KBaseArray@V?$KBaseArraySizeType@PAVKStringListItem@fbxsdk_20100@@@fbxsdk_20100@@@fbxsdk_20100@@IAEHHPAX@Z
	?RemoveAt@?$KBaseArray@V?$KBaseArraySizeType@PAVKStringListItem@fbxsdk_20100@@@fbxsdk_20100@@@fbxsdk_20100@@IAEXH@Z
	?SetStringAt@?$KStringListTemplate@VKStringListItem@fbxsdk_20100@@@fbxsdk_20100@@UAE_NHPAD@Z
	?GetText@?$KStringListTemplate@VKStringListItem@fbxsdk_20100@@@fbxsdk_20100@@UAEXAAVKString@2@@Z
	?SetText@?$KStringListTemplate@VKStringListItem@fbxsdk_20100@@@fbxsdk_20100@@UAEHPAD@Z
	?InsertAt@?$KArrayTemplate@PAVKStringListItem@fbxsdk_20100@@@fbxsdk_20100@@QAEHHPAVKStringListItem@2@@Z
	?RemoveAt@?$KArrayTemplate@PAVKStringListItem@fbxsdk_20100@@@fbxsdk_20100@@QAEPAVKStringListItem@2@H@Z
	?InsertAt@?$KStringListTemplate@VKStringListItem@fbxsdk_20100@@@fbxsdk_20100@@UAEHHPADI@Z
	?RemoveAt@?$KStringListTemplate@VKStringListItem@fbxsdk_20100@@@fbxsdk_20100@@UAEXH@Z
	??_G?$KStringListTemplate@VKStringListItem@fbxsdk_20100@@@fbxsdk_20100@@UAEPAXI@Z
	??1KStringList@fbxsdk_20100@@UAE@XZ
	?GetTypeFlags@KFbxVideo@fbxsdk_20100@@UBE?AVKStringList@2@XZ
	?smMutex@?$KFbxEvent@VKFbxObjectPropertyChanged@fbxsdk_20100@@@kfbxevents@fbxsdk_20100@@0VKFbxMutex@kfbxmp@3@A
	?smError@KFbxVideo@fbxsdk_20100@@1VKError@2@A
	?ClassId@KFbxVideo@fbxsdk_20100@@2VkFbxClassId@2@A
	?GetTypeSize@?$KBaseArray@V?$KBaseArraySizeType@PAVKFbxWeightInfo@fbxsdk_20100@@@fbxsdk_20100@@@fbxsdk_20100@@QBEHXZ
	?SetArrayCount@?$KBaseArray@V?$KBaseArraySizeType@PAVKFbxWeightInfo@fbxsdk_20100@@@fbxsdk_20100@@@fbxsdk_20100@@IAEXH@Z
	?SetBlockCount@?$KBaseArray@V?$KBaseArraySizeType@PAVKFbxWeightInfo@fbxsdk_20100@@@fbxsdk_20100@@@fbxsdk_20100@@IAEXH@Z
	??1KFbxWeightInfo@fbxsdk_20100@@QAE@XZ
	?GetCount@?$KBaseArray@V?$KBaseArraySizeType@PAVKFbxWeightInfo@fbxsdk_20100@@@fbxsdk_20100@@@fbxsdk_20100@@QBEHXZ
	?GetPixelFormat@KFbxImage@fbxsdk_20100@@QBE?AVKFbxImagePixelFormat@2@XZ
	??0KFbxWeightInfo@fbxsdk_20100@@QAE@XZ
	?Init@KFbxImage@fbxsdk_20100@@QAE_NVKFbxImagePixelFormat@2@HH@Z
	?ImageCopy@KFbxImage@fbxsdk_20100@@CA_NPAV12@HHPBV12@HHHH@Z
	?ImageCopy@KFbxImage@fbxsdk_20100@@CA_NABUKFbxImageData@2@HHPBV12@HHHH@Z
	?ImageCopy@KFbxImage@fbxsdk_20100@@CA_NPAV12@HHABUKFbxImageData@2@HHHH@Z
	?StaticInit@?$KFbxTypedProperty@H@fbxsdk_20100@@QAEABVKFbxProperty@2@PAVKFbxObject@2@PBDABVKFbxDataType@2@ABH_NW4eFbxPropertyFlags@FbxPropertyFlags@2@@Z
	?StaticInit@?$KFbxTypedProperty@W4ComponentEncoding@KFbxImagePixelFormat@fbxsdk_20100@@@fbxsdk_20100@@QAEABVKFbxProperty@2@PAVKFbxObject@2@PBDABVKFbxDataType@2@ABW4ComponentEncoding@KFbxImagePixelFormat@2@_NW4eFbxPropertyFlags@FbxPropertyFlags@2@@Z
	?StaticInit@?$KFbxTypedProperty@W4PixelEncoding@KFbxImagePixelFormat@fbxsdk_20100@@@fbxsdk_20100@@QAEABVKFbxProperty@2@PAVKFbxObject@2@PBDABVKFbxDataType@2@ABW4PixelEncoding@KFbxImagePixelFormat@2@_NW4eFbxPropertyFlags@FbxPropertyFlags@2@@Z
	?StaticInit@?$KFbxTypedProperty@VKString@fbxsdk_20100@@@fbxsdk_20100@@QAEABVKFbxProperty@2@PAVKFbxObject@2@PBDABVKFbxDataType@2@ABVKString@2@_NW4eFbxPropertyFlags@FbxPropertyFlags@2@@Z
	?SetAt@?$KArrayTemplate@N@fbxsdk_20100@@QAEXHN@Z
	??0?$KArrayTemplate@PAVKFbxWeightInfo@fbxsdk_20100@@@fbxsdk_20100@@QAE@XZ
	??1?$KArrayTemplate@PAVKFbxWeightInfo@fbxsdk_20100@@@fbxsdk_20100@@QAE@XZ
	?AddMultiple@?$KBaseArray@V?$KBaseArraySizeType@N@fbxsdk_20100@@@fbxsdk_20100@@QAEXH@Z
	?InsertAt@?$KBaseArray@V?$KBaseArraySizeType@PAVKFbxWeightInfo@fbxsdk_20100@@@fbxsdk_20100@@@fbxsdk_20100@@IAEHHPAX@Z
	?ConstructProperties@KFbxImage@fbxsdk_20100@@MAE_N_N@Z
	?ReadTile@KFbxImage@fbxsdk_20100@@QBE_NABUKFbxImageData@2@HHHHHH@Z
	?ReadTile@KFbxImage@fbxsdk_20100@@QBE_NPAV12@HHHHHH@Z
	?WriteTile@KFbxImage@fbxsdk_20100@@QAE_NHHABUKFbxImageData@2@HHHH@Z
	?WriteTile@KFbxImage@fbxsdk_20100@@QAE_NHHPBV12@HHHH@Z
	?KFbxImage_Tiff_Read@fbxsdk_20100@@YA_NPAVKFbxImage@1@VKString@1@@Z
	?KFbxImage_Tiff_Write@fbxsdk_20100@@YA_NVKString@1@PBVKFbxImage@1@W4eKFbxImage_Tiff_Compression@1@H@Z
	?SetCount@?$KBaseArray@V?$KBaseArraySizeType@N@fbxsdk_20100@@@fbxsdk_20100@@QAEXH@Z
	?InsertAt@?$KArrayTemplate@PAVKFbxWeightInfo@fbxsdk_20100@@@fbxsdk_20100@@QAEHHPAVKFbxWeightInfo@2@@Z
	??$DeleteAndClear@PAVKFbxWeightInfo@fbxsdk_20100@@@fbxsdk_20100@@YAXAAV?$KArrayTemplate@PAVKFbxWeightInfo@fbxsdk_20100@@@0@@Z
	?Init@KFbxImage@fbxsdk_20100@@QAE_NPBV12@@Z
	?Init@KFbxImage@fbxsdk_20100@@QAE_NABUKFbxImageData@2@@Z
	?Load@KFbxImage@fbxsdk_20100@@UAE_NPBD@Z
	?Save@KFbxImage@fbxsdk_20100@@UBE_NPBD@Z
	?Add@?$KArrayTemplate@PAVKFbxWeightInfo@fbxsdk_20100@@@fbxsdk_20100@@QAEHPAVKFbxWeightInfo@2@@Z
	?FillWeightInformation@fbxsdk_20100@@YA_NAAV?$KArrayTemplate@PAVKFbxWeightInfo@fbxsdk_20100@@@1@NHHW4EScalingFilterMode@1@N@Z
	?Clone@KFbxImage@fbxsdk_20100@@MBEPAVKFbxObject@2@PAV32@W4ECloneType@32@@Z
	?ResizeImageWidth@KFbxImage@fbxsdk_20100@@QAE_NAAV12@HW4EScalingFilterMode@2@N@Z
	?ResizeImageWidth@KFbxImage@fbxsdk_20100@@QAE_NHW4EScalingFilterMode@2@N@Z
	?ResizeImageHeight@KFbxImage@fbxsdk_20100@@QAE_NAAV12@HW4EScalingFilterMode@2@N@Z
	?ResizeImageHeight@KFbxImage@fbxsdk_20100@@QAE_NHW4EScalingFilterMode@2@N@Z
	?smMutex@?$KFbxEvent@VKFbxObjectPropertyChanged@fbxsdk_20100@@@kfbxevents@fbxsdk_20100@@0VKFbxMutex@kfbxmp@3@A
	?ClassId@KFbxImage@fbxsdk_20100@@2VkFbxClassId@2@A
	??_7?$KStringListTemplate@VKStringListItem@fbxsdk_20100@@@fbxsdk_20100@@6B@
	??_R4?$KStringListTemplate@VKStringListItem@fbxsdk_20100@@@fbxsdk_20100@@6B@
	??_R0?AV?$KStringListTemplate@VKStringListItem@fbxsdk_20100@@@fbxsdk_20100@@@8
	??_R3?$KStringListTemplate@VKStringListItem@fbxsdk_20100@@@fbxsdk_20100@@8
	??_R2?$KStringListTemplate@VKStringListItem@fbxsdk_20100@@@fbxsdk_20100@@8
	??_R1A@?0A@EA@?$KStringListTemplate@VKStringListItem@fbxsdk_20100@@@fbxsdk_20100@@8
	?Buffer@KString@fbxsdk_20100@@QAEPADXZ
	??0KStringListItem@fbxsdk_20100@@QAE@PBDI@Z
	?GetBlockCount@?$KBaseArray@V?$KBaseArraySizeType@PAVKStringListItem@fbxsdk_20100@@@fbxsdk_20100@@@fbxsdk_20100@@IBEHXZ
	?GetHeader@?$KBaseArray@V?$KBaseArraySizeType@PAVKStringListItem@fbxsdk_20100@@@fbxsdk_20100@@@fbxsdk_20100@@IAEPAUKHeader@12@XZ
	?GetTypeSize@?$KBaseArraySizeType@PAVKStringListItem@fbxsdk_20100@@@fbxsdk_20100@@QBEHXZ
	?GetAt@?$KArrayTemplate@PAVKStringListItem@fbxsdk_20100@@@fbxsdk_20100@@QBEPAVKStringListItem@2@H@Z
	?GetTypeSize@?$KBaseArray@V?$KBaseArraySizeType@PAVKStringListItem@fbxsdk_20100@@@fbxsdk_20100@@@fbxsdk_20100@@QBEHXZ
	?SetArrayCount@?$KBaseArray@V?$KBaseArraySizeType@PAVKStringListItem@fbxsdk_20100@@@fbxsdk_20100@@@fbxsdk_20100@@IAEXH@Z
	?SetBlockCount@?$KBaseArray@V?$KBaseArraySizeType@PAVKStringListItem@fbxsdk_20100@@@fbxsdk_20100@@@fbxsdk_20100@@IAEXH@Z
	?InsertAt@?$KBaseArray@V?$KBaseArraySizeType@PAVKStringListItem@fbxsdk_20100@@@fbxsdk_20100@@@fbxsdk_20100@@IAEHHPAX@Z
	?RemoveAt@?$KBaseArray@V?$KBaseArraySizeType@PAVKStringListItem@fbxsdk_20100@@@fbxsdk_20100@@@fbxsdk_20100@@IAEXH@Z
	?SetStringAt@?$KStringListTemplate@VKStringListItem@fbxsdk_20100@@@fbxsdk_20100@@UAE_NHPAD@Z
	?GetText@?$KStringListTemplate@VKStringListItem@fbxsdk_20100@@@fbxsdk_20100@@UAEXAAVKString@2@@Z
	?Add@?$KStringListTemplate@VKStringListItem@fbxsdk_20100@@@fbxsdk_20100@@QAEHPADI@Z
	?InsertAt@?$KArrayTemplate@PAVKStringListItem@fbxsdk_20100@@@fbxsdk_20100@@QAEHHPAVKStringListItem@2@@Z
	?RemoveAt@?$KArrayTemplate@PAVKStringListItem@fbxsdk_20100@@@fbxsdk_20100@@QAEPAVKStringListItem@2@H@Z
	?InsertAt@?$KStringListTemplate@VKStringListItem@fbxsdk_20100@@@fbxsdk_20100@@UAEHHPADI@Z
	?RemoveAt@?$KStringListTemplate@VKStringListItem@fbxsdk_20100@@@fbxsdk_20100@@UAEXH@Z
	?SetText@?$KStringListTemplate@VKStringListItem@fbxsdk_20100@@@fbxsdk_20100@@UAEHPAD@Z
	??_G?$KStringListTemplate@VKStringListItem@fbxsdk_20100@@@fbxsdk_20100@@UAEPAXI@Z
	??1KStringList@fbxsdk_20100@@UAE@XZ
	?GetTypeFlags@KFbxNurbsCurve@fbxsdk_20100@@MBE?AVKStringList@2@XZ
	?smMutex@?$KFbxEvent@VKFbxObjectPropertyChanged@fbxsdk_20100@@@kfbxevents@fbxsdk_20100@@0VKFbxMutex@kfbxmp@3@A
	?ClassId@KFbxNurbsCurve@fbxsdk_20100@@2VkFbxClassId@2@A
	??_GKFbxGeometry@fbxsdk_20100@@UAEPAXI@Z
	??0KFbxSubdiv@fbxsdk_20100@@QAE@AAVKFbxSdkManager@1@PBD@Z
	??_7KFbxSubdiv@fbxsdk_20100@@6B@
	??_R4KFbxSubdiv@fbxsdk_20100@@6B@
	??_R0?AVKFbxSubdiv@fbxsdk_20100@@@8
	??_R3KFbxSubdiv@fbxsdk_20100@@8
	??_R2KFbxSubdiv@fbxsdk_20100@@8
	??_R1A@?0A@EA@KFbxSubdiv@fbxsdk_20100@@8
	?GetClassId@KFbxSubdiv@fbxsdk_20100@@UBE?AVkFbxClassId@2@XZ
	??1KFbxSubdiv@fbxsdk_20100@@UAE@XZ
	??_GKFbxSubdiv@fbxsdk_20100@@UAEPAXI@Z
	?InitSubdivLevel@KFbxSubdiv@fbxsdk_20100@@QAEXHW4SubdivScheme@12@W4TessPattern@12@@Z
	?SetSubdivLevelMesh@KFbxSubdiv@fbxsdk_20100@@QAEXHPAVKFbxMesh@2@@Z
	?GetBaseMesh@KFbxSubdiv@fbxsdk_20100@@QBEPAVKFbxMesh@2@XZ
	?GetFinestMesh@KFbxSubdiv@fbxsdk_20100@@QBEPAVKFbxMesh@2@XZ
	?SetFinestMesh@KFbxSubdiv@fbxsdk_20100@@QAE_NPAVKFbxMesh@2@@Z
	?SetBaseMesh@KFbxSubdiv@fbxsdk_20100@@QAE_NPAVKFbxMesh@2@@Z
	?GetMesh@KFbxSubdiv@fbxsdk_20100@@QBEPAVKFbxMesh@2@H@Z
	?Clear@?$KStringListTemplate@VKStringListItem@fbxsdk_20100@@@fbxsdk_20100@@UAEXXZ
	?GetCurrentMesh@KFbxSubdiv@fbxsdk_20100@@QBEPAVKFbxMesh@2@XZ
	??1?$KStringListTemplate@VKStringListItem@fbxsdk_20100@@@fbxsdk_20100@@UAE@XZ
	??_7?$KStringListTemplate@VKStringListItem@fbxsdk_20100@@@fbxsdk_20100@@6B@
	??_R4?$KStringListTemplate@VKStringListItem@fbxsdk_20100@@@fbxsdk_20100@@6B@
	??_R0?AV?$KStringListTemplate@VKStringListItem@fbxsdk_20100@@@fbxsdk_20100@@@8
	??_R3?$KStringListTemplate@VKStringListItem@fbxsdk_20100@@@fbxsdk_20100@@8
	??_R2?$KStringListTemplate@VKStringListItem@fbxsdk_20100@@@fbxsdk_20100@@8
	??_R1A@?0A@EA@?$KStringListTemplate@VKStringListItem@fbxsdk_20100@@@fbxsdk_20100@@8
	?Buffer@KString@fbxsdk_20100@@QAEPADXZ
	??0KStringListItem@fbxsdk_20100@@QAE@PBDI@Z
	?GetBlockCount@?$KBaseArray@V?$KBaseArraySizeType@PAVKStringListItem@fbxsdk_20100@@@fbxsdk_20100@@@fbxsdk_20100@@IBEHXZ
	?GetHeader@?$KBaseArray@V?$KBaseArraySizeType@PAVKStringListItem@fbxsdk_20100@@@fbxsdk_20100@@@fbxsdk_20100@@IAEPAUKHeader@12@XZ
	?GetTypeSize@?$KBaseArraySizeType@PAVKStringListItem@fbxsdk_20100@@@fbxsdk_20100@@QBEHXZ
	?GetAt@?$KArrayTemplate@PAVKStringListItem@fbxsdk_20100@@@fbxsdk_20100@@QBEPAVKStringListItem@2@H@Z
	?GetTypeSize@?$KBaseArray@V?$KBaseArraySizeType@PAVKStringListItem@fbxsdk_20100@@@fbxsdk_20100@@@fbxsdk_20100@@QBEHXZ
	?SetArrayCount@?$KBaseArray@V?$KBaseArraySizeType@PAVKStringListItem@fbxsdk_20100@@@fbxsdk_20100@@@fbxsdk_20100@@IAEXH@Z
	?SetBlockCount@?$KBaseArray@V?$KBaseArraySizeType@PAVKStringListItem@fbxsdk_20100@@@fbxsdk_20100@@@fbxsdk_20100@@IAEXH@Z
	?InsertAt@?$KBaseArray@V?$KBaseArraySizeType@PAVKStringListItem@fbxsdk_20100@@@fbxsdk_20100@@@fbxsdk_20100@@IAEHHPAX@Z
	?RemoveAt@?$KBaseArray@V?$KBaseArraySizeType@PAVKStringListItem@fbxsdk_20100@@@fbxsdk_20100@@@fbxsdk_20100@@IAEXH@Z
	?SetStringAt@?$KStringListTemplate@VKStringListItem@fbxsdk_20100@@@fbxsdk_20100@@UAE_NHPAD@Z
	?GetText@?$KStringListTemplate@VKStringListItem@fbxsdk_20100@@@fbxsdk_20100@@UAEXAAVKString@2@@Z
	?Add@?$KStringListTemplate@VKStringListItem@fbxsdk_20100@@@fbxsdk_20100@@QAEHPADI@Z
	?InsertAt@?$KArrayTemplate@PAVKStringListItem@fbxsdk_20100@@@fbxsdk_20100@@QAEHHPAVKStringListItem@2@@Z
	?RemoveAt@?$KArrayTemplate@PAVKStringListItem@fbxsdk_20100@@@fbxsdk_20100@@QAEPAVKStringListItem@2@H@Z
	?InsertAt@?$KStringListTemplate@VKStringListItem@fbxsdk_20100@@@fbxsdk_20100@@UAEHHPADI@Z
	?RemoveAt@?$KStringListTemplate@VKStringListItem@fbxsdk_20100@@@fbxsdk_20100@@UAEXH@Z
	?SetText@?$KStringListTemplate@VKStringListItem@fbxsdk_20100@@@fbxsdk_20100@@UAEHPAD@Z
	??_G?$KStringListTemplate@VKStringListItem@fbxsdk_20100@@@fbxsdk_20100@@UAEPAXI@Z
	??1KStringList@fbxsdk_20100@@UAE@XZ
	?GetTypeFlags@KFbxSubdiv@fbxsdk_20100@@UBE?AVKStringList@2@XZ
	?smMutex@?$KFbxEvent@VKFbxObjectPropertyChanged@fbxsdk_20100@@@kfbxevents@fbxsdk_20100@@0VKFbxMutex@kfbxmp@3@A
	?ClassId@KFbxSubdiv@fbxsdk_20100@@2VkFbxClassId@2@A
	??_GKFbxGeometry@fbxsdk_20100@@UAEPAXI@Z
	??0KFbxNurb@fbxsdk_20100@@IAE@AAVKFbxSdkManager@1@PBD@Z
	??_7KFbxNurb@fbxsdk_20100@@6B@
	??_R4KFbxNurb@fbxsdk_20100@@6B@
	??_R0?AVKFbxNurb@fbxsdk_20100@@@8
	??_R3KFbxNurb@fbxsdk_20100@@8
	??_R2KFbxNurb@fbxsdk_20100@@8
	??_R1A@?0A@EA@KFbxNurb@fbxsdk_20100@@8
	?GetClassId@KFbxNurb@fbxsdk_20100@@UBE?AVkFbxClassId@2@XZ
	??1KFbxNurb@fbxsdk_20100@@UAE@XZ
	??_GKFbxNurb@fbxsdk_20100@@UAEPAXI@Z
	?Clear@?$KStringListTemplate@VKStringListItem@fbxsdk_20100@@@fbxsdk_20100@@UAEXXZ
	??1?$KStringListTemplate@VKStringListItem@fbxsdk_20100@@@fbxsdk_20100@@UAE@XZ
	??_7?$KStringListTemplate@VKStringListItem@fbxsdk_20100@@@fbxsdk_20100@@6B@
	??_R4?$KStringListTemplate@VKStringListItem@fbxsdk_20100@@@fbxsdk_20100@@6B@
	??_R0?AV?$KStringListTemplate@VKStringListItem@fbxsdk_20100@@@fbxsdk_20100@@@8
	??_R3?$KStringListTemplate@VKStringListItem@fbxsdk_20100@@@fbxsdk_20100@@8
	??_R2?$KStringListTemplate@VKStringListItem@fbxsdk_20100@@@fbxsdk_20100@@8
	??_R1A@?0A@EA@?$KStringListTemplate@VKStringListItem@fbxsdk_20100@@@fbxsdk_20100@@8
	?Buffer@KString@fbxsdk_20100@@QAEPADXZ
	??0KStringListItem@fbxsdk_20100@@QAE@PBDI@Z
	?GetBlockCount@?$KBaseArray@V?$KBaseArraySizeType@PAVKStringListItem@fbxsdk_20100@@@fbxsdk_20100@@@fbxsdk_20100@@IBEHXZ
	?GetHeader@?$KBaseArray@V?$KBaseArraySizeType@PAVKStringListItem@fbxsdk_20100@@@fbxsdk_20100@@@fbxsdk_20100@@IAEPAUKHeader@12@XZ
	?GetTypeSize@?$KBaseArraySizeType@PAVKStringListItem@fbxsdk_20100@@@fbxsdk_20100@@QBEHXZ
	?GetAt@?$KArrayTemplate@PAVKStringListItem@fbxsdk_20100@@@fbxsdk_20100@@QBEPAVKStringListItem@2@H@Z
	?GetTypeSize@?$KBaseArray@V?$KBaseArraySizeType@PAVKStringListItem@fbxsdk_20100@@@fbxsdk_20100@@@fbxsdk_20100@@QBEHXZ
	?SetArrayCount@?$KBaseArray@V?$KBaseArraySizeType@PAVKStringListItem@fbxsdk_20100@@@fbxsdk_20100@@@fbxsdk_20100@@IAEXH@Z
	?SetBlockCount@?$KBaseArray@V?$KBaseArraySizeType@PAVKStringListItem@fbxsdk_20100@@@fbxsdk_20100@@@fbxsdk_20100@@IAEXH@Z
	?InsertAt@?$KBaseArray@V?$KBaseArraySizeType@PAVKStringListItem@fbxsdk_20100@@@fbxsdk_20100@@@fbxsdk_20100@@IAEHHPAX@Z
	?RemoveAt@?$KBaseArray@V?$KBaseArraySizeType@PAVKStringListItem@fbxsdk_20100@@@fbxsdk_20100@@@fbxsdk_20100@@IAEXH@Z
	?SetStringAt@?$KStringListTemplate@VKStringListItem@fbxsdk_20100@@@fbxsdk_20100@@UAE_NHPAD@Z
	?GetText@?$KStringListTemplate@VKStringListItem@fbxsdk_20100@@@fbxsdk_20100@@UAEXAAVKString@2@@Z
	?Add@?$KStringListTemplate@VKStringListItem@fbxsdk_20100@@@fbxsdk_20100@@QAEHPADI@Z
	?InsertAt@?$KArrayTemplate@PAVKStringListItem@fbxsdk_20100@@@fbxsdk_20100@@QAEHHPAVKStringListItem@2@@Z
	?RemoveAt@?$KArrayTemplate@PAVKStringListItem@fbxsdk_20100@@@fbxsdk_20100@@QAEPAVKStringListItem@2@H@Z
	?InsertAt@?$KStringListTemplate@VKStringListItem@fbxsdk_20100@@@fbxsdk_20100@@UAEHHPADI@Z
	?RemoveAt@?$KStringListTemplate@VKStringListItem@fbxsdk_20100@@@fbxsdk_20100@@UAEXH@Z
	?SetText@?$KStringListTemplate@VKStringListItem@fbxsdk_20100@@@fbxsdk_20100@@UAEHPAD@Z
	??_G?$KStringListTemplate@VKStringListItem@fbxsdk_20100@@@fbxsdk_20100@@UAEPAXI@Z
	??1KStringList@fbxsdk_20100@@UAE@XZ
	?GetTypeFlags@KFbxNurb@fbxsdk_20100@@MBE?AVKStringList@2@XZ
	?smMutex@?$KFbxEvent@VKFbxObjectPropertyChanged@fbxsdk_20100@@@kfbxevents@fbxsdk_20100@@0VKFbxMutex@kfbxmp@3@A
	?ClassId@KFbxNurb@fbxsdk_20100@@2VkFbxClassId@2@A
	??_GKFbxLayerContainer@fbxsdk_20100@@UAEPAXI@Z
	??1KFbxGeometryBase@fbxsdk_20100@@UAE@XZ
	??_7KFbxGeometryBase@fbxsdk_20100@@6B@
	??_R4KFbxGeometryBase@fbxsdk_20100@@6B@
	??_R0?AVKFbxGeometryBase@fbxsdk_20100@@@8
	??_R3KFbxGeometryBase@fbxsdk_20100@@8
	??_R2KFbxGeometryBase@fbxsdk_20100@@8
	??_R1A@?0A@EA@KFbxGeometryBase@fbxsdk_20100@@8
	?GetClassId@KFbxGeometryBase@fbxsdk_20100@@UBE?AVkFbxClassId@2@XZ
	??_GKFbxGeometryBase@fbxsdk_20100@@UAEPAXI@Z
	??1KFbxGeometry@fbxsdk_20100@@UAE@XZ
	??_7KFbxGeometry@fbxsdk_20100@@6B@
	??_R4KFbxGeometry@fbxsdk_20100@@6B@
	??_R0?AVKFbxGeometry@fbxsdk_20100@@@8
	??_R3KFbxGeometry@fbxsdk_20100@@8
	??_R2KFbxGeometry@fbxsdk_20100@@8
	??_R1A@?0A@EA@KFbxGeometry@fbxsdk_20100@@8
	?GetClassId@KFbxGeometry@fbxsdk_20100@@UBE?AVkFbxClassId@2@XZ
	??_GKFbxGeometry@fbxsdk_20100@@UAEPAXI@Z
	??0KFbxNurbsSurface@fbxsdk_20100@@IAE@AAVKFbxSdkManager@1@PBD@Z
	??_7KFbxNurbsSurface@fbxsdk_20100@@6B@
	??_R4KFbxNurbsSurface@fbxsdk_20100@@6B@
	??_R0?AVKFbxNurbsSurface@fbxsdk_20100@@@8
	??_R3KFbxNurbsSurface@fbxsdk_20100@@8
	??_R2KFbxNurbsSurface@fbxsdk_20100@@8
	??_R1A@?0A@EA@KFbxNurbsSurface@fbxsdk_20100@@8
	?GetClassId@KFbxNurbsSurface@fbxsdk_20100@@UBE?AVkFbxClassId@2@XZ
	?GetAttributeType@KFbxNurbsSurface@fbxsdk_20100@@UBE?AW4EAttributeType@KFbxNodeAttribute@2@XZ
	??1KFbxNurbsSurface@fbxsdk_20100@@UAE@XZ
	??_GKFbxNurbsSurface@fbxsdk_20100@@UAEPAXI@Z
	?Clear@?$KStringListTemplate@VKStringListItem@fbxsdk_20100@@@fbxsdk_20100@@UAEXXZ
	??1?$KStringListTemplate@VKStringListItem@fbxsdk_20100@@@fbxsdk_20100@@UAE@XZ
	??_7?$KStringListTemplate@VKStringListItem@fbxsdk_20100@@@fbxsdk_20100@@6B@
	??_R4?$KStringListTemplate@VKStringListItem@fbxsdk_20100@@@fbxsdk_20100@@6B@
	??_R0?AV?$KStringListTemplate@VKStringListItem@fbxsdk_20100@@@fbxsdk_20100@@@8
	??_R3?$KStringListTemplate@VKStringListItem@fbxsdk_20100@@@fbxsdk_20100@@8
	??_R2?$KStringListTemplate@VKStringListItem@fbxsdk_20100@@@fbxsdk_20100@@8
	??_R1A@?0A@EA@?$KStringListTemplate@VKStringListItem@fbxsdk_20100@@@fbxsdk_20100@@8
	?Buffer@KString@fbxsdk_20100@@QAEPADXZ
	??0KStringListItem@fbxsdk_20100@@QAE@PBDI@Z
	?GetBlockCount@?$KBaseArray@V?$KBaseArraySizeType@PAVKStringListItem@fbxsdk_20100@@@fbxsdk_20100@@@fbxsdk_20100@@IBEHXZ
	?GetHeader@?$KBaseArray@V?$KBaseArraySizeType@PAVKStringListItem@fbxsdk_20100@@@fbxsdk_20100@@@fbxsdk_20100@@IAEPAUKHeader@12@XZ
	?GetTypeSize@?$KBaseArraySizeType@PAVKStringListItem@fbxsdk_20100@@@fbxsdk_20100@@QBEHXZ
	?GetAt@?$KArrayTemplate@PAVKStringListItem@fbxsdk_20100@@@fbxsdk_20100@@QBEPAVKStringListItem@2@H@Z
	?GetTypeSize@?$KBaseArray@V?$KBaseArraySizeType@PAVKStringListItem@fbxsdk_20100@@@fbxsdk_20100@@@fbxsdk_20100@@QBEHXZ
	?SetArrayCount@?$KBaseArray@V?$KBaseArraySizeType@PAVKStringListItem@fbxsdk_20100@@@fbxsdk_20100@@@fbxsdk_20100@@IAEXH@Z
	?SetBlockCount@?$KBaseArray@V?$KBaseArraySizeType@PAVKStringListItem@fbxsdk_20100@@@fbxsdk_20100@@@fbxsdk_20100@@IAEXH@Z
	?InsertAt@?$KBaseArray@V?$KBaseArraySizeType@PAVKStringListItem@fbxsdk_20100@@@fbxsdk_20100@@@fbxsdk_20100@@IAEHHPAX@Z
	?RemoveAt@?$KBaseArray@V?$KBaseArraySizeType@PAVKStringListItem@fbxsdk_20100@@@fbxsdk_20100@@@fbxsdk_20100@@IAEXH@Z
	?SetStringAt@?$KStringListTemplate@VKStringListItem@fbxsdk_20100@@@fbxsdk_20100@@UAE_NHPAD@Z
	?GetText@?$KStringListTemplate@VKStringListItem@fbxsdk_20100@@@fbxsdk_20100@@UAEXAAVKString@2@@Z
	?Add@?$KStringListTemplate@VKStringListItem@fbxsdk_20100@@@fbxsdk_20100@@QAEHPADI@Z
	?InsertAt@?$KArrayTemplate@PAVKStringListItem@fbxsdk_20100@@@fbxsdk_20100@@QAEHHPAVKStringListItem@2@@Z
	?RemoveAt@?$KArrayTemplate@PAVKStringListItem@fbxsdk_20100@@@fbxsdk_20100@@QAEPAVKStringListItem@2@H@Z
	?InsertAt@?$KStringListTemplate@VKStringListItem@fbxsdk_20100@@@fbxsdk_20100@@UAEHHPADI@Z
	?RemoveAt@?$KStringListTemplate@VKStringListItem@fbxsdk_20100@@@fbxsdk_20100@@UAEXH@Z
	?SetText@?$KStringListTemplate@VKStringListItem@fbxsdk_20100@@@fbxsdk_20100@@UAEHPAD@Z
	??_G?$KStringListTemplate@VKStringListItem@fbxsdk_20100@@@fbxsdk_20100@@UAEPAXI@Z
	??1KStringList@fbxsdk_20100@@UAE@XZ
	?GetTypeFlags@KFbxNurbsSurface@fbxsdk_20100@@MBE?AVKStringList@2@XZ
	?ClassId@KFbxNurbsSurface@fbxsdk_20100@@2VkFbxClassId@2@A
	?smMutex@?$KFbxEvent@VKFbxObjectPropertyChanged@fbxsdk_20100@@@kfbxevents@fbxsdk_20100@@0VKFbxMutex@kfbxmp@3@A
	??_R4KFbxPatch@fbxsdk_20100@@6B@
	??_R0?AVKFbxPatch@fbxsdk_20100@@@8
	??_R3KFbxPatch@fbxsdk_20100@@8
	??_R2KFbxPatch@fbxsdk_20100@@8
	??_R1A@?0A@EA@KFbxPatch@fbxsdk_20100@@8
	?GetClassId@KFbxPatch@fbxsdk_20100@@UBE?AVkFbxClassId@2@XZ
	??1KFbxPatch@fbxsdk_20100@@UAE@XZ
	??_GKFbxPatch@fbxsdk_20100@@UAEPAXI@Z
	?Clear@?$KStringListTemplate@VKStringListItem@fbxsdk_20100@@@fbxsdk_20100@@UAEXXZ
	??1?$KStringListTemplate@VKStringListItem@fbxsdk_20100@@@fbxsdk_20100@@UAE@XZ
	??_7?$KStringListTemplate@VKStringListItem@fbxsdk_20100@@@fbxsdk_20100@@6B@
	??_R4?$KStringListTemplate@VKStringListItem@fbxsdk_20100@@@fbxsdk_20100@@6B@
	??_R0?AV?$KStringListTemplate@VKStringListItem@fbxsdk_20100@@@fbxsdk_20100@@@8
	??_R3?$KStringListTemplate@VKStringListItem@fbxsdk_20100@@@fbxsdk_20100@@8
	??_R2?$KStringListTemplate@VKStringListItem@fbxsdk_20100@@@fbxsdk_20100@@8
	??_R1A@?0A@EA@?$KStringListTemplate@VKStringListItem@fbxsdk_20100@@@fbxsdk_20100@@8
	?Buffer@KString@fbxsdk_20100@@QAEPADXZ
	??0KStringListItem@fbxsdk_20100@@QAE@PBDI@Z
	?GetBlockCount@?$KBaseArray@V?$KBaseArraySizeType@PAVKStringListItem@fbxsdk_20100@@@fbxsdk_20100@@@fbxsdk_20100@@IBEHXZ
	?GetHeader@?$KBaseArray@V?$KBaseArraySizeType@PAVKStringListItem@fbxsdk_20100@@@fbxsdk_20100@@@fbxsdk_20100@@IAEPAUKHeader@12@XZ
	?GetTypeSize@?$KBaseArraySizeType@PAVKStringListItem@fbxsdk_20100@@@fbxsdk_20100@@QBEHXZ
	?GetAt@?$KArrayTemplate@PAVKStringListItem@fbxsdk_20100@@@fbxsdk_20100@@QBEPAVKStringListItem@2@H@Z
	?GetTypeSize@?$KBaseArray@V?$KBaseArraySizeType@PAVKStringListItem@fbxsdk_20100@@@fbxsdk_20100@@@fbxsdk_20100@@QBEHXZ
	?SetArrayCount@?$KBaseArray@V?$KBaseArraySizeType@PAVKStringListItem@fbxsdk_20100@@@fbxsdk_20100@@@fbxsdk_20100@@IAEXH@Z
	?SetBlockCount@?$KBaseArray@V?$KBaseArraySizeType@PAVKStringListItem@fbxsdk_20100@@@fbxsdk_20100@@@fbxsdk_20100@@IAEXH@Z
	?InsertAt@?$KBaseArray@V?$KBaseArraySizeType@PAVKStringListItem@fbxsdk_20100@@@fbxsdk_20100@@@fbxsdk_20100@@IAEHHPAX@Z
	?RemoveAt@?$KBaseArray@V?$KBaseArraySizeType@PAVKStringListItem@fbxsdk_20100@@@fbxsdk_20100@@@fbxsdk_20100@@IAEXH@Z
	?SetStringAt@?$KStringListTemplate@VKStringListItem@fbxsdk_20100@@@fbxsdk_20100@@UAE_NHPAD@Z
	?GetText@?$KStringListTemplate@VKStringListItem@fbxsdk_20100@@@fbxsdk_20100@@UAEXAAVKString@2@@Z
	?Add@?$KStringListTemplate@VKStringListItem@fbxsdk_20100@@@fbxsdk_20100@@QAEHPADI@Z
	?InsertAt@?$KArrayTemplate@PAVKStringListItem@fbxsdk_20100@@@fbxsdk_20100@@QAEHHPAVKStringListItem@2@@Z
	?RemoveAt@?$KArrayTemplate@PAVKStringListItem@fbxsdk_20100@@@fbxsdk_20100@@QAEPAVKStringListItem@2@H@Z
	?InsertAt@?$KStringListTemplate@VKStringListItem@fbxsdk_20100@@@fbxsdk_20100@@UAEHHPADI@Z
	?RemoveAt@?$KStringListTemplate@VKStringListItem@fbxsdk_20100@@@fbxsdk_20100@@UAEXH@Z
	?SetText@?$KStringListTemplate@VKStringListItem@fbxsdk_20100@@@fbxsdk_20100@@UAEHPAD@Z
	??_G?$KStringListTemplate@VKStringListItem@fbxsdk_20100@@@fbxsdk_20100@@UAEPAXI@Z
	??1KStringList@fbxsdk_20100@@UAE@XZ
	?GetTypeFlags@KFbxPatch@fbxsdk_20100@@MBE?AVKStringList@2@XZ
	?smMutex@?$KFbxEvent@VKFbxObjectPropertyChanged@fbxsdk_20100@@@kfbxevents@fbxsdk_20100@@0VKFbxMutex@kfbxmp@3@A
	?ClassId@KFbxPatch@fbxsdk_20100@@2VkFbxClassId@2@A
	??1?$KBaseArray@V?$KBaseArraySizeType@PAVKFbxDefaultTakeCallback@fbxsdk_20100@@@fbxsdk_20100@@@fbxsdk_20100@@IAE@XZ
	?GetArrayCount@?$KBaseArray@V?$KBaseArraySizeType@H@fbxsdk_20100@@@fbxsdk_20100@@IBEHXZ
	??1?$KBaseArray@V?$KBaseArraySizeType@PAVKFbxLayer@fbxsdk_20100@@@fbxsdk_20100@@@fbxsdk_20100@@IAE@XZ
	??1?$KBaseArray@V?$KBaseArraySizeType@PAVKFbxLayerElement@fbxsdk_20100@@@fbxsdk_20100@@@fbxsdk_20100@@IAE@XZ
	??1?$KBaseArray@V?$KBaseArraySizeType@VKFbxVector4@fbxsdk_20100@@@fbxsdk_20100@@@fbxsdk_20100@@IAE@XZ
	??1?$KBaseArray@V?$KBaseArraySizeType@PAVKFbxShape@fbxsdk_20100@@@fbxsdk_20100@@@fbxsdk_20100@@IAE@XZ
	??1?$KBaseArray@V?$KBaseArraySizeType@PAVKFbxVector4@fbxsdk_20100@@@fbxsdk_20100@@@fbxsdk_20100@@IAE@XZ
	?GetArrayCount@?$KBaseArray@V?$KBaseArraySizeType@PAVKFbxVector4@fbxsdk_20100@@@fbxsdk_20100@@@fbxsdk_20100@@IBEHXZ
	?GetArrayCount@?$KBaseArray@V?$KBaseArraySizeType@PAVKStringListItem@fbxsdk_20100@@@fbxsdk_20100@@@fbxsdk_20100@@IBEHXZ
	?GetTypeSize@?$KBaseArray@V?$KBaseArraySizeType@H@fbxsdk_20100@@@fbxsdk_20100@@QBEHXZ
	?SetArrayCount@?$KBaseArray@V?$KBaseArraySizeType@H@fbxsdk_20100@@@fbxsdk_20100@@IAEXH@Z
	?SetBlockCount@?$KBaseArray@V?$KBaseArraySizeType@H@fbxsdk_20100@@@fbxsdk_20100@@IAEXH@Z
	?GetTypeSize@?$KBaseArray@V?$KBaseArraySizeType@PAVKFbxVector4@fbxsdk_20100@@@fbxsdk_20100@@@fbxsdk_20100@@QBEHXZ
	?SetArrayCount@?$KBaseArray@V?$KBaseArraySizeType@PAVKFbxVector4@fbxsdk_20100@@@fbxsdk_20100@@@fbxsdk_20100@@IAEXH@Z
	?SetBlockCount@?$KBaseArray@V?$KBaseArraySizeType@PAVKFbxVector4@fbxsdk_20100@@@fbxsdk_20100@@@fbxsdk_20100@@IAEXH@Z
	??4KFbxBoundary@fbxsdk_20100@@IAEAAV01@ABV01@@Z
	?IsPointInControlHull@KFbxBoundary@fbxsdk_20100@@QAE_NAAVKFbxVector4@2@@Z
	?ComputePointInBoundary@KFbxBoundary@fbxsdk_20100@@QAE?AVKFbxVector4@2@XZ
	??1?$KArrayTemplate@PAVKFbxTakeNode@fbxsdk_20100@@@fbxsdk_20100@@QAE@XZ
	??1?$KArrayTemplate@PAVKFbxDefaultTakeCallback@fbxsdk_20100@@@fbxsdk_20100@@QAE@XZ
	?GetCount@?$KBaseArray@V?$KBaseArraySizeType@H@fbxsdk_20100@@@fbxsdk_20100@@QBEHXZ
	??1?$KArrayTemplate@PAVKFbxLayer@fbxsdk_20100@@@fbxsdk_20100@@QAE@XZ
	??1?$KArrayTemplate@PAVKFbxLayerElement@fbxsdk_20100@@@fbxsdk_20100@@QAE@XZ
	??1?$KArrayTemplate@VKFbxVector4@fbxsdk_20100@@@fbxsdk_20100@@QAE@XZ
	??1?$KArrayTemplate@PAVKFbxShape@fbxsdk_20100@@@fbxsdk_20100@@QAE@XZ
	??0?$KArrayTemplate@PAVKFbxVector4@fbxsdk_20100@@@fbxsdk_20100@@QAE@XZ
	??1?$KArrayTemplate@PAVKFbxVector4@fbxsdk_20100@@@fbxsdk_20100@@QAE@XZ
	?GetCount@?$KBaseArray@V?$KBaseArraySizeType@PAVKFbxVector4@fbxsdk_20100@@@fbxsdk_20100@@@fbxsdk_20100@@QBEHXZ
	?GetCount@?$KBaseArray@V?$KBaseArraySizeType@PAVKStringListItem@fbxsdk_20100@@@fbxsdk_20100@@@fbxsdk_20100@@QBEHXZ
	?InsertAt@?$KBaseArray@V?$KBaseArraySizeType@H@fbxsdk_20100@@@fbxsdk_20100@@IAEHHPAX@Z
	?InsertAt@?$KBaseArray@V?$KBaseArraySizeType@PAVKFbxVector4@fbxsdk_20100@@@fbxsdk_20100@@@fbxsdk_20100@@IAEHHPAX@Z
	??1KFbxTakeNodeContainer@fbxsdk_20100@@UAE@XZ
	??_7KFbxTakeNodeContainer@fbxsdk_20100@@6B@
	??_R4KFbxTakeNodeContainer@fbxsdk_20100@@6B@
	??_R0?AVKFbxTakeNodeContainer@fbxsdk_20100@@@8
	??_R3KFbxTakeNodeContainer@fbxsdk_20100@@8
	??_R2KFbxTakeNodeContainer@fbxsdk_20100@@8
	??_R1A@?0A@EA@KFbxTakeNodeContainer@fbxsdk_20100@@8
	?GetClassId@KFbxTakeNodeContainer@fbxsdk_20100@@UBE?AVkFbxClassId@2@XZ
	??_GKFbxTakeNodeContainer@fbxsdk_20100@@UAEPAXI@Z
	??1KFbxNodeAttribute@fbxsdk_20100@@UAE@XZ
	??_7KFbxNodeAttribute@fbxsdk_20100@@6B@
	??_R4KFbxNodeAttribute@fbxsdk_20100@@6B@
	??_R0?AVKFbxNodeAttribute@fbxsdk_20100@@@8
	??_R3KFbxNodeAttribute@fbxsdk_20100@@8
	??_R2KFbxNodeAttribute@fbxsdk_20100@@8
	??_R1A@?0A@EA@KFbxNodeAttribute@fbxsdk_20100@@8
	?GetClassId@KFbxNodeAttribute@fbxsdk_20100@@UBE?AVkFbxClassId@2@XZ
	?GetAttributeType@KFbxNodeAttribute@fbxsdk_20100@@UBE?AW4EAttributeType@12@XZ
	??_GKFbxNodeAttribute@fbxsdk_20100@@UAEPAXI@Z
	??1KFbxLayerContainer@fbxsdk_20100@@UAE@XZ
	??_7KFbxLayerContainer@fbxsdk_20100@@6B@
	??_R4KFbxLayerContainer@fbxsdk_20100@@6B@
	??_R0?AVKFbxLayerContainer@fbxsdk_20100@@@8
	??_R3KFbxLayerContainer@fbxsdk_20100@@8
	??_R2KFbxLayerContainer@fbxsdk_20100@@8
	??_R1A@?0A@EA@KFbxLayerContainer@fbxsdk_20100@@8
	?GetClassId@KFbxLayerContainer@fbxsdk_20100@@UBE?AVkFbxClassId@2@XZ
	?GetAttributeType@KFbxLayerContainer@fbxsdk_20100@@UBE?AW4EAttributeType@KFbxNodeAttribute@2@XZ
	??_GKFbxLayerContainer@fbxsdk_20100@@UAEPAXI@Z
	??1KFbxGeometryBase@fbxsdk_20100@@UAE@XZ
	??_7KFbxGeometryBase@fbxsdk_20100@@6B@
	??_R4KFbxGeometryBase@fbxsdk_20100@@6B@
	??_R0?AVKFbxGeometryBase@fbxsdk_20100@@@8
	??_R3KFbxGeometryBase@fbxsdk_20100@@8
	??_R2KFbxGeometryBase@fbxsdk_20100@@8
	??_R1A@?0A@EA@KFbxGeometryBase@fbxsdk_20100@@8
	?GetClassId@KFbxGeometryBase@fbxsdk_20100@@UBE?AVkFbxClassId@2@XZ
	??_GKFbxGeometryBase@fbxsdk_20100@@UAEPAXI@Z
	??1KFbxGeometry@fbxsdk_20100@@UAE@XZ
	??_7KFbxGeometry@fbxsdk_20100@@6B@
	??_R4KFbxGeometry@fbxsdk_20100@@6B@
	??_R0?AVKFbxGeometry@fbxsdk_20100@@@8
	??_R3KFbxGeometry@fbxsdk_20100@@8
	??_R2KFbxGeometry@fbxsdk_20100@@8
	??_R1A@?0A@EA@KFbxGeometry@fbxsdk_20100@@8
	?GetClassId@KFbxGeometry@fbxsdk_20100@@UBE?AVkFbxClassId@2@XZ
	??_GKFbxGeometry@fbxsdk_20100@@UAEPAXI@Z
	??0KFbxBoundary@fbxsdk_20100@@IAE@AAVKFbxSdkManager@1@PBD@Z
	??_7KFbxBoundary@fbxsdk_20100@@6B@
	??_R4KFbxBoundary@fbxsdk_20100@@6B@
	??_R0?AVKFbxBoundary@fbxsdk_20100@@@8
	??_R3KFbxBoundary@fbxsdk_20100@@8
	??_R2KFbxBoundary@fbxsdk_20100@@8
	??_R1A@?0A@EA@KFbxBoundary@fbxsdk_20100@@8
	?GetClassId@KFbxBoundary@fbxsdk_20100@@UBE?AVkFbxClassId@2@XZ
	?GetAttributeType@KFbxBoundary@fbxsdk_20100@@UBE?AW4EAttributeType@KFbxNodeAttribute@2@XZ
	??1KFbxBoundary@fbxsdk_20100@@UAE@XZ
	??_GKFbxBoundary@fbxsdk_20100@@UAEPAXI@Z
	?Clone@KFbxBoundary@fbxsdk_20100@@UBEPAVKFbxObject@2@PAV32@W4ECloneType@32@@Z
	??0KFbxTrimNurbsSurface@fbxsdk_20100@@IAE@AAVKFbxSdkManager@1@PBD@Z
	??_7KFbxTrimNurbsSurface@fbxsdk_20100@@6B@
	??_R4KFbxTrimNurbsSurface@fbxsdk_20100@@6B@
	??_R0?AVKFbxTrimNurbsSurface@fbxsdk_20100@@@8
	??_R3KFbxTrimNurbsSurface@fbxsdk_20100@@8
	??_R2KFbxTrimNurbsSurface@fbxsdk_20100@@8
	??_R1A@?0A@EA@KFbxTrimNurbsSurface@fbxsdk_20100@@8
	?GetClassId@KFbxTrimNurbsSurface@fbxsdk_20100@@UBE?AVkFbxClassId@2@XZ
	?GetAttributeType@KFbxTrimNurbsSurface@fbxsdk_20100@@UBE?AW4EAttributeType@KFbxNodeAttribute@2@XZ
	??1KFbxTrimNurbsSurface@fbxsdk_20100@@UAE@XZ
	??_GKFbxTrimNurbsSurface@fbxsdk_20100@@UAEPAXI@Z
	?GetTrimRegionCount@KFbxTrimNurbsSurface@fbxsdk_20100@@QBEHXZ
	?GetBoundary@KFbxTrimNurbsSurface@fbxsdk_20100@@QBEPBVKFbxBoundary@2@HH@Z
	?GetBoundaryCount@KFbxTrimNurbsSurface@fbxsdk_20100@@QBEHH@Z
	?Clear@?$KStringListTemplate@VKStringListItem@fbxsdk_20100@@@fbxsdk_20100@@UAEXXZ
	?InsertAt@?$KArrayTemplate@H@fbxsdk_20100@@QAEHHH@Z
	?InsertAt@?$KArrayTemplate@PAVKFbxVector4@fbxsdk_20100@@@fbxsdk_20100@@QAEHHPAVKFbxVector4@2@@Z
	?GetBoundary@KFbxTrimNurbsSurface@fbxsdk_20100@@QAEPAVKFbxBoundary@2@HH@Z
	?ClearBoundaries@KFbxTrimNurbsSurface@fbxsdk_20100@@QAEXXZ
	??1?$KStringListTemplate@VKStringListItem@fbxsdk_20100@@@fbxsdk_20100@@UAE@XZ
	??_7?$KStringListTemplate@VKStringListItem@fbxsdk_20100@@@fbxsdk_20100@@6B@
	??_R4?$KStringListTemplate@VKStringListItem@fbxsdk_20100@@@fbxsdk_20100@@6B@
	??_R0?AV?$KStringListTemplate@VKStringListItem@fbxsdk_20100@@@fbxsdk_20100@@@8
	??_R3?$KStringListTemplate@VKStringListItem@fbxsdk_20100@@@fbxsdk_20100@@8
	??_R2?$KStringListTemplate@VKStringListItem@fbxsdk_20100@@@fbxsdk_20100@@8
	??_R1A@?0A@EA@?$KStringListTemplate@VKStringListItem@fbxsdk_20100@@@fbxsdk_20100@@8
	?Buffer@KString@fbxsdk_20100@@QAEPADXZ
	??0KStringListItem@fbxsdk_20100@@QAE@PBDI@Z
	?GetBlockCount@?$KBaseArray@V?$KBaseArraySizeType@PAVKStringListItem@fbxsdk_20100@@@fbxsdk_20100@@@fbxsdk_20100@@IBEHXZ
	?GetHeader@?$KBaseArray@V?$KBaseArraySizeType@PAVKStringListItem@fbxsdk_20100@@@fbxsdk_20100@@@fbxsdk_20100@@IAEPAUKHeader@12@XZ
	?GetTypeSize@?$KBaseArraySizeType@PAVKStringListItem@fbxsdk_20100@@@fbxsdk_20100@@QBEHXZ
	?GetAt@?$KArrayTemplate@PAVKStringListItem@fbxsdk_20100@@@fbxsdk_20100@@QBEPAVKStringListItem@2@H@Z
	?GetTypeSize@?$KBaseArray@V?$KBaseArraySizeType@PAVKStringListItem@fbxsdk_20100@@@fbxsdk_20100@@@fbxsdk_20100@@QBEHXZ
	?SetArrayCount@?$KBaseArray@V?$KBaseArraySizeType@PAVKStringListItem@fbxsdk_20100@@@fbxsdk_20100@@@fbxsdk_20100@@IAEXH@Z
	?SetBlockCount@?$KBaseArray@V?$KBaseArraySizeType@PAVKStringListItem@fbxsdk_20100@@@fbxsdk_20100@@@fbxsdk_20100@@IAEXH@Z
	?InsertAt@?$KBaseArray@V?$KBaseArraySizeType@PAVKStringListItem@fbxsdk_20100@@@fbxsdk_20100@@@fbxsdk_20100@@IAEHHPAX@Z
	?RemoveAt@?$KBaseArray@V?$KBaseArraySizeType@PAVKStringListItem@fbxsdk_20100@@@fbxsdk_20100@@@fbxsdk_20100@@IAEXH@Z
	?SetStringAt@?$KStringListTemplate@VKStringListItem@fbxsdk_20100@@@fbxsdk_20100@@UAE_NHPAD@Z
	?GetText@?$KStringListTemplate@VKStringListItem@fbxsdk_20100@@@fbxsdk_20100@@UAEXAAVKString@2@@Z
	?Add@?$KStringListTemplate@VKStringListItem@fbxsdk_20100@@@fbxsdk_20100@@QAEHPADI@Z
	?InsertAt@?$KArrayTemplate@PAVKStringListItem@fbxsdk_20100@@@fbxsdk_20100@@QAEHHPAVKStringListItem@2@@Z
	?RemoveAt@?$KArrayTemplate@PAVKStringListItem@fbxsdk_20100@@@fbxsdk_20100@@QAEPAVKStringListItem@2@H@Z
	?InsertAt@?$KStringListTemplate@VKStringListItem@fbxsdk_20100@@@fbxsdk_20100@@UAEHHPADI@Z
	?RemoveAt@?$KStringListTemplate@VKStringListItem@fbxsdk_20100@@@fbxsdk_20100@@UAEXH@Z
	?SetText@?$KStringListTemplate@VKStringListItem@fbxsdk_20100@@@fbxsdk_20100@@UAEHPAD@Z
	?Add@?$KArrayTemplate@H@fbxsdk_20100@@QAEHH@Z
	??4?$KArrayTemplate@H@fbxsdk_20100@@QAEAAV01@ABV01@@Z
	?Add@?$KArrayTemplate@PAVKFbxVector4@fbxsdk_20100@@@fbxsdk_20100@@QAEHPAVKFbxVector4@2@@Z
	??_G?$KStringListTemplate@VKStringListItem@fbxsdk_20100@@@fbxsdk_20100@@UAEPAXI@Z
	??1KStringList@fbxsdk_20100@@UAE@XZ
	?GetTypeFlags@KFbxBoundary@fbxsdk_20100@@MBE?AVKStringList@2@XZ
	?IsCounterClockwise@KFbxBoundary@fbxsdk_20100@@QAE_NXZ
	?GetTypeFlags@KFbxTrimNurbsSurface@fbxsdk_20100@@UBE?AVKStringList@2@XZ
	?AddBoundary@KFbxTrimNurbsSurface@fbxsdk_20100@@QAE_NPAVKFbxBoundary@2@@Z
	?CopyBoundaries@KFbxTrimNurbsSurface@fbxsdk_20100@@QAEXABV12@@Z
	?IsValid@KFbxTrimNurbsSurface@fbxsdk_20100@@QAE_NH_N@Z
	?IsValid@KFbxTrimNurbsSurface@fbxsdk_20100@@QAE_N_N@Z
	?RebuildRegions@KFbxTrimNurbsSurface@fbxsdk_20100@@QAEXXZ
	??4KFbxTrimNurbsSurface@fbxsdk_20100@@IAEAAV01@ABV01@@Z
	?Clone@KFbxTrimNurbsSurface@fbxsdk_20100@@UBEPAVKFbxObject@2@PAV32@W4ECloneType@32@@Z
	?ClassId@KFbxBoundary@fbxsdk_20100@@2VkFbxClassId@2@A
	?smMutex@?$KFbxEvent@VKFbxObjectPropertyChanged@fbxsdk_20100@@@kfbxevents@fbxsdk_20100@@0VKFbxMutex@kfbxmp@3@A
	?ClassId@KFbxTrimNurbsSurface@fbxsdk_20100@@2VkFbxClassId@2@A
	?GetTypeSize@?$KBaseArray@V?$KBaseArraySizeType@PAVKStringListItem@fbxsdk_20100@@@fbxsdk_20100@@@fbxsdk_20100@@QBEHXZ
	?SetArrayCount@?$KBaseArray@V?$KBaseArraySizeType@PAVKStringListItem@fbxsdk_20100@@@fbxsdk_20100@@@fbxsdk_20100@@IAEXH@Z
	?SetBlockCount@?$KBaseArray@V?$KBaseArraySizeType@PAVKStringListItem@fbxsdk_20100@@@fbxsdk_20100@@@fbxsdk_20100@@IAEXH@Z
	?InsertAt@?$KBaseArray@V?$KBaseArraySizeType@PAVKStringListItem@fbxsdk_20100@@@fbxsdk_20100@@@fbxsdk_20100@@IAEHHPAX@Z
	?RemoveAt@?$KBaseArray@V?$KBaseArraySizeType@PAVKStringListItem@fbxsdk_20100@@@fbxsdk_20100@@@fbxsdk_20100@@IAEXH@Z
	?SetStringAt@?$KStringListTemplate@VKStringListItem@fbxsdk_20100@@@fbxsdk_20100@@UAE_NHPAD@Z
	?GetText@?$KStringListTemplate@VKStringListItem@fbxsdk_20100@@@fbxsdk_20100@@UAEXAAVKString@2@@Z
	?SetText@?$KStringListTemplate@VKStringListItem@fbxsdk_20100@@@fbxsdk_20100@@UAEHPAD@Z
	?InsertAt@?$KArrayTemplate@PAVKStringListItem@fbxsdk_20100@@@fbxsdk_20100@@QAEHHPAVKStringListItem@2@@Z
	?RemoveAt@?$KArrayTemplate@PAVKStringListItem@fbxsdk_20100@@@fbxsdk_20100@@QAEPAVKStringListItem@2@H@Z
	?InsertAt@?$KStringListTemplate@VKStringListItem@fbxsdk_20100@@@fbxsdk_20100@@UAEHHPADI@Z
	?RemoveAt@?$KStringListTemplate@VKStringListItem@fbxsdk_20100@@@fbxsdk_20100@@UAEXH@Z
	??_G?$KStringListTemplate@VKStringListItem@fbxsdk_20100@@@fbxsdk_20100@@UAEPAXI@Z
	??1KStringList@fbxsdk_20100@@UAE@XZ
	?GetTypeFlags@KFbxVertexCacheDeformer@fbxsdk_20100@@MBE?AVKStringList@2@XZ
	?GetTypeFlags@KFbxDeformer@fbxsdk_20100@@MBE?AVKStringList@2@XZ
	?smMutex@?$KFbxEvent@VKFbxObjectPropertyChanged@fbxsdk_20100@@@kfbxevents@fbxsdk_20100@@0VKFbxMutex@kfbxmp@3@A
	?ClassId@KFbxVertexCacheDeformer@fbxsdk_20100@@2VkFbxClassId@2@A
	?GetTypeFlags@KFbxDeformer@fbxsdk_20100@@MBE?AVKStringList@2@XZ
	?ClassId@KFbxSkin@fbxsdk_20100@@2VkFbxClassId@2@A
	?smMutex@?$KFbxEvent@VKFbxObjectPropertyChanged@fbxsdk_20100@@@kfbxevents@fbxsdk_20100@@0VKFbxMutex@kfbxmp@3@A
	?AddMultiple@?$KBaseArray@V?$KBaseArraySizeType@H@fbxsdk_20100@@@fbxsdk_20100@@QAEXH@Z
	?GetCount@?$KBaseArray@V?$KBaseArraySizeType@N@fbxsdk_20100@@@fbxsdk_20100@@QBEHXZ
	?AddMultiple@?$KBaseArray@V?$KBaseArraySizeType@N@fbxsdk_20100@@@fbxsdk_20100@@QAEXH@Z
	?InsertAt@?$KBaseArray@V?$KBaseArraySizeType@H@fbxsdk_20100@@@fbxsdk_20100@@IAEHHPAX@Z
	?InsertAt@?$KBaseArray@V?$KBaseArraySizeType@N@fbxsdk_20100@@@fbxsdk_20100@@IAEHHPAX@Z
	??1KFbxTakeNodeContainer@fbxsdk_20100@@UAE@XZ
	??_7KFbxTakeNodeContainer@fbxsdk_20100@@6B@
	??_R4KFbxTakeNodeContainer@fbxsdk_20100@@6B@
	??_R0?AVKFbxTakeNodeContainer@fbxsdk_20100@@@8
	??_R3KFbxTakeNodeContainer@fbxsdk_20100@@8
	??_R2KFbxTakeNodeContainer@fbxsdk_20100@@8
	??_R1A@?0A@EA@KFbxTakeNodeContainer@fbxsdk_20100@@8
	?GetClassId@KFbxTakeNodeContainer@fbxsdk_20100@@UBE?AVkFbxClassId@2@XZ
	??_GKFbxTakeNodeContainer@fbxsdk_20100@@UAEPAXI@Z
	??1KFbxSubDeformer@fbxsdk_20100@@UAE@XZ
	??_7KFbxSubDeformer@fbxsdk_20100@@6B@
	??_R4KFbxSubDeformer@fbxsdk_20100@@6B@
	??_R0?AVKFbxSubDeformer@fbxsdk_20100@@@8
	??_R3KFbxSubDeformer@fbxsdk_20100@@8
	??_R2KFbxSubDeformer@fbxsdk_20100@@8
	??_R1A@?0A@EA@KFbxSubDeformer@fbxsdk_20100@@8
	?GetClassId@KFbxSubDeformer@fbxsdk_20100@@UBE?AVkFbxClassId@2@XZ
	?GetSubDeformerType@KFbxSubDeformer@fbxsdk_20100@@UAE?AW4ESubDeformerType@12@XZ
	?GetTypeName@KFbxSubDeformer@fbxsdk_20100@@MBE?AVKString@2@XZ
	??_GKFbxSubDeformer@fbxsdk_20100@@UAEPAXI@Z
	??0KFbxCluster@fbxsdk_20100@@IAE@AAVKFbxSdkManager@1@PBD@Z
	??_7KFbxCluster@fbxsdk_20100@@6B@
	??_R4KFbxCluster@fbxsdk_20100@@6B@
	??_R0?AVKFbxCluster@fbxsdk_20100@@@8
	??_R3KFbxCluster@fbxsdk_20100@@8
	??_R2KFbxCluster@fbxsdk_20100@@8
	??_R1A@?0A@EA@KFbxCluster@fbxsdk_20100@@8
	?GetClassId@KFbxCluster@fbxsdk_20100@@UBE?AVkFbxClassId@2@XZ
	?GetSubDeformerType@KFbxCluster@fbxsdk_20100@@UAE?AW4ESubDeformerType@KFbxSubDeformer@2@XZ
	??1KFbxCluster@fbxsdk_20100@@UAE@XZ
	??_GKFbxCluster@fbxsdk_20100@@UAEPAXI@Z
	?Construct@KFbxCluster@fbxsdk_20100@@MAEXPBV12@@Z
	?GetControlPointIndicesCount@KFbxCluster@fbxsdk_20100@@QAEHXZ
	?Add@?$KStringListTemplate@VKStringListItem@fbxsdk_20100@@@fbxsdk_20100@@QAEHPADI@Z
	?Clear@?$KStringListTemplate@VKStringListItem@fbxsdk_20100@@@fbxsdk_20100@@UAEXXZ
	?SetCount@?$KBaseArray@V?$KBaseArraySizeType@H@fbxsdk_20100@@@fbxsdk_20100@@QAEXH@Z
	?SetCount@?$KBaseArray@V?$KBaseArraySizeType@N@fbxsdk_20100@@@fbxsdk_20100@@QAEXH@Z
	?InsertAt@?$KArrayTemplate@H@fbxsdk_20100@@QAEHHH@Z
	?InsertAt@?$KArrayTemplate@N@fbxsdk_20100@@QAEHHN@Z
	?SetControlPointIWCount@KFbxCluster@fbxsdk_20100@@QAEXH@Z
	??1?$KStringListTemplate@VKStringListItem@fbxsdk_20100@@@fbxsdk_20100@@UAE@XZ
	??_7?$KStringListTemplate@VKStringListItem@fbxsdk_20100@@@fbxsdk_20100@@6B@
	??_R4?$KStringListTemplate@VKStringListItem@fbxsdk_20100@@@fbxsdk_20100@@6B@
	??_R0?AV?$KStringListTemplate@VKStringListItem@fbxsdk_20100@@@fbxsdk_20100@@@8
	??_R3?$KStringListTemplate@VKStringListItem@fbxsdk_20100@@@fbxsdk_20100@@8
	??_R2?$KStringListTemplate@VKStringListItem@fbxsdk_20100@@@fbxsdk_20100@@8
	??_R1A@?0A@EA@?$KStringListTemplate@VKStringListItem@fbxsdk_20100@@@fbxsdk_20100@@8
	?Buffer@KString@fbxsdk_20100@@QAEPADXZ
	??0KStringListItem@fbxsdk_20100@@QAE@PBDI@Z
	?GetBlockCount@?$KBaseArray@V?$KBaseArraySizeType@PAVKStringListItem@fbxsdk_20100@@@fbxsdk_20100@@@fbxsdk_20100@@IBEHXZ
	?GetHeader@?$KBaseArray@V?$KBaseArraySizeType@PAVKStringListItem@fbxsdk_20100@@@fbxsdk_20100@@@fbxsdk_20100@@IAEPAUKHeader@12@XZ
	?GetTypeSize@?$KBaseArraySizeType@PAVKStringListItem@fbxsdk_20100@@@fbxsdk_20100@@QBEHXZ
	?GetAt@?$KArrayTemplate@PAVKStringListItem@fbxsdk_20100@@@fbxsdk_20100@@QBEPAVKStringListItem@2@H@Z
	?GetTypeSize@?$KBaseArray@V?$KBaseArraySizeType@PAVKStringListItem@fbxsdk_20100@@@fbxsdk_20100@@@fbxsdk_20100@@QBEHXZ
	?SetArrayCount@?$KBaseArray@V?$KBaseArraySizeType@PAVKStringListItem@fbxsdk_20100@@@fbxsdk_20100@@@fbxsdk_20100@@IAEXH@Z
	?SetBlockCount@?$KBaseArray@V?$KBaseArraySizeType@PAVKStringListItem@fbxsdk_20100@@@fbxsdk_20100@@@fbxsdk_20100@@IAEXH@Z
	?InsertAt@?$KBaseArray@V?$KBaseArraySizeType@PAVKStringListItem@fbxsdk_20100@@@fbxsdk_20100@@@fbxsdk_20100@@IAEHHPAX@Z
	?RemoveAt@?$KBaseArray@V?$KBaseArraySizeType@PAVKStringListItem@fbxsdk_20100@@@fbxsdk_20100@@@fbxsdk_20100@@IAEXH@Z
	?SetStringAt@?$KStringListTemplate@VKStringListItem@fbxsdk_20100@@@fbxsdk_20100@@UAE_NHPAD@Z
	?GetText@?$KStringListTemplate@VKStringListItem@fbxsdk_20100@@@fbxsdk_20100@@UAEXAAVKString@2@@Z
	?SetText@?$KStringListTemplate@VKStringListItem@fbxsdk_20100@@@fbxsdk_20100@@UAEHPAD@Z
	?InsertAt@?$KArrayTemplate@PAVKStringListItem@fbxsdk_20100@@@fbxsdk_20100@@QAEHHPAVKStringListItem@2@@Z
	?RemoveAt@?$KArrayTemplate@PAVKStringListItem@fbxsdk_20100@@@fbxsdk_20100@@QAEPAVKStringListItem@2@H@Z
	?InsertAt@?$KStringListTemplate@VKStringListItem@fbxsdk_20100@@@fbxsdk_20100@@UAEHHPADI@Z
	?RemoveAt@?$KStringListTemplate@VKStringListItem@fbxsdk_20100@@@fbxsdk_20100@@UAEXH@Z
	?Add@?$KArrayTemplate@H@fbxsdk_20100@@QAEHH@Z
	??4?$KArrayTemplate@H@fbxsdk_20100@@QAEAAV01@ABV01@@Z
	?Add@?$KArrayTemplate@N@fbxsdk_20100@@QAEHN@Z
	??4?$KArrayTemplate@N@fbxsdk_20100@@QAEAAV01@ABV01@@Z
	??_G?$KStringListTemplate@VKStringListItem@fbxsdk_20100@@@fbxsdk_20100@@UAEPAXI@Z
	??1KStringList@fbxsdk_20100@@UAE@XZ
	?GetTypeFlags@KFbxCluster@fbxsdk_20100@@MBE?AVKStringList@2@XZ
	?AddControlPointIndex@KFbxCluster@fbxsdk_20100@@QAEXHN@Z
	??4KFbxCluster@fbxsdk_20100@@QAEAAV01@ABV01@@Z
	?Clone@KFbxCluster@fbxsdk_20100@@UBEPAVKFbxObject@2@PAV32@W4ECloneType@32@@Z
	?GetTypeFlags@KFbxSubDeformer@fbxsdk_20100@@MBE?AVKStringList@2@XZ
	?smMutex@?$KFbxEvent@VKFbxObjectPropertyChanged@fbxsdk_20100@@@kfbxevents@fbxsdk_20100@@0VKFbxMutex@kfbxmp@3@A
	?ClassId@KFbxCluster@fbxsdk_20100@@2VkFbxClassId@2@A
	?OpenFileForWrite@KFbxCache@fbxsdk_20100@@QAE_NW4EMCFileCount@12@NPBDW4EMCDataType@12@@Z
	?OpenFileForWrite@KFbxCache@fbxsdk_20100@@QAE_NNNII@Z
	?ClassId@KFbxCache@fbxsdk_20100@@2VkFbxClassId@2@A
	?smMutex@?$KFbxEvent@VKFbxObjectPropertyChanged@fbxsdk_20100@@@kfbxevents@fbxsdk_20100@@0VKFbxMutex@kfbxmp@3@A
	?fbxCopy@fbxsdk_20100@@YA_NAAGAB_K@Z
	?fbxCopy@fbxsdk_20100@@YA_NAAGABVfbxHalfFloat@1@@Z
	?fbxCopy@fbxsdk_20100@@YA_NAAGAB_N@Z
	?fbxCopy@fbxsdk_20100@@YA_NAAGABH@Z
	?fbxCopy@fbxsdk_20100@@YA_NAAGABM@Z
	?fbxCopy@fbxsdk_20100@@YA_NAAGABN@Z
	?fbxCopy@fbxsdk_20100@@YA_NAAGABV?$fbxVectorTemplate2@N@1@@Z
	?fbxCopy@fbxsdk_20100@@YA_NAAGABV?$fbxVectorTemplate3@N@1@@Z
	?fbxCopy@fbxsdk_20100@@YA_NAAGABV?$fbxVectorTemplate4@N@1@@Z
	?fbxCopy@fbxsdk_20100@@YA_NAAGABV?$fbxVectorTemplate4@V?$fbxVectorTemplate4@N@fbxsdk_20100@@@1@@Z
	?fbxCopy@fbxsdk_20100@@YA_NAAGABVKString@1@@Z
	?fbxCopy@fbxsdk_20100@@YA_NAAGABVKTime@1@@Z
	?fbxCopy@fbxsdk_20100@@YA_NAAGABVfbxBlob@1@@Z
	?fbxCopy@fbxsdk_20100@@YA_NAAGABVfbxDistance@1@@Z
	?fbxCopy@fbxsdk_20100@@YA_NAAGABVfbxDateTime@1@@Z
	?fbxCopy@fbxsdk_20100@@YA_NAAHABD@Z
	?fbxCopy@fbxsdk_20100@@YA_NAAHABE@Z
	?fbxCopy@fbxsdk_20100@@YA_NAAHABF@Z
	?fbxCopy@fbxsdk_20100@@YA_NAAHABG@Z
	?fbxCopy@fbxsdk_20100@@YA_NAAHABI@Z
	?fbxCopy@fbxsdk_20100@@YA_NAAHAB_J@Z
	?fbxCopy@fbxsdk_20100@@YA_NAAHAB_K@Z
	?fbxCopy@fbxsdk_20100@@YA_NAAHABVfbxHalfFloat@1@@Z
	?fbxCopy@fbxsdk_20100@@YA_NAAHAB_N@Z
	?fbxCopy@fbxsdk_20100@@YA_NAAHABM@Z
	?fbxCopy@fbxsdk_20100@@YA_NAAHABN@Z
	?fbxCopy@fbxsdk_20100@@YA_NAAHABV?$fbxVectorTemplate2@N@1@@Z
	?fbxCopy@fbxsdk_20100@@YA_NAAHABV?$fbxVectorTemplate3@N@1@@Z
	?fbxCopy@fbxsdk_20100@@YA_NAAHABV?$fbxVectorTemplate4@N@1@@Z
	?fbxCopy@fbxsdk_20100@@YA_NAAHABV?$fbxVectorTemplate4@V?$fbxVectorTemplate4@N@fbxsdk_20100@@@1@@Z
	?fbxCopy@fbxsdk_20100@@YA_NAAHABVKString@1@@Z
	?fbxCopy@fbxsdk_20100@@YA_NAAHABVKTime@1@@Z
	?fbxCopy@fbxsdk_20100@@YA_NAAHABVfbxBlob@1@@Z
	?fbxCopy@fbxsdk_20100@@YA_NAAHABVfbxDistance@1@@Z
	?fbxCopy@fbxsdk_20100@@YA_NAAHABVfbxDateTime@1@@Z
	?fbxCopy@fbxsdk_20100@@YA_NAAIABD@Z
	?fbxCopy@fbxsdk_20100@@YA_NAAIABE@Z
	?fbxCopy@fbxsdk_20100@@YA_NAAIABF@Z
	?fbxCopy@fbxsdk_20100@@YA_NAAIABG@Z
	?fbxCopy@fbxsdk_20100@@YA_NAAIAB_J@Z
	?fbxCopy@fbxsdk_20100@@YA_NAAIAB_K@Z
	?fbxCopy@fbxsdk_20100@@YA_NAAIABVfbxHalfFloat@1@@Z
	?fbxCopy@fbxsdk_20100@@YA_NAAIAB_N@Z
	?fbxCopy@fbxsdk_20100@@YA_NAAIABH@Z
	?fbxCopy@fbxsdk_20100@@YA_NAAIABM@Z
	?fbxCopy@fbxsdk_20100@@YA_NAAIABN@Z
	?fbxCopy@fbxsdk_20100@@YA_NAAIABV?$fbxVectorTemplate2@N@1@@Z
	?fbxCopy@fbxsdk_20100@@YA_NAAIABV?$fbxVectorTemplate3@N@1@@Z
	?fbxCopy@fbxsdk_20100@@YA_NAAIABV?$fbxVectorTemplate4@N@1@@Z
	?fbxCopy@fbxsdk_20100@@YA_NAAIABV?$fbxVectorTemplate4@V?$fbxVectorTemplate4@N@fbxsdk_20100@@@1@@Z
	?fbxCopy@fbxsdk_20100@@YA_NAAIABVKString@1@@Z
	?fbxCopy@fbxsdk_20100@@YA_NAAIABVKTime@1@@Z
	?fbxCopy@fbxsdk_20100@@YA_NAAIABVfbxBlob@1@@Z
	?fbxCopy@fbxsdk_20100@@YA_NAAIABVfbxDistance@1@@Z
	?fbxCopy@fbxsdk_20100@@YA_NAAIABVfbxDateTime@1@@Z
	?fbxCopy@fbxsdk_20100@@YA_NAA_JABD@Z
	?fbxCopy@fbxsdk_20100@@YA_NAA_JABE@Z
	?fbxCopy@fbxsdk_20100@@YA_NAA_JABF@Z
	?fbxCopy@fbxsdk_20100@@YA_NAA_JABG@Z
	?fbxCopy@fbxsdk_20100@@YA_NAA_JABI@Z
	?fbxCopy@fbxsdk_20100@@YA_NAA_JAB_K@Z
	?fbxCopy@fbxsdk_20100@@YA_NAA_JABVfbxHalfFloat@1@@Z
	?fbxCopy@fbxsdk_20100@@YA_NAA_JAB_N@Z
	?fbxCopy@fbxsdk_20100@@YA_NAA_JABH@Z
	?fbxCopy@fbxsdk_20100@@YA_NAA_JABM@Z
	?fbxCopy@fbxsdk_20100@@YA_NAA_JABN@Z
	?fbxCopy@fbxsdk_20100@@YA_NAA_JABV?$fbxVectorTemplate2@N@1@@Z
	?fbxCopy@fbxsdk_20100@@YA_NAA_JABV?$fbxVectorTemplate3@N@1@@Z
	?fbxCopy@fbxsdk_20100@@YA_NAA_JABV?$fbxVectorTemplate4@N@1@@Z
	?fbxCopy@fbxsdk_20100@@YA_NAA_JABV?$fbxVectorTemplate4@V?$fbxVectorTemplate4@N@fbxsdk_20100@@@1@@Z
	?fbxCopy@fbxsdk_20100@@YA_NAA_JABVKString@1@@Z
	?fbxCopy@fbxsdk_20100@@YA_NAA_JABVKTime@1@@Z
	?fbxCopy@fbxsdk_20100@@YA_NAA_JABVfbxBlob@1@@Z
	?fbxCopy@fbxsdk_20100@@YA_NAA_JABVfbxDistance@1@@Z
	?fbxCopy@fbxsdk_20100@@YA_NAA_JABVfbxDateTime@1@@Z
	?fbxCopy@fbxsdk_20100@@YA_NAA_KABD@Z
	?fbxCopy@fbxsdk_20100@@YA_NAA_KABE@Z
	?fbxCopy@fbxsdk_20100@@YA_NAA_KABF@Z
	?fbxCopy@fbxsdk_20100@@YA_NAA_KABG@Z
	?fbxCopy@fbxsdk_20100@@YA_NAA_KABI@Z
	?fbxCopy@fbxsdk_20100@@YA_NAA_KAB_J@Z
	?fbxCopy@fbxsdk_20100@@YA_NAA_KABVfbxHalfFloat@1@@Z
	?fbxCopy@fbxsdk_20100@@YA_NAA_KAB_N@Z
	?fbxCopy@fbxsdk_20100@@YA_NAA_KABH@Z
	?fbxCopy@fbxsdk_20100@@YA_NAA_KABM@Z
	?fbxCopy@fbxsdk_20100@@YA_NAA_KABN@Z
	?fbxCopy@fbxsdk_20100@@YA_NAA_KABV?$fbxVectorTemplate2@N@1@@Z
	?fbxCopy@fbxsdk_20100@@YA_NAA_KABV?$fbxVectorTemplate3@N@1@@Z
	?fbxCopy@fbxsdk_20100@@YA_NAA_KABV?$fbxVectorTemplate4@N@1@@Z
	?fbxCopy@fbxsdk_20100@@YA_NAA_KABV?$fbxVectorTemplate4@V?$fbxVectorTemplate4@N@fbxsdk_20100@@@1@@Z
	?fbxCopy@fbxsdk_20100@@YA_NAA_KABVKString@1@@Z
	?fbxCopy@fbxsdk_20100@@YA_NAA_KABVKTime@1@@Z
	?fbxCopy@fbxsdk_20100@@YA_NAA_KABVfbxBlob@1@@Z
	?fbxCopy@fbxsdk_20100@@YA_NAA_KABVfbxDistance@1@@Z
	?fbxCopy@fbxsdk_20100@@YA_NAA_KABVfbxDateTime@1@@Z
	?fbxCopy@fbxsdk_20100@@YA_NAAVfbxHalfFloat@1@ABV?$fbxVectorTemplate2@N@1@@Z
	?fbxCopy@fbxsdk_20100@@YA_NAAVfbxHalfFloat@1@ABV?$fbxVectorTemplate3@N@1@@Z
	?fbxCopy@fbxsdk_20100@@YA_NAAVfbxHalfFloat@1@ABV?$fbxVectorTemplate4@N@1@@Z
	?fbxCopy@fbxsdk_20100@@YA_NAAVfbxHalfFloat@1@ABV?$fbxVectorTemplate4@V?$fbxVectorTemplate4@N@fbxsdk_20100@@@1@@Z
	?fbxCopy@fbxsdk_20100@@YA_NAAVfbxHalfFloat@1@ABVKString@1@@Z
	?fbxCopy@fbxsdk_20100@@YA_NAAVfbxHalfFloat@1@ABVKTime@1@@Z
	?fbxCopy@fbxsdk_20100@@YA_NAAVfbxHalfFloat@1@ABVfbxBlob@1@@Z
	?fbxCopy@fbxsdk_20100@@YA_NAAVfbxHalfFloat@1@ABVfbxDateTime@1@@Z
	?fbxCopy@fbxsdk_20100@@YA_NAAMABD@Z
	?fbxCopy@fbxsdk_20100@@YA_NAAMABE@Z
	?fbxCopy@fbxsdk_20100@@YA_NAAMABF@Z
	?fbxCopy@fbxsdk_20100@@YA_NAAMABG@Z
	?fbxCopy@fbxsdk_20100@@YA_NAAMABI@Z
	?fbxCopy@fbxsdk_20100@@YA_NAAMAB_J@Z
	?fbxCopy@fbxsdk_20100@@YA_NAAMAB_K@Z
	?fbxCopy@fbxsdk_20100@@YA_NAAMAB_N@Z
	?fbxCopy@fbxsdk_20100@@YA_NAAMABH@Z
	?fbxCopy@fbxsdk_20100@@YA_NAAMABN@Z
	?fbxCopy@fbxsdk_20100@@YA_NAAMABV?$fbxVectorTemplate2@N@1@@Z
	?fbxCopy@fbxsdk_20100@@YA_NAAMABV?$fbxVectorTemplate3@N@1@@Z
	?fbxCopy@fbxsdk_20100@@YA_NAAMABV?$fbxVectorTemplate4@N@1@@Z
	?fbxCopy@fbxsdk_20100@@YA_NAAMABV?$fbxVectorTemplate4@V?$fbxVectorTemplate4@N@fbxsdk_20100@@@1@@Z
	?fbxCopy@fbxsdk_20100@@YA_NAAMABVKString@1@@Z
	?fbxCopy@fbxsdk_20100@@YA_NAAMABVKTime@1@@Z
	?fbxCopy@fbxsdk_20100@@YA_NAAMABVfbxBlob@1@@Z
	?fbxCopy@fbxsdk_20100@@YA_NAAMABVfbxDistance@1@@Z
	?fbxCopy@fbxsdk_20100@@YA_NAAMABVfbxDateTime@1@@Z
	?fbxCopy@fbxsdk_20100@@YA_NAANABD@Z
	?fbxCopy@fbxsdk_20100@@YA_NAANABE@Z
	?fbxCopy@fbxsdk_20100@@YA_NAANABF@Z
	?fbxCopy@fbxsdk_20100@@YA_NAANABG@Z
	?fbxCopy@fbxsdk_20100@@YA_NAANABI@Z
	?fbxCopy@fbxsdk_20100@@YA_NAANAB_J@Z
	?fbxCopy@fbxsdk_20100@@YA_NAANAB_K@Z
	?fbxCopy@fbxsdk_20100@@YA_NAANAB_N@Z
	?fbxCopy@fbxsdk_20100@@YA_NAANABH@Z
	?fbxCopy@fbxsdk_20100@@YA_NAANABM@Z
	?fbxCopy@fbxsdk_20100@@YA_NAANABVKString@1@@Z
	?fbxCopy@fbxsdk_20100@@YA_NAANABVKTime@1@@Z
	?fbxCopy@fbxsdk_20100@@YA_NAANABVfbxDistance@1@@Z
	?fbxCopy@fbxsdk_20100@@YA_NAAV?$fbxVectorTemplate3@N@1@ABV?$fbxVectorTemplate2@N@1@@Z
	?fbxCopy@fbxsdk_20100@@YA_NAAV?$fbxVectorTemplate3@N@1@ABV?$fbxVectorTemplate4@V?$fbxVectorTemplate4@N@fbxsdk_20100@@@1@@Z
	?fbxCopy@fbxsdk_20100@@YA_NAAV?$fbxVectorTemplate3@N@1@ABVKString@1@@Z
	?fbxCopy@fbxsdk_20100@@YA_NAAV?$fbxVectorTemplate3@N@1@ABVKTime@1@@Z
	?fbxCopy@fbxsdk_20100@@YA_NAAV?$fbxVectorTemplate3@N@1@ABVfbxBlob@1@@Z
	?fbxCopy@fbxsdk_20100@@YA_NAAV?$fbxVectorTemplate3@N@1@ABVfbxDistance@1@@Z
	?fbxCopy@fbxsdk_20100@@YA_NAAV?$fbxVectorTemplate3@N@1@ABVfbxDateTime@1@@Z
	?fbxCopy@fbxsdk_20100@@YA_NAAV?$fbxVectorTemplate4@N@1@ABD@Z
	?fbxCopy@fbxsdk_20100@@YA_NAAV?$fbxVectorTemplate4@N@1@ABE@Z
	?fbxCopy@fbxsdk_20100@@YA_NAAV?$fbxVectorTemplate4@N@1@ABF@Z
	?fbxCopy@fbxsdk_20100@@YA_NAAV?$fbxVectorTemplate4@N@1@ABG@Z
	?fbxCopy@fbxsdk_20100@@YA_NAAV?$fbxVectorTemplate4@N@1@ABI@Z
	?fbxCopy@fbxsdk_20100@@YA_NAAV?$fbxVectorTemplate4@N@1@AB_J@Z
	?fbxCopy@fbxsdk_20100@@YA_NAAV?$fbxVectorTemplate4@N@1@AB_K@Z
	?fbxCopy@fbxsdk_20100@@YA_NAAV?$fbxVectorTemplate4@N@1@ABVfbxHalfFloat@1@@Z
	?fbxCopy@fbxsdk_20100@@YA_NAAV?$fbxVectorTemplate4@N@1@AB_N@Z
	?fbxCopy@fbxsdk_20100@@YA_NAAV?$fbxVectorTemplate4@N@1@ABH@Z
	?fbxCopy@fbxsdk_20100@@YA_NAAV?$fbxVectorTemplate4@N@1@ABM@Z
	?fbxCopy@fbxsdk_20100@@YA_NAAV?$fbxVectorTemplate4@N@1@ABN@Z
	?fbxCopy@fbxsdk_20100@@YA_NAAV?$fbxVectorTemplate4@N@1@ABV?$fbxVectorTemplate2@N@1@@Z
	?fbxCopy@fbxsdk_20100@@YA_NAAV?$fbxVectorTemplate4@N@1@ABV?$fbxVectorTemplate4@V?$fbxVectorTemplate4@N@fbxsdk_20100@@@1@@Z
	?fbxCopy@fbxsdk_20100@@YA_NAAV?$fbxVectorTemplate4@N@1@ABVKString@1@@Z
	?fbxCopy@fbxsdk_20100@@YA_NAAV?$fbxVectorTemplate4@N@1@ABVKTime@1@@Z
	?fbxCopy@fbxsdk_20100@@YA_NAAV?$fbxVectorTemplate4@N@1@ABVfbxBlob@1@@Z
	?fbxCopy@fbxsdk_20100@@YA_NAAV?$fbxVectorTemplate4@N@1@ABVfbxDistance@1@@Z
	?fbxCopy@fbxsdk_20100@@YA_NAAV?$fbxVectorTemplate4@N@1@ABVfbxDateTime@1@@Z
	?fbxCopy@fbxsdk_20100@@YA_NAAVKString@1@ABD@Z
	?fbxCopy@fbxsdk_20100@@YA_NAAVKString@1@ABE@Z
	?fbxCopy@fbxsdk_20100@@YA_NAAVKString@1@ABF@Z
	?fbxCopy@fbxsdk_20100@@YA_NAAVKString@1@ABG@Z
	?fbxCopy@fbxsdk_20100@@YA_NAAVKString@1@ABI@Z
	?fbxCopy@fbxsdk_20100@@YA_NAAVKString@1@AB_J@Z
	?fbxCopy@fbxsdk_20100@@YA_NAAVKString@1@AB_K@Z
	?fbxCopy@fbxsdk_20100@@YA_NAAVKString@1@AB_N@Z
	?fbxCopy@fbxsdk_20100@@YA_NAAVKString@1@ABH@Z
	?fbxCopy@fbxsdk_20100@@YA_NAAVKString@1@ABM@Z
	?fbxCopy@fbxsdk_20100@@YA_NAAVKString@1@ABN@Z
	?fbxCopy@fbxsdk_20100@@YA_NAAVKString@1@ABVKTime@1@@Z
	?fbxCopy@fbxsdk_20100@@YA_NAAVKString@1@ABVfbxBlob@1@@Z
	?fbxCopy@fbxsdk_20100@@YA_NAAVKString@1@ABVfbxDistance@1@@Z
	?fbxCopy@fbxsdk_20100@@YA_NAAVKString@1@ABVfbxDateTime@1@@Z
	?fbxCopy@fbxsdk_20100@@YA_NAAVfbxBlob@1@ABD@Z
	?fbxCopy@fbxsdk_20100@@YA_NAAVfbxBlob@1@ABE@Z
	?fbxCopy@fbxsdk_20100@@YA_NAAVfbxBlob@1@ABF@Z
	?fbxCopy@fbxsdk_20100@@YA_NAAVfbxBlob@1@ABG@Z
	?fbxCopy@fbxsdk_20100@@YA_NAAVfbxBlob@1@ABI@Z
	?fbxCopy@fbxsdk_20100@@YA_NAAVfbxBlob@1@AB_J@Z
	?fbxCopy@fbxsdk_20100@@YA_NAAVfbxBlob@1@AB_K@Z
	?fbxCopy@fbxsdk_20100@@YA_NAAVfbxBlob@1@ABVfbxHalfFloat@1@@Z
	?fbxCopy@fbxsdk_20100@@YA_NAAVfbxBlob@1@AB_N@Z
	?fbxCopy@fbxsdk_20100@@YA_NAAVfbxBlob@1@ABH@Z
	?fbxCopy@fbxsdk_20100@@YA_NAAVfbxBlob@1@ABM@Z
	?fbxCopy@fbxsdk_20100@@YA_NAAVfbxBlob@1@ABN@Z
	?fbxCopy@fbxsdk_20100@@YA_NAAVfbxBlob@1@ABV?$fbxVectorTemplate2@N@1@@Z
	?fbxCopy@fbxsdk_20100@@YA_NAAVfbxBlob@1@ABV?$fbxVectorTemplate3@N@1@@Z
	?fbxCopy@fbxsdk_20100@@YA_NAAVfbxBlob@1@ABV?$fbxVectorTemplate4@N@1@@Z
	?fbxCopy@fbxsdk_20100@@YA_NAAVfbxBlob@1@ABV?$fbxVectorTemplate4@V?$fbxVectorTemplate4@N@fbxsdk_20100@@@1@@Z
	?fbxCopy@fbxsdk_20100@@YA_NAAVfbxBlob@1@ABVKString@1@@Z
	?fbxCopy@fbxsdk_20100@@YA_NAAVfbxBlob@1@ABVKTime@1@@Z
	?fbxCopy@fbxsdk_20100@@YA_NAAVfbxBlob@1@ABVfbxDistance@1@@Z
	?fbxCopy@fbxsdk_20100@@YA_NAAVfbxBlob@1@ABVfbxDateTime@1@@Z
	?fbxCopy@fbxsdk_20100@@YA_NAAVfbxDistance@1@ABD@Z
	?fbxCopy@fbxsdk_20100@@YA_NAAVfbxDistance@1@ABE@Z
	?fbxCopy@fbxsdk_20100@@YA_NAAVfbxDistance@1@ABF@Z
	?fbxCopy@fbxsdk_20100@@YA_NAAVfbxDistance@1@ABG@Z
	?fbxCopy@fbxsdk_20100@@YA_NAAVfbxDistance@1@ABI@Z
	?fbxCopy@fbxsdk_20100@@YA_NAAVfbxDistance@1@AB_J@Z
	?fbxCopy@fbxsdk_20100@@YA_NAAVfbxDistance@1@AB_K@Z
	?fbxCopy@fbxsdk_20100@@YA_NAAVfbxDistance@1@ABVfbxHalfFloat@1@@Z
	?fbxCopy@fbxsdk_20100@@YA_NAAVfbxDistance@1@AB_N@Z
	?fbxCopy@fbxsdk_20100@@YA_NAAVfbxDistance@1@ABH@Z
	?fbxCopy@fbxsdk_20100@@YA_NAAVfbxDistance@1@ABM@Z
	?fbxCopy@fbxsdk_20100@@YA_NAAVfbxDistance@1@ABN@Z
	?fbxCopy@fbxsdk_20100@@YA_NAAVfbxDistance@1@ABV?$fbxVectorTemplate2@N@1@@Z
	?fbxCopy@fbxsdk_20100@@YA_NAAVfbxDistance@1@ABV?$fbxVectorTemplate3@N@1@@Z
	?fbxCopy@fbxsdk_20100@@YA_NAAVfbxDistance@1@ABV?$fbxVectorTemplate4@N@1@@Z
	?fbxCopy@fbxsdk_20100@@YA_NAAVfbxDistance@1@ABV?$fbxVectorTemplate4@V?$fbxVectorTemplate4@N@fbxsdk_20100@@@1@@Z
	?fbxCopy@fbxsdk_20100@@YA_NAAVfbxDistance@1@ABVKString@1@@Z
	?fbxCopy@fbxsdk_20100@@YA_NAAVfbxDistance@1@ABVKTime@1@@Z
	?fbxCopy@fbxsdk_20100@@YA_NAAVfbxDistance@1@ABVfbxBlob@1@@Z
	?fbxCopy@fbxsdk_20100@@YA_NAAVfbxDistance@1@ABVfbxDateTime@1@@Z
	?fbxCopy@fbxsdk_20100@@YA_NAAVfbxDateTime@1@ABD@Z
	?fbxCopy@fbxsdk_20100@@YA_NAAVfbxDateTime@1@ABE@Z
	?fbxCopy@fbxsdk_20100@@YA_NAAVfbxDateTime@1@ABF@Z
	?fbxCopy@fbxsdk_20100@@YA_NAAVfbxDateTime@1@ABG@Z
	?fbxCopy@fbxsdk_20100@@YA_NAAVfbxDateTime@1@ABI@Z
	?fbxCopy@fbxsdk_20100@@YA_NAAVfbxDateTime@1@AB_J@Z
	?fbxCopy@fbxsdk_20100@@YA_NAAVfbxDateTime@1@AB_K@Z
	?fbxCopy@fbxsdk_20100@@YA_NAAVfbxDateTime@1@ABVfbxHalfFloat@1@@Z
	?fbxCopy@fbxsdk_20100@@YA_NAAVfbxDateTime@1@AB_N@Z
	?fbxCopy@fbxsdk_20100@@YA_NAAVfbxDateTime@1@ABH@Z
	?fbxCopy@fbxsdk_20100@@YA_NAAVfbxDateTime@1@ABM@Z
	?fbxCopy@fbxsdk_20100@@YA_NAAVfbxDateTime@1@ABN@Z
	?fbxCopy@fbxsdk_20100@@YA_NAAVfbxDateTime@1@ABV?$fbxVectorTemplate2@N@1@@Z
	?fbxCopy@fbxsdk_20100@@YA_NAAVfbxDateTime@1@ABV?$fbxVectorTemplate3@N@1@@Z
	?fbxCopy@fbxsdk_20100@@YA_NAAVfbxDateTime@1@ABV?$fbxVectorTemplate4@N@1@@Z
	?fbxCopy@fbxsdk_20100@@YA_NAAVfbxDateTime@1@ABV?$fbxVectorTemplate4@V?$fbxVectorTemplate4@N@fbxsdk_20100@@@1@@Z
	?fbxCopy@fbxsdk_20100@@YA_NAAVfbxDateTime@1@ABVKString@1@@Z
	?fbxCopy@fbxsdk_20100@@YA_NAAVfbxDateTime@1@ABVKTime@1@@Z
	?fbxCopy@fbxsdk_20100@@YA_NAAVfbxDateTime@1@ABVfbxBlob@1@@Z
	?fbxCopy@fbxsdk_20100@@YA_NAAVfbxDateTime@1@ABVfbxDistance@1@@Z
	??4KFbxDataType@fbxsdk_20100@@QAEAAV01@ABV01@@Z
	?Write@KFbxStream@fbxsdk_20100@@QAEHPBDH@Z
	?Write@KFbxStream@fbxsdk_20100@@QAEHPBHH@Z
	?Read@KFbxStream@fbxsdk_20100@@QBEHPADH@Z
	?Read@KFbxStream@fbxsdk_20100@@QBEHPAHH@Z
	?SetMappingMode@KFbxLayerElement@fbxsdk_20100@@QAEXW4EMappingMode@12@@Z
	?GetMappingMode@KFbxLayerElement@fbxsdk_20100@@QBE?AW4EMappingMode@12@XZ
	?GetReferenceMode@KFbxLayerElement@fbxsdk_20100@@QBE?AW4EReferenceMode@12@XZ
	?SetName@KFbxLayerElement@fbxsdk_20100@@QAEXPBD@Z
	?GetName@KFbxLayerElement@fbxsdk_20100@@QBEPBDXZ
	??4KFbxLayerElement@fbxsdk_20100@@QAEAAV01@ABV01@@Z
	?SetType@KFbxLayerElement@fbxsdk_20100@@QAEXPAVKFbxDataType@2@@Z
	?GetOwner@KFbxLayerElement@fbxsdk_20100@@QBEPBVKFbxLayerContainer@2@XZ
	??0KFbxLayerElement@fbxsdk_20100@@IAE@XZ
	??_7KFbxLayerElement@fbxsdk_20100@@6B@
	??_R4KFbxLayerElement@fbxsdk_20100@@6B@
	??_R0?AVKFbxLayerElement@fbxsdk_20100@@@8
	??_R3KFbxLayerElement@fbxsdk_20100@@8
	??_R2KFbxLayerElement@fbxsdk_20100@@8
	??_R1A@?0A@EA@KFbxLayerElement@fbxsdk_20100@@8
	??1KFbxLayerElement@fbxsdk_20100@@MAE@XZ
	?Destruct@KFbxLayerElement@fbxsdk_20100@@IAEXXZ
	?MemorySize@KFbxLayerElement@fbxsdk_20100@@UBEHXZ
	??_GKFbxLayerElement@fbxsdk_20100@@MAEPAXI@Z
	?GetStatus@KFbxLayerElementArray@fbxsdk_20100@@QBE?AW4ELockAccessStatus@LockAccessStatus@2@XZ
	?IsWriteLocked@KFbxLayerElementArray@fbxsdk_20100@@QBE_NXZ
	?GetReadLockCount@KFbxLayerElementArray@fbxsdk_20100@@QBEHXZ
	?Release@KFbxLayerElementArray@fbxsdk_20100@@QAEXPAPAX@Z
	?SetStatus@KFbxLayerElementArray@fbxsdk_20100@@IBEXW4ELockAccessStatus@LockAccessStatus@2@@Z
	?GetImplementation@KFbxLayerElementArray@fbxsdk_20100@@IAEPAXXZ
	??0KFbxLayer@fbxsdk_20100@@AAE@AAVKFbxLayerContainer@1@@Z
	??_7KFbxLayer@fbxsdk_20100@@6B@
	??_R4KFbxLayer@fbxsdk_20100@@6B@
	??_R0?AVKFbxLayer@fbxsdk_20100@@@8
	??_R3KFbxLayer@fbxsdk_20100@@8
	??_R2KFbxLayer@fbxsdk_20100@@8
	??_R1A@?0A@EA@KFbxLayer@fbxsdk_20100@@8
	?GetNormals@KFbxLayer@fbxsdk_20100@@QAEPAVKFbxLayerElementNormal@2@XZ
	?GetNormals@KFbxLayer@fbxsdk_20100@@QBEPBVKFbxLayerElementNormal@2@XZ
	?GetTangents@KFbxLayer@fbxsdk_20100@@QAEPAVKFbxLayerElementTangent@2@XZ
	?GetTangents@KFbxLayer@fbxsdk_20100@@QBEPBVKFbxLayerElementTangent@2@XZ
	?GetBinormals@KFbxLayer@fbxsdk_20100@@QAEPAVKFbxLayerElementBinormal@2@XZ
	?GetBinormals@KFbxLayer@fbxsdk_20100@@QBEPBVKFbxLayerElementBinormal@2@XZ
	?GetMaterials@KFbxLayer@fbxsdk_20100@@QAEPAVKFbxLayerElementMaterial@2@XZ
	?GetMaterials@KFbxLayer@fbxsdk_20100@@QBEPBVKFbxLayerElementMaterial@2@XZ
	?GetPolygonGroups@KFbxLayer@fbxsdk_20100@@QAEPAVKFbxLayerElementPolygonGroup@2@XZ
	?GetPolygonGroups@KFbxLayer@fbxsdk_20100@@QBEPBVKFbxLayerElementPolygonGroup@2@XZ
	?GetEmissiveUV@KFbxLayer@fbxsdk_20100@@QAEPAVKFbxLayerElementUV@2@XZ
	?GetEmissiveUV@KFbxLayer@fbxsdk_20100@@QBEPBVKFbxLayerElementUV@2@XZ
	?GetEmissiveFactorUV@KFbxLayer@fbxsdk_20100@@QAEPAVKFbxLayerElementUV@2@XZ
	?GetEmissiveFactorUV@KFbxLayer@fbxsdk_20100@@QBEPBVKFbxLayerElementUV@2@XZ
	?GetAmbientUV@KFbxLayer@fbxsdk_20100@@QAEPAVKFbxLayerElementUV@2@XZ
	?GetAmbientUV@KFbxLayer@fbxsdk_20100@@QBEPBVKFbxLayerElementUV@2@XZ
	?GetAmbientFactorUV@KFbxLayer@fbxsdk_20100@@QAEPAVKFbxLayerElementUV@2@XZ
	?GetAmbientFactorUV@KFbxLayer@fbxsdk_20100@@QBEPBVKFbxLayerElementUV@2@XZ
	?GetDiffuseUV@KFbxLayer@fbxsdk_20100@@QAEPAVKFbxLayerElementUV@2@XZ
	?GetDiffuseUV@KFbxLayer@fbxsdk_20100@@QBEPBVKFbxLayerElementUV@2@XZ
	?GetDiffuseFactorUV@KFbxLayer@fbxsdk_20100@@QAEPAVKFbxLayerElementUV@2@XZ
	?GetDiffuseFactorUV@KFbxLayer@fbxsdk_20100@@QBEPBVKFbxLayerElementUV@2@XZ
	?GetSpecularUV@KFbxLayer@fbxsdk_20100@@QAEPAVKFbxLayerElementUV@2@XZ
	?GetSpecularUV@KFbxLayer@fbxsdk_20100@@QBEPBVKFbxLayerElementUV@2@XZ
	?GetSpecularFactorUV@KFbxLayer@fbxsdk_20100@@QAEPAVKFbxLayerElementUV@2@XZ
	?GetSpecularFactorUV@KFbxLayer@fbxsdk_20100@@QBEPBVKFbxLayerElementUV@2@XZ
	?GetShininessUV@KFbxLayer@fbxsdk_20100@@QAEPAVKFbxLayerElementUV@2@XZ
	?GetShininessUV@KFbxLayer@fbxsdk_20100@@QBEPBVKFbxLayerElementUV@2@XZ
	?GetNormalMapUV@KFbxLayer@fbxsdk_20100@@QAEPAVKFbxLayerElementUV@2@XZ
	?GetNormalMapUV@KFbxLayer@fbxsdk_20100@@QBEPBVKFbxLayerElementUV@2@XZ
	?GetBumpUV@KFbxLayer@fbxsdk_20100@@QAEPAVKFbxLayerElementUV@2@XZ
	?GetBumpUV@KFbxLayer@fbxsdk_20100@@QBEPBVKFbxLayerElementUV@2@XZ
	?GetTransparentUV@KFbxLayer@fbxsdk_20100@@QAEPAVKFbxLayerElementUV@2@XZ
	?GetTransparentUV@KFbxLayer@fbxsdk_20100@@QBEPBVKFbxLayerElementUV@2@XZ
	?GetTransparencyFactorUV@KFbxLayer@fbxsdk_20100@@QAEPAVKFbxLayerElementUV@2@XZ
	?GetTransparencyFactorUV@KFbxLayer@fbxsdk_20100@@QBEPBVKFbxLayerElementUV@2@XZ
	?GetReflectionUV@KFbxLayer@fbxsdk_20100@@QAEPAVKFbxLayerElementUV@2@XZ
	?GetReflectionUV@KFbxLayer@fbxsdk_20100@@QBEPBVKFbxLayerElementUV@2@XZ
	?GetReflectionFactorUV@KFbxLayer@fbxsdk_20100@@QAEPAVKFbxLayerElementUV@2@XZ
	?GetReflectionFactorUV@KFbxLayer@fbxsdk_20100@@QBEPBVKFbxLayerElementUV@2@XZ
	?GetDisplacementUV@KFbxLayer@fbxsdk_20100@@QAEPAVKFbxLayerElementUV@2@XZ
	?GetDisplacementUV@KFbxLayer@fbxsdk_20100@@QBEPBVKFbxLayerElementUV@2@XZ
	?GetUVs@KFbxLayer@fbxsdk_20100@@QAEPAVKFbxLayerElementUV@2@W4ELayerElementType@KFbxLayerElement@2@@Z
	?GetUVs@KFbxLayer@fbxsdk_20100@@QBEPBVKFbxLayerElementUV@2@W4ELayerElementType@KFbxLayerElement@2@@Z
	?GetVertexColors@KFbxLayer@fbxsdk_20100@@QAEPAVKFbxLayerElementVertexColor@2@XZ
	?GetVertexColors@KFbxLayer@fbxsdk_20100@@QBEPBVKFbxLayerElementVertexColor@2@XZ
	?GetSmoothing@KFbxLayer@fbxsdk_20100@@QAEPAVKFbxLayerElementSmoothing@2@XZ
	?GetSmoothing@KFbxLayer@fbxsdk_20100@@QBEPBVKFbxLayerElementSmoothing@2@XZ
	?GetVertexCrease@KFbxLayer@fbxsdk_20100@@QAEPAVKFbxLayerElementCrease@2@XZ
	?GetVertexCrease@KFbxLayer@fbxsdk_20100@@QBEPBVKFbxLayerElementCrease@2@XZ
	?GetEdgeCrease@KFbxLayer@fbxsdk_20100@@QAEPAVKFbxLayerElementCrease@2@XZ
	?GetEdgeCrease@KFbxLayer@fbxsdk_20100@@QBEPBVKFbxLayerElementCrease@2@XZ
	?GetUserData@KFbxLayer@fbxsdk_20100@@QAEPAVKFbxLayerElementUserData@2@XZ
	?GetUserData@KFbxLayer@fbxsdk_20100@@QBEPBVKFbxLayerElementUserData@2@XZ
	?GetVisibility@KFbxLayer@fbxsdk_20100@@QAEPAVKFbxLayerElementVisibility@2@XZ
	?GetVisibility@KFbxLayer@fbxsdk_20100@@QBEPBVKFbxLayerElementVisibility@2@XZ
	?GetEmissiveTextures@KFbxLayer@fbxsdk_20100@@QAEPAVKFbxLayerElementTexture@2@XZ
	?GetEmissiveTextures@KFbxLayer@fbxsdk_20100@@QBEPBVKFbxLayerElementTexture@2@XZ
	?GetEmissiveFactorTextures@KFbxLayer@fbxsdk_20100@@QAEPAVKFbxLayerElementTexture@2@XZ
	?GetEmissiveFactorTextures@KFbxLayer@fbxsdk_20100@@QBEPBVKFbxLayerElementTexture@2@XZ
	?GetAmbientTextures@KFbxLayer@fbxsdk_20100@@QAEPAVKFbxLayerElementTexture@2@XZ
	?GetAmbientTextures@KFbxLayer@fbxsdk_20100@@QBEPBVKFbxLayerElementTexture@2@XZ
	?GetAmbientFactorTextures@KFbxLayer@fbxsdk_20100@@QAEPAVKFbxLayerElementTexture@2@XZ
	?GetAmbientFactorTextures@KFbxLayer@fbxsdk_20100@@QBEPBVKFbxLayerElementTexture@2@XZ
	?GetDiffuseTextures@KFbxLayer@fbxsdk_20100@@QAEPAVKFbxLayerElementTexture@2@XZ
	?GetDiffuseTextures@KFbxLayer@fbxsdk_20100@@QBEPBVKFbxLayerElementTexture@2@XZ
	?GetDiffuseFactorTextures@KFbxLayer@fbxsdk_20100@@QAEPAVKFbxLayerElementTexture@2@XZ
	?GetDiffuseFactorTextures@KFbxLayer@fbxsdk_20100@@QBEPBVKFbxLayerElementTexture@2@XZ
	?GetSpecularTextures@KFbxLayer@fbxsdk_20100@@QAEPAVKFbxLayerElementTexture@2@XZ
	?GetSpecularTextures@KFbxLayer@fbxsdk_20100@@QBEPBVKFbxLayerElementTexture@2@XZ
	?GetSpecularFactorTextures@KFbxLayer@fbxsdk_20100@@QAEPAVKFbxLayerElementTexture@2@XZ
	?GetSpecularFactorTextures@KFbxLayer@fbxsdk_20100@@QBEPBVKFbxLayerElementTexture@2@XZ
	?GetShininessTextures@KFbxLayer@fbxsdk_20100@@QAEPAVKFbxLayerElementTexture@2@XZ
	?GetShininessTextures@KFbxLayer@fbxsdk_20100@@QBEPBVKFbxLayerElementTexture@2@XZ
	?GetNormalMapTextures@KFbxLayer@fbxsdk_20100@@QAEPAVKFbxLayerElementTexture@2@XZ
	?GetNormalMapTextures@KFbxLayer@fbxsdk_20100@@QBEPBVKFbxLayerElementTexture@2@XZ
	?GetBumpTextures@KFbxLayer@fbxsdk_20100@@QAEPAVKFbxLayerElementTexture@2@XZ
	?GetBumpTextures@KFbxLayer@fbxsdk_20100@@QBEPBVKFbxLayerElementTexture@2@XZ
	?GetTransparentTextures@KFbxLayer@fbxsdk_20100@@QAEPAVKFbxLayerElementTexture@2@XZ
	?GetTransparentTextures@KFbxLayer@fbxsdk_20100@@QBEPBVKFbxLayerElementTexture@2@XZ
	?GetTransparencyFactorTextures@KFbxLayer@fbxsdk_20100@@QAEPAVKFbxLayerElementTexture@2@XZ
	?GetTransparencyFactorTextures@KFbxLayer@fbxsdk_20100@@QBEPBVKFbxLayerElementTexture@2@XZ
	?GetReflectionTextures@KFbxLayer@fbxsdk_20100@@QAEPAVKFbxLayerElementTexture@2@XZ
	?GetReflectionTextures@KFbxLayer@fbxsdk_20100@@QBEPBVKFbxLayerElementTexture@2@XZ
	?GetReflectionFactorTextures@KFbxLayer@fbxsdk_20100@@QAEPAVKFbxLayerElementTexture@2@XZ
	?GetReflectionFactorTextures@KFbxLayer@fbxsdk_20100@@QBEPBVKFbxLayerElementTexture@2@XZ
	?GetDisplacementTextures@KFbxLayer@fbxsdk_20100@@QAEPAVKFbxLayerElementTexture@2@XZ
	?GetDisplacementTextures@KFbxLayer@fbxsdk_20100@@QBEPBVKFbxLayerElementTexture@2@XZ
	?GetTextures@KFbxLayer@fbxsdk_20100@@QAEPAVKFbxLayerElementTexture@2@W4ELayerElementType@KFbxLayerElement@2@@Z
	?GetTextures@KFbxLayer@fbxsdk_20100@@QBEPBVKFbxLayerElementTexture@2@W4ELayerElementType@KFbxLayerElement@2@@Z
	?GetLayerElementOfType@KFbxLayer@fbxsdk_20100@@QAEPAVKFbxLayerElement@2@W4ELayerElementType@32@_N@Z
	?GetLayerElementOfType@KFbxLayer@fbxsdk_20100@@QBEPBVKFbxLayerElement@2@W4ELayerElementType@32@_N@Z
	?SetNormals@KFbxLayer@fbxsdk_20100@@QAEXPAVKFbxLayerElementNormal@2@@Z
	?SetBinormals@KFbxLayer@fbxsdk_20100@@QAEXPAVKFbxLayerElementBinormal@2@@Z
	?SetTangents@KFbxLayer@fbxsdk_20100@@QAEXPAVKFbxLayerElementTangent@2@@Z
	?SetMaterials@KFbxLayer@fbxsdk_20100@@QAEXPAVKFbxLayerElementMaterial@2@@Z
	?SetPolygonGroups@KFbxLayer@fbxsdk_20100@@QAEXPAVKFbxLayerElementPolygonGroup@2@@Z
	?SetUVs@KFbxLayer@fbxsdk_20100@@QAEXPAVKFbxLayerElementUV@2@W4ELayerElementType@KFbxLayerElement@2@@Z
	?SetVertexColors@KFbxLayer@fbxsdk_20100@@QAEXPAVKFbxLayerElementVertexColor@2@@Z
	?SetSmoothing@KFbxLayer@fbxsdk_20100@@QAEXPAVKFbxLayerElementSmoothing@2@@Z
	?SetVertexCrease@KFbxLayer@fbxsdk_20100@@QAEXPAVKFbxLayerElementCrease@2@@Z
	?SetEdgeCrease@KFbxLayer@fbxsdk_20100@@QAEXPAVKFbxLayerElementCrease@2@@Z
	?SetUserData@KFbxLayer@fbxsdk_20100@@QAEXPAVKFbxLayerElementUserData@2@@Z
	?SetVisibility@KFbxLayer@fbxsdk_20100@@QAEXPAVKFbxLayerElementVisibility@2@@Z
	?SetEmissiveTextures@KFbxLayer@fbxsdk_20100@@QAEXPAVKFbxLayerElementTexture@2@@Z
	?SetEmissiveFactorTextures@KFbxLayer@fbxsdk_20100@@QAEXPAVKFbxLayerElementTexture@2@@Z
	?SetAmbientTextures@KFbxLayer@fbxsdk_20100@@QAEXPAVKFbxLayerElementTexture@2@@Z
	?SetAmbientFactorTextures@KFbxLayer@fbxsdk_20100@@QAEXPAVKFbxLayerElementTexture@2@@Z
	?SetDiffuseTextures@KFbxLayer@fbxsdk_20100@@QAEXPAVKFbxLayerElementTexture@2@@Z
	?SetDiffuseFactorTextures@KFbxLayer@fbxsdk_20100@@QAEXPAVKFbxLayerElementTexture@2@@Z
	?SetSpecularTextures@KFbxLayer@fbxsdk_20100@@QAEXPAVKFbxLayerElementTexture@2@@Z
	?SetSpecularFactorTextures@KFbxLayer@fbxsdk_20100@@QAEXPAVKFbxLayerElementTexture@2@@Z
	?SetShininessTextures@KFbxLayer@fbxsdk_20100@@QAEXPAVKFbxLayerElementTexture@2@@Z
	?SetNormalMapTextures@KFbxLayer@fbxsdk_20100@@QAEXPAVKFbxLayerElementTexture@2@@Z
	?SetBumpTextures@KFbxLayer@fbxsdk_20100@@QAEXPAVKFbxLayerElementTexture@2@@Z
	?SetTransparentTextures@KFbxLayer@fbxsdk_20100@@QAEXPAVKFbxLayerElementTexture@2@@Z
	?SetTransparencyFactorTextures@KFbxLayer@fbxsdk_20100@@QAEXPAVKFbxLayerElementTexture@2@@Z
	?SetReflectionTextures@KFbxLayer@fbxsdk_20100@@QAEXPAVKFbxLayerElementTexture@2@@Z
	?SetReflectionFactorTextures@KFbxLayer@fbxsdk_20100@@QAEXPAVKFbxLayerElementTexture@2@@Z
	?SetDisplacementTextures@KFbxLayer@fbxsdk_20100@@QAEXPAVKFbxLayerElementTexture@2@@Z
	?SetTextures@KFbxLayer@fbxsdk_20100@@QAEXW4ELayerElementType@KFbxLayerElement@2@PAVKFbxLayerElementTexture@2@@Z
	?GetUVSetCount@KFbxLayer@fbxsdk_20100@@QBEHXZ
	?MemoryUsage@KFbxLayer@fbxsdk_20100@@UBEHXZ
	?ContentWriteTo@KFbxLayer@fbxsdk_20100@@QBE_NAAVKFbxStream@2@@Z
	?ContentWriteTo@KFbxLayerElement@fbxsdk_20100@@UBE_NAAVKFbxStream@2@@Z
	?ContentReadFrom@KFbxLayerElement@fbxsdk_20100@@UAE_NABVKFbxStream@2@@Z
	?Destroy@KFbxLayerElement@fbxsdk_20100@@QAEXXZ
	?SetOwner@KFbxLayerElement@fbxsdk_20100@@MAEXPAVKFbxLayerContainer@2@@Z
	?SetContainer@LayerElementArrayProxyImp@fbxsdk_20100@@QAEXPAVKFbxLayerContainer@2@H@Z
	?IsInUse@KFbxLayerElementArray@fbxsdk_20100@@QBE_NXZ
	?ReadLock@KFbxLayerElementArray@fbxsdk_20100@@QBEHXZ
	?ReadUnlock@KFbxLayerElementArray@fbxsdk_20100@@QBEHXZ
	?ReadWriteLock@KFbxLayerElementArray@fbxsdk_20100@@QBE_NXZ
	?ReadWriteUnlock@KFbxLayerElementArray@fbxsdk_20100@@QBEXXZ
	?WriteUnlock@KFbxLayerElementArray@fbxsdk_20100@@QBEXXZ
	?GetStride@KFbxLayerElementArray@fbxsdk_20100@@UBEIXZ
	?SetImplementation@KFbxLayerElementArray@fbxsdk_20100@@IAEXPAX@Z
	?SetContainer@LayerElementArrayProxy@KFbxLayerElementMaterial@fbxsdk_20100@@QAEXPAVKFbxLayerContainer@3@H@Z
	??A?$fbxVectorTemplate2@N@fbxsdk_20100@@QBEABNH@Z
	??4?$fbxVectorTemplate2@N@fbxsdk_20100@@QAEAAV01@ABN@Z
	??4?$fbxVectorTemplate2@N@fbxsdk_20100@@QAEAAV01@ABV01@@Z
	??A?$fbxVectorTemplate3@N@fbxsdk_20100@@QBEABNH@Z
	??4?$fbxVectorTemplate3@N@fbxsdk_20100@@QAEAAV01@ABN@Z
	??4?$fbxVectorTemplate3@N@fbxsdk_20100@@QAEAAV01@ABV01@@Z
	??B?$fbxVectorTemplate4@N@fbxsdk_20100@@QBEAAV?$fbxVectorTemplate3@N@1@XZ
	??A?$fbxVectorTemplate4@N@fbxsdk_20100@@QBEABNH@Z
	??4?$fbxVectorTemplate4@N@fbxsdk_20100@@QAEAAV01@ABV?$fbxVectorTemplate3@N@1@@Z
	??4?$fbxVectorTemplate4@N@fbxsdk_20100@@QAEAAV01@ABV01@@Z
	??A?$fbxVectorTemplate4@V?$fbxVectorTemplate4@N@fbxsdk_20100@@@fbxsdk_20100@@QBEABV?$fbxVectorTemplate4@N@1@H@Z
	??4?$fbxVectorTemplate4@V?$fbxVectorTemplate4@N@fbxsdk_20100@@@fbxsdk_20100@@QAEAAV01@ABV01@@Z
	?Clear@?$KBaseArray@V?$KBaseArraySizeType@PAX@fbxsdk_20100@@@fbxsdk_20100@@QAEXXZ
	??0?$KFbxLayerElementTemplate@VKFbxVector4@fbxsdk_20100@@@fbxsdk_20100@@IAE@XZ
	??_7?$KFbxLayerElementTemplate@VKFbxVector4@fbxsdk_20100@@@fbxsdk_20100@@6B@
	??_R4?$KFbxLayerElementTemplate@VKFbxVector4@fbxsdk_20100@@@fbxsdk_20100@@6B@
	??_R0?AV?$KFbxLayerElementTemplate@VKFbxVector4@fbxsdk_20100@@@fbxsdk_20100@@@8
	??_R3?$KFbxLayerElementTemplate@VKFbxVector4@fbxsdk_20100@@@fbxsdk_20100@@8
	??_R2?$KFbxLayerElementTemplate@VKFbxVector4@fbxsdk_20100@@@fbxsdk_20100@@8
	??_R1A@?0A@EA@?$KFbxLayerElementTemplate@VKFbxVector4@fbxsdk_20100@@@fbxsdk_20100@@8
	?GetLocked@KFbxLayerElementArray@fbxsdk_20100@@QAEPAXW4ELockMode@12@@Z
	??1?$KFbxLayerElementTemplate@VKFbxVector4@fbxsdk_20100@@@fbxsdk_20100@@MAE@XZ
	?GetDirectArray@?$KFbxLayerElementTemplate@PAVKFbxSurfaceMaterial@fbxsdk_20100@@@fbxsdk_20100@@QBEAAV?$KFbxLayerElementArrayTemplate@PAVKFbxSurfaceMaterial@fbxsdk_20100@@@2@XZ
	??0?$KFbxLayerElementTemplate@PAVKFbxSurfaceMaterial@fbxsdk_20100@@@fbxsdk_20100@@IAE@XZ
	??_7?$KFbxLayerElementTemplate@PAVKFbxSurfaceMaterial@fbxsdk_20100@@@fbxsdk_20100@@6B@
	??_R4?$KFbxLayerElementTemplate@PAVKFbxSurfaceMaterial@fbxsdk_20100@@@fbxsdk_20100@@6B@
	??_R0?AV?$KFbxLayerElementTemplate@PAVKFbxSurfaceMaterial@fbxsdk_20100@@@fbxsdk_20100@@@8
	??_R3?$KFbxLayerElementTemplate@PAVKFbxSurfaceMaterial@fbxsdk_20100@@@fbxsdk_20100@@8
	??_R2?$KFbxLayerElementTemplate@PAVKFbxSurfaceMaterial@fbxsdk_20100@@@fbxsdk_20100@@8
	??_R1A@?0A@EA@?$KFbxLayerElementTemplate@PAVKFbxSurfaceMaterial@fbxsdk_20100@@@fbxsdk_20100@@8
	??1?$KFbxLayerElementTemplate@PAVKFbxSurfaceMaterial@fbxsdk_20100@@@fbxsdk_20100@@MAE@XZ
	??0?$KFbxLayerElementTemplate@H@fbxsdk_20100@@IAE@XZ
	??_7?$KFbxLayerElementTemplate@H@fbxsdk_20100@@6B@
	??_R4?$KFbxLayerElementTemplate@H@fbxsdk_20100@@6B@
	??_R0?AV?$KFbxLayerElementTemplate@H@fbxsdk_20100@@@8
	??_R3?$KFbxLayerElementTemplate@H@fbxsdk_20100@@8
	??_R2?$KFbxLayerElementTemplate@H@fbxsdk_20100@@8
	??_R1A@?0A@EA@?$KFbxLayerElementTemplate@H@fbxsdk_20100@@8
	??1?$KFbxLayerElementTemplate@H@fbxsdk_20100@@MAE@XZ
	??0?$KFbxLayerElementTemplate@VKFbxVector2@fbxsdk_20100@@@fbxsdk_20100@@IAE@XZ
	??_7?$KFbxLayerElementTemplate@VKFbxVector2@fbxsdk_20100@@@fbxsdk_20100@@6B@
	??_R4?$KFbxLayerElementTemplate@VKFbxVector2@fbxsdk_20100@@@fbxsdk_20100@@6B@
	??_R0?AV?$KFbxLayerElementTemplate@VKFbxVector2@fbxsdk_20100@@@fbxsdk_20100@@@8
	??_R3?$KFbxLayerElementTemplate@VKFbxVector2@fbxsdk_20100@@@fbxsdk_20100@@8
	??_R2?$KFbxLayerElementTemplate@VKFbxVector2@fbxsdk_20100@@@fbxsdk_20100@@8
	??_R1A@?0A@EA@?$KFbxLayerElementTemplate@VKFbxVector2@fbxsdk_20100@@@fbxsdk_20100@@8
	??1?$KFbxLayerElementTemplate@VKFbxVector2@fbxsdk_20100@@@fbxsdk_20100@@MAE@XZ
	??0?$KFbxLayerElementTemplate@VKFbxColor@fbxsdk_20100@@@fbxsdk_20100@@IAE@XZ
	??_7?$KFbxLayerElementTemplate@VKFbxColor@fbxsdk_20100@@@fbxsdk_20100@@6B@
	??_R4?$KFbxLayerElementTemplate@VKFbxColor@fbxsdk_20100@@@fbxsdk_20100@@6B@
	??_R0?AV?$KFbxLayerElementTemplate@VKFbxColor@fbxsdk_20100@@@fbxsdk_20100@@@8
	??_R3?$KFbxLayerElementTemplate@VKFbxColor@fbxsdk_20100@@@fbxsdk_20100@@8
	??_R2?$KFbxLayerElementTemplate@VKFbxColor@fbxsdk_20100@@@fbxsdk_20100@@8
	??_R1A@?0A@EA@?$KFbxLayerElementTemplate@VKFbxColor@fbxsdk_20100@@@fbxsdk_20100@@8
	??1?$KFbxLayerElementTemplate@VKFbxColor@fbxsdk_20100@@@fbxsdk_20100@@MAE@XZ
	?GetDirectArray@?$KFbxLayerElementTemplate@PAX@fbxsdk_20100@@QBEAAV?$KFbxLayerElementArrayTemplate@PAX@2@XZ
	?GetDirectArray@?$KFbxLayerElementTemplate@PAX@fbxsdk_20100@@QAEAAV?$KFbxLayerElementArrayTemplate@PAX@2@XZ
	?GetIndexArray@?$KFbxLayerElementTemplate@PAX@fbxsdk_20100@@QBEAAV?$KFbxLayerElementArrayTemplate@H@2@XZ
	?GetIndexArray@?$KFbxLayerElementTemplate@PAX@fbxsdk_20100@@QAEAAV?$KFbxLayerElementArrayTemplate@H@2@XZ
	??0?$KFbxLayerElementTemplate@PAX@fbxsdk_20100@@IAE@XZ
	??_7?$KFbxLayerElementTemplate@PAX@fbxsdk_20100@@6B@
	??_R4?$KFbxLayerElementTemplate@PAX@fbxsdk_20100@@6B@
	??_R0?AV?$KFbxLayerElementTemplate@PAX@fbxsdk_20100@@@8
	??_R3?$KFbxLayerElementTemplate@PAX@fbxsdk_20100@@8
	??_R2?$KFbxLayerElementTemplate@PAX@fbxsdk_20100@@8
	??_R1A@?0A@EA@?$KFbxLayerElementTemplate@PAX@fbxsdk_20100@@8
	??1?$KFbxLayerElementTemplate@PAX@fbxsdk_20100@@MAE@XZ
	?Clear@?$KBaseArray@V?$KBaseArraySizeType@VKFbxDataType@fbxsdk_20100@@@fbxsdk_20100@@@fbxsdk_20100@@QAEXXZ
	?Clear@?$KBaseArray@V?$KBaseArraySizeType@PAVKString@fbxsdk_20100@@@fbxsdk_20100@@@fbxsdk_20100@@QAEXXZ
	??0?$KFbxLayerElementTemplate@N@fbxsdk_20100@@IAE@XZ
	??_7?$KFbxLayerElementTemplate@N@fbxsdk_20100@@6B@
	??_R4?$KFbxLayerElementTemplate@N@fbxsdk_20100@@6B@
	??_R0?AV?$KFbxLayerElementTemplate@N@fbxsdk_20100@@@8
	??_R3?$KFbxLayerElementTemplate@N@fbxsdk_20100@@8
	??_R2?$KFbxLayerElementTemplate@N@fbxsdk_20100@@8
	??_R1A@?0A@EA@?$KFbxLayerElementTemplate@N@fbxsdk_20100@@8
	??1?$KFbxLayerElementTemplate@N@fbxsdk_20100@@MAE@XZ
	??0?$KFbxLayerElementTemplate@_N@fbxsdk_20100@@IAE@XZ
	??_7?$KFbxLayerElementTemplate@_N@fbxsdk_20100@@6B@
	??_R4?$KFbxLayerElementTemplate@_N@fbxsdk_20100@@6B@
	??_R0?AV?$KFbxLayerElementTemplate@_N@fbxsdk_20100@@@8
	??_R3?$KFbxLayerElementTemplate@_N@fbxsdk_20100@@8
	??_R2?$KFbxLayerElementTemplate@_N@fbxsdk_20100@@8
	??_R1A@?0A@EA@?$KFbxLayerElementTemplate@_N@fbxsdk_20100@@8
	??1?$KFbxLayerElementTemplate@_N@fbxsdk_20100@@MAE@XZ
	??0?$KFbxLayerElementTemplate@PAVKFbxTexture@fbxsdk_20100@@@fbxsdk_20100@@IAE@XZ
	??_7?$KFbxLayerElementTemplate@PAVKFbxTexture@fbxsdk_20100@@@fbxsdk_20100@@6B@
	??_R4?$KFbxLayerElementTemplate@PAVKFbxTexture@fbxsdk_20100@@@fbxsdk_20100@@6B@
	??_R0?AV?$KFbxLayerElementTemplate@PAVKFbxTexture@fbxsdk_20100@@@fbxsdk_20100@@@8
	??_R3?$KFbxLayerElementTemplate@PAVKFbxTexture@fbxsdk_20100@@@fbxsdk_20100@@8
	??_R2?$KFbxLayerElementTemplate@PAVKFbxTexture@fbxsdk_20100@@@fbxsdk_20100@@8
	??_R1A@?0A@EA@?$KFbxLayerElementTemplate@PAVKFbxTexture@fbxsdk_20100@@@fbxsdk_20100@@8
	??1?$KFbxLayerElementTemplate@PAVKFbxTexture@fbxsdk_20100@@@fbxsdk_20100@@MAE@XZ
	?Clear@?$KBaseArray@V?$KBaseArraySizeType@W4ELayerElementType@KFbxLayerElement@fbxsdk_20100@@@fbxsdk_20100@@@fbxsdk_20100@@QAEXXZ
	?Clear@?$KBaseArray@V?$KBaseArraySizeType@PBVKFbxLayerElementUV@fbxsdk_20100@@@fbxsdk_20100@@@fbxsdk_20100@@QAEXXZ
	??0?$KBaseArray@VKBaseArraySize@fbxsdk_20100@@@fbxsdk_20100@@IAE@VKBaseArraySize@1@@Z
	?Clear@?$KBaseArray@VKBaseArraySize@fbxsdk_20100@@@fbxsdk_20100@@QAEXXZ
	?GetTypeSize@?$KBaseArray@VKBaseArraySize@fbxsdk_20100@@@fbxsdk_20100@@QBEHXZ
	?GetHeaderOffset@?$KBaseArray@VKBaseArraySize@fbxsdk_20100@@@fbxsdk_20100@@IBEHXZ
	??_G?$KFbxLayerElementTemplate@VKFbxVector4@fbxsdk_20100@@@fbxsdk_20100@@MAEPAXI@Z
	??_G?$KFbxLayerElementTemplate@PAVKFbxSurfaceMaterial@fbxsdk_20100@@@fbxsdk_20100@@MAEPAXI@Z
	??_G?$KFbxLayerElementTemplate@H@fbxsdk_20100@@MAEPAXI@Z
	??_G?$KFbxLayerElementTemplate@VKFbxVector2@fbxsdk_20100@@@fbxsdk_20100@@MAEPAXI@Z
	??_G?$KFbxLayerElementTemplate@VKFbxColor@fbxsdk_20100@@@fbxsdk_20100@@MAEPAXI@Z
	??_G?$KFbxLayerElementTemplate@PAX@fbxsdk_20100@@MAEPAXI@Z
	??_G?$KFbxLayerElementTemplate@N@fbxsdk_20100@@MAEPAXI@Z
	??_G?$KFbxLayerElementTemplate@_N@fbxsdk_20100@@MAEPAXI@Z
	??_G?$KFbxLayerElementTemplate@PAVKFbxTexture@fbxsdk_20100@@@fbxsdk_20100@@MAEPAXI@Z
	??0?$KBaseArray@V?$KBaseArraySizeType@PAX@fbxsdk_20100@@@fbxsdk_20100@@IAE@V?$KBaseArraySizeType@PAX@1@@Z
	??1?$KBaseArray@V?$KBaseArraySizeType@PAX@fbxsdk_20100@@@fbxsdk_20100@@IAE@XZ
	?GetHeaderOffset@?$KBaseArray@V?$KBaseArraySizeType@PAX@fbxsdk_20100@@@fbxsdk_20100@@IBEHXZ
	?GetDirectArray@?$KFbxLayerElementTemplate@VKFbxVector4@fbxsdk_20100@@@fbxsdk_20100@@QBEAAV?$KFbxLayerElementArrayTemplate@VKFbxVector4@fbxsdk_20100@@@2@XZ
	?GetIndexArray@?$KFbxLayerElementTemplate@VKFbxVector4@fbxsdk_20100@@@fbxsdk_20100@@QBEAAV?$KFbxLayerElementArrayTemplate@H@2@XZ
	?GetIndexArray@?$KFbxLayerElementTemplate@PAVKFbxSurfaceMaterial@fbxsdk_20100@@@fbxsdk_20100@@QBEAAV?$KFbxLayerElementArrayTemplate@H@2@XZ
	?GetDirectArray@?$KFbxLayerElementTemplate@H@fbxsdk_20100@@QBEAAV?$KFbxLayerElementArrayTemplate@H@2@XZ
	?GetIndexArray@?$KFbxLayerElementTemplate@H@fbxsdk_20100@@QBEAAV?$KFbxLayerElementArrayTemplate@H@2@XZ
	?GetDirectArray@?$KFbxLayerElementTemplate@VKFbxVector2@fbxsdk_20100@@@fbxsdk_20100@@QBEAAV?$KFbxLayerElementArrayTemplate@VKFbxVector2@fbxsdk_20100@@@2@XZ
	?GetIndexArray@?$KFbxLayerElementTemplate@VKFbxVector2@fbxsdk_20100@@@fbxsdk_20100@@QBEAAV?$KFbxLayerElementArrayTemplate@H@2@XZ
	?GetDirectArray@?$KFbxLayerElementTemplate@VKFbxColor@fbxsdk_20100@@@fbxsdk_20100@@QBEAAV?$KFbxLayerElementArrayTemplate@VKFbxColor@fbxsdk_20100@@@2@XZ
	?GetIndexArray@?$KFbxLayerElementTemplate@VKFbxColor@fbxsdk_20100@@@fbxsdk_20100@@QBEAAV?$KFbxLayerElementArrayTemplate@H@2@XZ
	??0?$KBaseArray@V?$KBaseArraySizeType@VKFbxDataType@fbxsdk_20100@@@fbxsdk_20100@@@fbxsdk_20100@@IAE@V?$KBaseArraySizeType@VKFbxDataType@fbxsdk_20100@@@1@@Z
	??1?$KBaseArray@V?$KBaseArraySizeType@VKFbxDataType@fbxsdk_20100@@@fbxsdk_20100@@@fbxsdk_20100@@IAE@XZ
	?GetHeaderOffset@?$KBaseArray@V?$KBaseArraySizeType@VKFbxDataType@fbxsdk_20100@@@fbxsdk_20100@@@fbxsdk_20100@@IBEHXZ
	??0?$KBaseArray@V?$KBaseArraySizeType@PAVKString@fbxsdk_20100@@@fbxsdk_20100@@@fbxsdk_20100@@IAE@V?$KBaseArraySizeType@PAVKString@fbxsdk_20100@@@1@@Z
	??1?$KBaseArray@V?$KBaseArraySizeType@PAVKString@fbxsdk_20100@@@fbxsdk_20100@@@fbxsdk_20100@@IAE@XZ
	?GetHeaderOffset@?$KBaseArray@V?$KBaseArraySizeType@PAVKString@fbxsdk_20100@@@fbxsdk_20100@@@fbxsdk_20100@@IBEHXZ
	??0?$KBaseArray@V?$KBaseArraySizeType@H@fbxsdk_20100@@@fbxsdk_20100@@IAE@V?$KBaseArraySizeType@H@1@@Z
	?GetHeaderOffset@?$KBaseArray@V?$KBaseArraySizeType@H@fbxsdk_20100@@@fbxsdk_20100@@IBEHXZ
	?GetHeaderOffset@?$KBaseArray@V?$KBaseArraySizeType@PBD@fbxsdk_20100@@@fbxsdk_20100@@IBEHXZ
	?GetDirectArray@?$KFbxLayerElementTemplate@N@fbxsdk_20100@@QBEAAV?$KFbxLayerElementArrayTemplate@N@2@XZ
	?GetIndexArray@?$KFbxLayerElementTemplate@N@fbxsdk_20100@@QBEAAV?$KFbxLayerElementArrayTemplate@H@2@XZ
	?GetDirectArray@?$KFbxLayerElementTemplate@_N@fbxsdk_20100@@QBEAAV?$KFbxLayerElementArrayTemplate@_N@2@XZ
	?GetIndexArray@?$KFbxLayerElementTemplate@_N@fbxsdk_20100@@QBEAAV?$KFbxLayerElementArrayTemplate@H@2@XZ
	?GetDirectArray@?$KFbxLayerElementTemplate@PAVKFbxTexture@fbxsdk_20100@@@fbxsdk_20100@@QBEAAV?$KFbxLayerElementArrayTemplate@PAVKFbxTexture@fbxsdk_20100@@@2@XZ
	?GetIndexArray@?$KFbxLayerElementTemplate@PAVKFbxTexture@fbxsdk_20100@@@fbxsdk_20100@@QBEAAV?$KFbxLayerElementArrayTemplate@H@2@XZ
	?GetHeaderOffset@?$KBaseArray@V?$KBaseArraySizeType@UKFbxPolygon@KFbxMesh@fbxsdk_20100@@@fbxsdk_20100@@@fbxsdk_20100@@IBEHXZ
	??0?$KBaseArray@V?$KBaseArraySizeType@W4ELayerElementType@KFbxLayerElement@fbxsdk_20100@@@fbxsdk_20100@@@fbxsdk_20100@@IAE@V?$KBaseArraySizeType@W4ELayerElementType@KFbxLayerElement@fbxsdk_20100@@@1@@Z
	??1?$KBaseArray@V?$KBaseArraySizeType@W4ELayerElementType@KFbxLayerElement@fbxsdk_20100@@@fbxsdk_20100@@@fbxsdk_20100@@IAE@XZ
	??0?$KBaseArray@V?$KBaseArraySizeType@PBVKFbxLayerElementUV@fbxsdk_20100@@@fbxsdk_20100@@@fbxsdk_20100@@IAE@V?$KBaseArraySizeType@PBVKFbxLayerElementUV@fbxsdk_20100@@@1@@Z
	??1?$KBaseArray@V?$KBaseArraySizeType@PBVKFbxLayerElementUV@fbxsdk_20100@@@fbxsdk_20100@@@fbxsdk_20100@@IAE@XZ
	?GetHeader@?$KBaseArray@V?$KBaseArraySizeType@PAX@fbxsdk_20100@@@fbxsdk_20100@@IBEQAUKHeader@12@XZ
	?GetHeader@?$KBaseArray@V?$KBaseArraySizeType@VKFbxDataType@fbxsdk_20100@@@fbxsdk_20100@@@fbxsdk_20100@@IBEQAUKHeader@12@XZ
	?GetHeader@?$KBaseArray@V?$KBaseArraySizeType@VKFbxDataType@fbxsdk_20100@@@fbxsdk_20100@@@fbxsdk_20100@@IAEPAUKHeader@12@XZ
	?GetTypeSize@?$KBaseArraySizeType@VKFbxDataType@fbxsdk_20100@@@fbxsdk_20100@@QBEHXZ
	?GetHeader@?$KBaseArray@V?$KBaseArraySizeType@PAVKString@fbxsdk_20100@@@fbxsdk_20100@@@fbxsdk_20100@@IBEQAUKHeader@12@XZ
	?GetHeader@?$KBaseArray@V?$KBaseArraySizeType@PAVKString@fbxsdk_20100@@@fbxsdk_20100@@@fbxsdk_20100@@IAEPAUKHeader@12@XZ
	?GetTypeSize@?$KBaseArraySizeType@PAVKString@fbxsdk_20100@@@fbxsdk_20100@@QBEHXZ
	?Clear@?$KBaseArray@V?$KBaseArraySizeType@H@fbxsdk_20100@@@fbxsdk_20100@@QAEXXZ
	?GetHeader@?$KBaseArray@V?$KBaseArraySizeType@H@fbxsdk_20100@@@fbxsdk_20100@@IBEQAUKHeader@12@XZ
	?GetHeader@?$KBaseArray@V?$KBaseArraySizeType@H@fbxsdk_20100@@@fbxsdk_20100@@IAEPAUKHeader@12@XZ
	?GetTypeSize@?$KBaseArraySizeType@H@fbxsdk_20100@@QBEHXZ
	?GetHeader@?$KBaseArray@V?$KBaseArraySizeType@PBD@fbxsdk_20100@@@fbxsdk_20100@@IBEQAUKHeader@12@XZ
	?GetHeader@?$KBaseArray@V?$KBaseArraySizeType@UKFbxPolygon@KFbxMesh@fbxsdk_20100@@@fbxsdk_20100@@@fbxsdk_20100@@IBEQAUKHeader@12@XZ
	?GetHeader@?$KBaseArray@V?$KBaseArraySizeType@W4ELayerElementType@KFbxLayerElement@fbxsdk_20100@@@fbxsdk_20100@@@fbxsdk_20100@@IBEQAUKHeader@12@XZ
	?GetHeader@?$KBaseArray@V?$KBaseArraySizeType@PBVKFbxLayerElementUV@fbxsdk_20100@@@fbxsdk_20100@@@fbxsdk_20100@@IBEQAUKHeader@12@XZ
	?GetHeader@?$KBaseArray@VKBaseArraySize@fbxsdk_20100@@@fbxsdk_20100@@IBEQAUKHeader@12@XZ
	?GetHeader@?$KBaseArray@VKBaseArraySize@fbxsdk_20100@@@fbxsdk_20100@@IAEPAUKHeader@12@XZ
	?GetBlockCount@?$KBaseArray@V?$KBaseArraySizeType@PAX@fbxsdk_20100@@@fbxsdk_20100@@IBEHXZ
	?GetHeaderOffset@?$KBaseArray@V?$KBaseArraySizeType@W4ELayerElementType@KFbxLayerElement@fbxsdk_20100@@@fbxsdk_20100@@@fbxsdk_20100@@IBEHXZ
	?GetBlockCount@?$KBaseArray@V?$KBaseArraySizeType@W4ELayerElementType@KFbxLayerElement@fbxsdk_20100@@@fbxsdk_20100@@@fbxsdk_20100@@IBEHXZ
	?GetHeaderOffset@?$KBaseArray@V?$KBaseArraySizeType@PBVKFbxLayerElementUV@fbxsdk_20100@@@fbxsdk_20100@@@fbxsdk_20100@@IBEHXZ
	?GetBlockCount@?$KBaseArray@V?$KBaseArraySizeType@PBVKFbxLayerElementUV@fbxsdk_20100@@@fbxsdk_20100@@@fbxsdk_20100@@IBEHXZ
	?GetHeader@?$KBaseArray@V?$KBaseArraySizeType@PAX@fbxsdk_20100@@@fbxsdk_20100@@IAEPAUKHeader@12@XZ
	?GetTypeSize@?$KBaseArraySizeType@PAX@fbxsdk_20100@@QBEHXZ
	?GetHeader@?$KBaseArray@V?$KBaseArraySizeType@W4ELayerElementType@KFbxLayerElement@fbxsdk_20100@@@fbxsdk_20100@@@fbxsdk_20100@@IAEPAUKHeader@12@XZ
	?GetTypeSize@?$KBaseArraySizeType@W4ELayerElementType@KFbxLayerElement@fbxsdk_20100@@@fbxsdk_20100@@QBEHXZ
	?GetHeader@?$KBaseArray@V?$KBaseArraySizeType@PBVKFbxLayerElementUV@fbxsdk_20100@@@fbxsdk_20100@@@fbxsdk_20100@@IAEPAUKHeader@12@XZ
	?GetTypeSize@?$KBaseArraySizeType@PBVKFbxLayerElementUV@fbxsdk_20100@@@fbxsdk_20100@@QBEHXZ
	??$fbxCopy@V?$fbxVectorTemplate4@V?$fbxVectorTemplate4@N@fbxsdk_20100@@@fbxsdk_20100@@D@fbxsdk_20100@@YA_NAAV?$fbxVectorTemplate4@V?$fbxVectorTemplate4@N@fbxsdk_20100@@@0@ABD@Z
	??$fbxCopy@VKTime@fbxsdk_20100@@D@fbxsdk_20100@@YA_NAAVKTime@0@ABD@Z
	??$fbxCopy@V?$fbxVectorTemplate4@V?$fbxVectorTemplate4@N@fbxsdk_20100@@@fbxsdk_20100@@E@fbxsdk_20100@@YA_NAAV?$fbxVectorTemplate4@V?$fbxVectorTemplate4@N@fbxsdk_20100@@@0@ABE@Z
	??$fbxCopy@VKTime@fbxsdk_20100@@E@fbxsdk_20100@@YA_NAAVKTime@0@ABE@Z
	??$fbxCopy@V?$fbxVectorTemplate4@V?$fbxVectorTemplate4@N@fbxsdk_20100@@@fbxsdk_20100@@F@fbxsdk_20100@@YA_NAAV?$fbxVectorTemplate4@V?$fbxVectorTemplate4@N@fbxsdk_20100@@@0@ABF@Z
	??$fbxCopy@VKTime@fbxsdk_20100@@F@fbxsdk_20100@@YA_NAAVKTime@0@ABF@Z
	??$fbxCopy@V?$fbxVectorTemplate4@V?$fbxVectorTemplate4@N@fbxsdk_20100@@@fbxsdk_20100@@G@fbxsdk_20100@@YA_NAAV?$fbxVectorTemplate4@V?$fbxVectorTemplate4@N@fbxsdk_20100@@@0@ABG@Z
	??$fbxCopy@VKTime@fbxsdk_20100@@G@fbxsdk_20100@@YA_NAAVKTime@0@ABG@Z
	??$fbxCopy@V?$fbxVectorTemplate4@V?$fbxVectorTemplate4@N@fbxsdk_20100@@@fbxsdk_20100@@I@fbxsdk_20100@@YA_NAAV?$fbxVectorTemplate4@V?$fbxVectorTemplate4@N@fbxsdk_20100@@@0@ABI@Z
	??$fbxCopy@VKTime@fbxsdk_20100@@I@fbxsdk_20100@@YA_NAAVKTime@0@ABI@Z
	??$fbxCopy@V?$fbxVectorTemplate4@V?$fbxVectorTemplate4@N@fbxsdk_20100@@@fbxsdk_20100@@_J@fbxsdk_20100@@YA_NAAV?$fbxVectorTemplate4@V?$fbxVectorTemplate4@N@fbxsdk_20100@@@0@AB_J@Z
	??$fbxCopy@VKTime@fbxsdk_20100@@_J@fbxsdk_20100@@YA_NAAVKTime@0@AB_J@Z
	??$fbxCopy@V?$fbxVectorTemplate4@V?$fbxVectorTemplate4@N@fbxsdk_20100@@@fbxsdk_20100@@_K@fbxsdk_20100@@YA_NAAV?$fbxVectorTemplate4@V?$fbxVectorTemplate4@N@fbxsdk_20100@@@0@AB_K@Z
	??$fbxCopy@VKTime@fbxsdk_20100@@_K@fbxsdk_20100@@YA_NAAVKTime@0@AB_K@Z
	??$fbxCopy@V?$fbxVectorTemplate4@V?$fbxVectorTemplate4@N@fbxsdk_20100@@@fbxsdk_20100@@VfbxHalfFloat@2@@fbxsdk_20100@@YA_NAAV?$fbxVectorTemplate4@V?$fbxVectorTemplate4@N@fbxsdk_20100@@@0@ABVfbxHalfFloat@0@@Z
	??$fbxCopy@VKTime@fbxsdk_20100@@VfbxHalfFloat@2@@fbxsdk_20100@@YA_NAAVKTime@0@ABVfbxHalfFloat@0@@Z
	??$fbxCopy@V?$fbxVectorTemplate4@V?$fbxVectorTemplate4@N@fbxsdk_20100@@@fbxsdk_20100@@_N@fbxsdk_20100@@YA_NAAV?$fbxVectorTemplate4@V?$fbxVectorTemplate4@N@fbxsdk_20100@@@0@AB_N@Z
	??$fbxCopy@VKTime@fbxsdk_20100@@_N@fbxsdk_20100@@YA_NAAVKTime@0@AB_N@Z
	??$fbxCopy@V?$fbxVectorTemplate4@V?$fbxVectorTemplate4@N@fbxsdk_20100@@@fbxsdk_20100@@H@fbxsdk_20100@@YA_NAAV?$fbxVectorTemplate4@V?$fbxVectorTemplate4@N@fbxsdk_20100@@@0@ABH@Z
	??$fbxCopy@VKTime@fbxsdk_20100@@H@fbxsdk_20100@@YA_NAAVKTime@0@ABH@Z
	??$fbxCopy@V?$fbxVectorTemplate4@V?$fbxVectorTemplate4@N@fbxsdk_20100@@@fbxsdk_20100@@M@fbxsdk_20100@@YA_NAAV?$fbxVectorTemplate4@V?$fbxVectorTemplate4@N@fbxsdk_20100@@@0@ABM@Z
	??$fbxCopy@VKTime@fbxsdk_20100@@M@fbxsdk_20100@@YA_NAAVKTime@0@ABM@Z
	??$fbxCopy@V?$fbxVectorTemplate4@V?$fbxVectorTemplate4@N@fbxsdk_20100@@@fbxsdk_20100@@N@fbxsdk_20100@@YA_NAAV?$fbxVectorTemplate4@V?$fbxVectorTemplate4@N@fbxsdk_20100@@@0@ABN@Z
	??$fbxCopy@VKTime@fbxsdk_20100@@N@fbxsdk_20100@@YA_NAAVKTime@0@ABN@Z
	??$fbxCopy@V?$fbxVectorTemplate4@V?$fbxVectorTemplate4@N@fbxsdk_20100@@@fbxsdk_20100@@V?$fbxVectorTemplate2@N@2@@fbxsdk_20100@@YA_NAAV?$fbxVectorTemplate4@V?$fbxVectorTemplate4@N@fbxsdk_20100@@@0@ABV?$fbxVectorTemplate2@N@0@@Z
	??$fbxCopy@VKTime@fbxsdk_20100@@V?$fbxVectorTemplate2@N@2@@fbxsdk_20100@@YA_NAAVKTime@0@ABV?$fbxVectorTemplate2@N@0@@Z
	??$fbxCopy@V?$fbxVectorTemplate2@N@fbxsdk_20100@@V?$fbxVectorTemplate3@N@2@@fbxsdk_20100@@YA_NAAV?$fbxVectorTemplate2@N@0@ABV?$fbxVectorTemplate3@N@0@@Z
	??$fbxCopy@V?$fbxVectorTemplate4@V?$fbxVectorTemplate4@N@fbxsdk_20100@@@fbxsdk_20100@@V?$fbxVectorTemplate3@N@2@@fbxsdk_20100@@YA_NAAV?$fbxVectorTemplate4@V?$fbxVectorTemplate4@N@fbxsdk_20100@@@0@ABV?$fbxVectorTemplate3@N@0@@Z
	??$fbxCopy@VKTime@fbxsdk_20100@@V?$fbxVectorTemplate3@N@2@@fbxsdk_20100@@YA_NAAVKTime@0@ABV?$fbxVectorTemplate3@N@0@@Z
	??$fbxCopy@V?$fbxVectorTemplate2@N@fbxsdk_20100@@V?$fbxVectorTemplate4@N@2@@fbxsdk_20100@@YA_NAAV?$fbxVectorTemplate2@N@0@ABV?$fbxVectorTemplate4@N@0@@Z
	??$fbxCopy@V?$fbxVectorTemplate4@V?$fbxVectorTemplate4@N@fbxsdk_20100@@@fbxsdk_20100@@V?$fbxVectorTemplate4@N@2@@fbxsdk_20100@@YA_NAAV?$fbxVectorTemplate4@V?$fbxVectorTemplate4@N@fbxsdk_20100@@@0@ABV?$fbxVectorTemplate4@N@0@@Z
	??$fbxCopy@VKTime@fbxsdk_20100@@V?$fbxVectorTemplate4@N@2@@fbxsdk_20100@@YA_NAAVKTime@0@ABV?$fbxVectorTemplate4@N@0@@Z
	??$fbxCopy@V?$fbxVectorTemplate2@N@fbxsdk_20100@@V?$fbxVectorTemplate4@V?$fbxVectorTemplate4@N@fbxsdk_20100@@@2@@fbxsdk_20100@@YA_NAAV?$fbxVectorTemplate2@N@0@ABV?$fbxVectorTemplate4@V?$fbxVectorTemplate4@N@fbxsdk_20100@@@0@@Z
	??$fbxCopy@VKTime@fbxsdk_20100@@V?$fbxVectorTemplate4@V?$fbxVectorTemplate4@N@fbxsdk_20100@@@2@@fbxsdk_20100@@YA_NAAVKTime@0@ABV?$fbxVectorTemplate4@V?$fbxVectorTemplate4@N@fbxsdk_20100@@@0@@Z
	??$fbxCopy@V?$fbxVectorTemplate2@N@fbxsdk_20100@@VKString@2@@fbxsdk_20100@@YA_NAAV?$fbxVectorTemplate2@N@0@ABVKString@0@@Z
	??$fbxCopy@V?$fbxVectorTemplate4@V?$fbxVectorTemplate4@N@fbxsdk_20100@@@fbxsdk_20100@@VKString@2@@fbxsdk_20100@@YA_NAAV?$fbxVectorTemplate4@V?$fbxVectorTemplate4@N@fbxsdk_20100@@@0@ABVKString@0@@Z
	??$fbxCopy@VKTime@fbxsdk_20100@@VKString@2@@fbxsdk_20100@@YA_NAAVKTime@0@ABVKString@0@@Z
	??$fbxCopy@V?$fbxVectorTemplate2@N@fbxsdk_20100@@VKTime@2@@fbxsdk_20100@@YA_NAAV?$fbxVectorTemplate2@N@0@ABVKTime@0@@Z
	??$fbxCopy@V?$fbxVectorTemplate4@V?$fbxVectorTemplate4@N@fbxsdk_20100@@@fbxsdk_20100@@VKTime@2@@fbxsdk_20100@@YA_NAAV?$fbxVectorTemplate4@V?$fbxVectorTemplate4@N@fbxsdk_20100@@@0@ABVKTime@0@@Z
	??$fbxCopy@NVfbxBlob@fbxsdk_20100@@@fbxsdk_20100@@YA_NAANABVfbxBlob@0@@Z
	??$fbxCopy@V?$fbxVectorTemplate2@N@fbxsdk_20100@@VfbxBlob@2@@fbxsdk_20100@@YA_NAAV?$fbxVectorTemplate2@N@0@ABVfbxBlob@0@@Z
	??$fbxCopy@V?$fbxVectorTemplate4@V?$fbxVectorTemplate4@N@fbxsdk_20100@@@fbxsdk_20100@@VfbxBlob@2@@fbxsdk_20100@@YA_NAAV?$fbxVectorTemplate4@V?$fbxVectorTemplate4@N@fbxsdk_20100@@@0@ABVfbxBlob@0@@Z
	??$fbxCopy@VKTime@fbxsdk_20100@@VfbxBlob@2@@fbxsdk_20100@@YA_NAAVKTime@0@ABVfbxBlob@0@@Z
	??$fbxCopy@V?$fbxVectorTemplate2@N@fbxsdk_20100@@VfbxDistance@2@@fbxsdk_20100@@YA_NAAV?$fbxVectorTemplate2@N@0@ABVfbxDistance@0@@Z
	??$fbxCopy@V?$fbxVectorTemplate4@V?$fbxVectorTemplate4@N@fbxsdk_20100@@@fbxsdk_20100@@VfbxDistance@2@@fbxsdk_20100@@YA_NAAV?$fbxVectorTemplate4@V?$fbxVectorTemplate4@N@fbxsdk_20100@@@0@ABVfbxDistance@0@@Z
	??$fbxCopy@VKTime@fbxsdk_20100@@VfbxDistance@2@@fbxsdk_20100@@YA_NAAVKTime@0@ABVfbxDistance@0@@Z
	??$fbxCopy@NVfbxDateTime@fbxsdk_20100@@@fbxsdk_20100@@YA_NAANABVfbxDateTime@0@@Z
	??$fbxCopy@V?$fbxVectorTemplate2@N@fbxsdk_20100@@VfbxDateTime@2@@fbxsdk_20100@@YA_NAAV?$fbxVectorTemplate2@N@0@ABVfbxDateTime@0@@Z
	??$fbxCopy@V?$fbxVectorTemplate4@V?$fbxVectorTemplate4@N@fbxsdk_20100@@@fbxsdk_20100@@VfbxDateTime@2@@fbxsdk_20100@@YA_NAAV?$fbxVectorTemplate4@V?$fbxVectorTemplate4@N@fbxsdk_20100@@@0@ABVfbxDateTime@0@@Z
	??$fbxCopy@VKTime@fbxsdk_20100@@VfbxDateTime@2@@fbxsdk_20100@@YA_NAAVKTime@0@ABVfbxDateTime@0@@Z
	??$_FbxTypeOf@I@fbxsdk_20100@@YA?AW4EFbxType@0@ABQAI@Z
	??$_FbxTypeOf@VKFbxLayerElementArray@fbxsdk_20100@@@fbxsdk_20100@@YA?AW4EFbxType@0@ABQAVKFbxLayerElementArray@0@@Z
	??$_FbxTypeOf@VKFbxSurfaceMaterial@fbxsdk_20100@@@fbxsdk_20100@@YA?AW4EFbxType@0@ABQAVKFbxSurfaceMaterial@0@@Z
	??$_FbxTypeOf@VKFbxTexture@fbxsdk_20100@@@fbxsdk_20100@@YA?AW4EFbxType@0@ABQAVKFbxTexture@0@@Z
	??0fbxHalfFloat@fbxsdk_20100@@QAE@M@Z
	?value@fbxHalfFloat@fbxsdk_20100@@QBE?BMXZ
	?fbxCopy@fbxsdk_20100@@YA_NAAV?$fbxVectorTemplate2@N@1@ABV21@@Z
	?fbxCopy@fbxsdk_20100@@YA_NAAV?$fbxVectorTemplate3@N@1@ABV21@@Z
	?fbxCopy@fbxsdk_20100@@YA_NAAV?$fbxVectorTemplate4@N@1@ABV21@@Z
	?fbxCopy@fbxsdk_20100@@YA_NAAV?$fbxVectorTemplate4@V?$fbxVectorTemplate4@N@fbxsdk_20100@@@1@ABV21@@Z
	?fbxCopy@fbxsdk_20100@@YA_NAAVfbxHalfFloat@1@ABD@Z
	?fbxCopy@fbxsdk_20100@@YA_NAAVfbxHalfFloat@1@ABE@Z
	?fbxCopy@fbxsdk_20100@@YA_NAAVfbxHalfFloat@1@ABF@Z
	?fbxCopy@fbxsdk_20100@@YA_NAAVfbxHalfFloat@1@ABG@Z
	?fbxCopy@fbxsdk_20100@@YA_NAAVfbxHalfFloat@1@ABI@Z
	?fbxCopy@fbxsdk_20100@@YA_NAAVfbxHalfFloat@1@AB_J@Z
	?fbxCopy@fbxsdk_20100@@YA_NAAVfbxHalfFloat@1@AB_K@Z
	?fbxCopy@fbxsdk_20100@@YA_NAAVfbxHalfFloat@1@AB_N@Z
	?fbxCopy@fbxsdk_20100@@YA_NAAVfbxHalfFloat@1@ABH@Z
	?fbxCopy@fbxsdk_20100@@YA_NAAVfbxHalfFloat@1@ABM@Z
	?fbxCopy@fbxsdk_20100@@YA_NAAVfbxHalfFloat@1@ABN@Z
	?fbxCopy@fbxsdk_20100@@YA_NAAVfbxHalfFloat@1@ABVfbxDistance@1@@Z
	?fbxCopy@fbxsdk_20100@@YA_NAAMABVfbxHalfFloat@1@@Z
	?fbxCopy@fbxsdk_20100@@YA_NAANABVfbxHalfFloat@1@@Z
	?fbxCopy@fbxsdk_20100@@YA_NAANABV?$fbxVectorTemplate2@N@1@@Z
	?fbxCopy@fbxsdk_20100@@YA_NAANABV?$fbxVectorTemplate3@N@1@@Z
	?fbxCopy@fbxsdk_20100@@YA_NAANABV?$fbxVectorTemplate4@N@1@@Z
	?fbxCopy@fbxsdk_20100@@YA_NAANABV?$fbxVectorTemplate4@V?$fbxVectorTemplate4@N@fbxsdk_20100@@@1@@Z
	?fbxCopy@fbxsdk_20100@@YA_NAAV?$fbxVectorTemplate2@N@1@ABD@Z
	?fbxCopy@fbxsdk_20100@@YA_NAAV?$fbxVectorTemplate2@N@1@ABE@Z
	?fbxCopy@fbxsdk_20100@@YA_NAAV?$fbxVectorTemplate2@N@1@ABF@Z
	?fbxCopy@fbxsdk_20100@@YA_NAAV?$fbxVectorTemplate2@N@1@ABG@Z
	?fbxCopy@fbxsdk_20100@@YA_NAAV?$fbxVectorTemplate2@N@1@ABI@Z
	?fbxCopy@fbxsdk_20100@@YA_NAAV?$fbxVectorTemplate2@N@1@AB_J@Z
	?fbxCopy@fbxsdk_20100@@YA_NAAV?$fbxVectorTemplate2@N@1@AB_K@Z
	?fbxCopy@fbxsdk_20100@@YA_NAAV?$fbxVectorTemplate2@N@1@ABVfbxHalfFloat@1@@Z
	?fbxCopy@fbxsdk_20100@@YA_NAAV?$fbxVectorTemplate2@N@1@AB_N@Z
	?fbxCopy@fbxsdk_20100@@YA_NAAV?$fbxVectorTemplate2@N@1@ABH@Z
	?fbxCopy@fbxsdk_20100@@YA_NAAV?$fbxVectorTemplate2@N@1@ABM@Z
	?fbxCopy@fbxsdk_20100@@YA_NAAV?$fbxVectorTemplate2@N@1@ABN@Z
	?fbxCopy@fbxsdk_20100@@YA_NAAV?$fbxVectorTemplate3@N@1@ABD@Z
	?fbxCopy@fbxsdk_20100@@YA_NAAV?$fbxVectorTemplate3@N@1@ABE@Z
	?fbxCopy@fbxsdk_20100@@YA_NAAV?$fbxVectorTemplate3@N@1@ABF@Z
	?fbxCopy@fbxsdk_20100@@YA_NAAV?$fbxVectorTemplate3@N@1@ABG@Z
	?fbxCopy@fbxsdk_20100@@YA_NAAV?$fbxVectorTemplate3@N@1@ABI@Z
	?fbxCopy@fbxsdk_20100@@YA_NAAV?$fbxVectorTemplate3@N@1@AB_J@Z
	?fbxCopy@fbxsdk_20100@@YA_NAAV?$fbxVectorTemplate3@N@1@AB_K@Z
	?fbxCopy@fbxsdk_20100@@YA_NAAV?$fbxVectorTemplate3@N@1@ABVfbxHalfFloat@1@@Z
	?fbxCopy@fbxsdk_20100@@YA_NAAV?$fbxVectorTemplate3@N@1@AB_N@Z
	?fbxCopy@fbxsdk_20100@@YA_NAAV?$fbxVectorTemplate3@N@1@ABH@Z
	?fbxCopy@fbxsdk_20100@@YA_NAAV?$fbxVectorTemplate3@N@1@ABM@Z
	?fbxCopy@fbxsdk_20100@@YA_NAAV?$fbxVectorTemplate3@N@1@ABN@Z
	?fbxCopy@fbxsdk_20100@@YA_NAAV?$fbxVectorTemplate3@N@1@ABV?$fbxVectorTemplate4@N@1@@Z
	?fbxCopy@fbxsdk_20100@@YA_NAAV?$fbxVectorTemplate4@N@1@ABV?$fbxVectorTemplate3@N@1@@Z
	?fbxCopy@fbxsdk_20100@@YA_NAAVKString@1@ABVfbxHalfFloat@1@@Z
	?fbxCopy@fbxsdk_20100@@YA_NAAVKString@1@ABV?$fbxVectorTemplate2@N@1@@Z
	?fbxCopy@fbxsdk_20100@@YA_NAAVKString@1@ABV?$fbxVectorTemplate3@N@1@@Z
	?fbxCopy@fbxsdk_20100@@YA_NAAVKString@1@ABV?$fbxVectorTemplate4@N@1@@Z
	?fbxCopy@fbxsdk_20100@@YA_NAAVKString@1@ABV?$fbxVectorTemplate4@V?$fbxVectorTemplate4@N@fbxsdk_20100@@@1@@Z
	??0KFbxLayerElementSmoothing@fbxsdk_20100@@IAE@XZ
	??_7KFbxLayerElementSmoothing@fbxsdk_20100@@6B@
	??_R4KFbxLayerElementSmoothing@fbxsdk_20100@@6B@
	??_R0?AVKFbxLayerElementSmoothing@fbxsdk_20100@@@8
	??_R3KFbxLayerElementSmoothing@fbxsdk_20100@@8
	??_R2KFbxLayerElementSmoothing@fbxsdk_20100@@8
	??_R1A@?0A@EA@KFbxLayerElementSmoothing@fbxsdk_20100@@8
	??1KFbxLayerElementSmoothing@fbxsdk_20100@@UAE@XZ
	??0KFbxLayerElementCrease@fbxsdk_20100@@IAE@XZ
	??_7KFbxLayerElementCrease@fbxsdk_20100@@6B@
	??_R4KFbxLayerElementCrease@fbxsdk_20100@@6B@
	??_R0?AVKFbxLayerElementCrease@fbxsdk_20100@@@8
	??_R3KFbxLayerElementCrease@fbxsdk_20100@@8
	??_R2KFbxLayerElementCrease@fbxsdk_20100@@8
	??_R1A@?0A@EA@KFbxLayerElementCrease@fbxsdk_20100@@8
	??1KFbxLayerElementCrease@fbxsdk_20100@@UAE@XZ
	??0KFbxLayerElementTexture@fbxsdk_20100@@IAE@XZ
	??_7KFbxLayerElementTexture@fbxsdk_20100@@6B@
	??_R4KFbxLayerElementTexture@fbxsdk_20100@@6B@
	??_R0?AVKFbxLayerElementTexture@fbxsdk_20100@@@8
	??_R3KFbxLayerElementTexture@fbxsdk_20100@@8
	??_R2KFbxLayerElementTexture@fbxsdk_20100@@8
	??_R1A@?0A@EA@KFbxLayerElementTexture@fbxsdk_20100@@8
	??1KFbxLayerElementTexture@fbxsdk_20100@@UAE@XZ
	??0KFbxLayerElementNormal@fbxsdk_20100@@IAE@XZ
	??_7KFbxLayerElementNormal@fbxsdk_20100@@6B@
	??_R4KFbxLayerElementNormal@fbxsdk_20100@@6B@
	??_R0?AVKFbxLayerElementNormal@fbxsdk_20100@@@8
	??_R3KFbxLayerElementNormal@fbxsdk_20100@@8
	??_R2KFbxLayerElementNormal@fbxsdk_20100@@8
	??_R1A@?0A@EA@KFbxLayerElementNormal@fbxsdk_20100@@8
	??1KFbxLayerElementNormal@fbxsdk_20100@@MAE@XZ
	?Create@KFbxLayerElementNormal@fbxsdk_20100@@SAPAV12@PAVKFbxLayerContainer@2@PBD@Z
	??0KFbxLayerElementBinormal@fbxsdk_20100@@IAE@XZ
	??_7KFbxLayerElementBinormal@fbxsdk_20100@@6B@
	??_R4KFbxLayerElementBinormal@fbxsdk_20100@@6B@
	??_R0?AVKFbxLayerElementBinormal@fbxsdk_20100@@@8
	??_R3KFbxLayerElementBinormal@fbxsdk_20100@@8
	??_R2KFbxLayerElementBinormal@fbxsdk_20100@@8
	??_R1A@?0A@EA@KFbxLayerElementBinormal@fbxsdk_20100@@8
	??1KFbxLayerElementBinormal@fbxsdk_20100@@MAE@XZ
	?Create@KFbxLayerElementBinormal@fbxsdk_20100@@SAPAV12@PAVKFbxLayerContainer@2@PBD@Z
	??0KFbxLayerElementTangent@fbxsdk_20100@@IAE@XZ
	??_7KFbxLayerElementTangent@fbxsdk_20100@@6B@
	??_R4KFbxLayerElementTangent@fbxsdk_20100@@6B@
	??_R0?AVKFbxLayerElementTangent@fbxsdk_20100@@@8
	??_R3KFbxLayerElementTangent@fbxsdk_20100@@8
	??_R2KFbxLayerElementTangent@fbxsdk_20100@@8
	??_R1A@?0A@EA@KFbxLayerElementTangent@fbxsdk_20100@@8
	??1KFbxLayerElementTangent@fbxsdk_20100@@MAE@XZ
	?Create@KFbxLayerElementTangent@fbxsdk_20100@@SAPAV12@PAVKFbxLayerContainer@2@PBD@Z
	??0KFbxLayerElementMaterial@fbxsdk_20100@@IAE@XZ
	??_7KFbxLayerElementMaterial@fbxsdk_20100@@6B@
	??_R4KFbxLayerElementMaterial@fbxsdk_20100@@6B@
	??_R0?AVKFbxLayerElementMaterial@fbxsdk_20100@@@8
	??_R3KFbxLayerElementMaterial@fbxsdk_20100@@8
	??_R2KFbxLayerElementMaterial@fbxsdk_20100@@8
	??_R1A@?0A@EA@KFbxLayerElementMaterial@fbxsdk_20100@@8
	?SetInstance@KFbxLayerElementMaterial@fbxsdk_20100@@UAEXH@Z
	??1KFbxLayerElementMaterial@fbxsdk_20100@@MAE@XZ
	?Create@KFbxLayerElementMaterial@fbxsdk_20100@@SAPAV12@PAVKFbxLayerContainer@2@PBD@Z
	?SetOwner@KFbxLayerElementMaterial@fbxsdk_20100@@UAEXPAVKFbxLayerContainer@2@H@Z
	??0KFbxLayerElementPolygonGroup@fbxsdk_20100@@IAE@XZ
	??_7KFbxLayerElementPolygonGroup@fbxsdk_20100@@6B@
	??_R4KFbxLayerElementPolygonGroup@fbxsdk_20100@@6B@
	??_R0?AVKFbxLayerElementPolygonGroup@fbxsdk_20100@@@8
	??_R3KFbxLayerElementPolygonGroup@fbxsdk_20100@@8
	??_R2KFbxLayerElementPolygonGroup@fbxsdk_20100@@8
	??_R1A@?0A@EA@KFbxLayerElementPolygonGroup@fbxsdk_20100@@8
	??1KFbxLayerElementPolygonGroup@fbxsdk_20100@@MAE@XZ
	?Create@KFbxLayerElementPolygonGroup@fbxsdk_20100@@SAPAV12@PAVKFbxLayerContainer@2@PBD@Z
	??0KFbxLayerElementUV@fbxsdk_20100@@IAE@XZ
	??_7KFbxLayerElementUV@fbxsdk_20100@@6B@
	??_R4KFbxLayerElementUV@fbxsdk_20100@@6B@
	??_R0?AVKFbxLayerElementUV@fbxsdk_20100@@@8
	??_R3KFbxLayerElementUV@fbxsdk_20100@@8
	??_R2KFbxLayerElementUV@fbxsdk_20100@@8
	??_R1A@?0A@EA@KFbxLayerElementUV@fbxsdk_20100@@8
	??1KFbxLayerElementUV@fbxsdk_20100@@MAE@XZ
	?Create@KFbxLayerElementUV@fbxsdk_20100@@SAPAV12@PAVKFbxLayerContainer@2@PBD@Z
	??0KFbxLayerElementVertexColor@fbxsdk_20100@@IAE@XZ
	??_7KFbxLayerElementVertexColor@fbxsdk_20100@@6B@
	??_R4KFbxLayerElementVertexColor@fbxsdk_20100@@6B@
	??_R0?AVKFbxLayerElementVertexColor@fbxsdk_20100@@@8
	??_R3KFbxLayerElementVertexColor@fbxsdk_20100@@8
	??_R2KFbxLayerElementVertexColor@fbxsdk_20100@@8
	??_R1A@?0A@EA@KFbxLayerElementVertexColor@fbxsdk_20100@@8
	??1KFbxLayerElementVertexColor@fbxsdk_20100@@MAE@XZ
	?Create@KFbxLayerElementVertexColor@fbxsdk_20100@@SAPAV12@PAVKFbxLayerContainer@2@PBD@Z
	?Create@KFbxLayerElementSmoothing@fbxsdk_20100@@SAPAV12@PAVKFbxLayerContainer@2@PBD@Z
	?Create@KFbxLayerElementCrease@fbxsdk_20100@@SAPAV12@PAVKFbxLayerContainer@2@PBD@Z
	??0KFbxLayerElementVisibility@fbxsdk_20100@@IAE@XZ
	??_7KFbxLayerElementVisibility@fbxsdk_20100@@6B@
	??_R4KFbxLayerElementVisibility@fbxsdk_20100@@6B@
	??_R0?AVKFbxLayerElementVisibility@fbxsdk_20100@@@8
	??_R3KFbxLayerElementVisibility@fbxsdk_20100@@8
	??_R2KFbxLayerElementVisibility@fbxsdk_20100@@8
	??_R1A@?0A@EA@KFbxLayerElementVisibility@fbxsdk_20100@@8
	??1KFbxLayerElementVisibility@fbxsdk_20100@@MAE@XZ
	?Create@KFbxLayerElementVisibility@fbxsdk_20100@@SAPAV12@PAVKFbxLayerContainer@2@PBD@Z
	?Create@KFbxLayerElementTexture@fbxsdk_20100@@SAPAV12@PAVKFbxLayerContainer@2@PBD@Z
	?Clear@LayerElementArrayImp@fbxsdk_20100@@QAEXXZ
	?ItemSize@LayerElementArrayImp@fbxsdk_20100@@QBEHXZ
	?GetArray@LayerElementArrayImp@fbxsdk_20100@@QAEPAXXZ
	?GetDataPtr@KFbxLayerElementArray@fbxsdk_20100@@IAEPAXXZ
	?Clear@KFbxLayerElementArray@fbxsdk_20100@@QAEXXZ
	??0?$KArrayTemplate@PAX@fbxsdk_20100@@QAE@XZ
	??1?$KArrayTemplate@PAX@fbxsdk_20100@@QAE@XZ
	?GetAt@?$KArrayTemplate@PAX@fbxsdk_20100@@QBEPAXH@Z
	?Clear@?$KFbxLayerElementTemplate@VKFbxVector4@fbxsdk_20100@@@fbxsdk_20100@@QAE_NXZ
	?Clear@?$KFbxLayerElementTemplate@PAVKFbxSurfaceMaterial@fbxsdk_20100@@@fbxsdk_20100@@QAE_NXZ
	?Clear@?$KFbxLayerElementTemplate@H@fbxsdk_20100@@QAE_NXZ
	?Clear@?$KFbxLayerElementTemplate@VKFbxVector2@fbxsdk_20100@@@fbxsdk_20100@@QAE_NXZ
	?Clear@?$KFbxLayerElementTemplate@VKFbxColor@fbxsdk_20100@@@fbxsdk_20100@@QAE_NXZ
	?Clear@?$KFbxLayerElementTemplate@PAX@fbxsdk_20100@@QAE_NXZ
	??0?$KArrayTemplate@VKFbxDataType@fbxsdk_20100@@@fbxsdk_20100@@QAE@XZ
	??1?$KArrayTemplate@VKFbxDataType@fbxsdk_20100@@@fbxsdk_20100@@QAE@XZ
	??A?$KArrayTemplate@VKFbxDataType@fbxsdk_20100@@@fbxsdk_20100@@QBEAAVKFbxDataType@1@H@Z
	??0?$KArrayTemplate@PAVKString@fbxsdk_20100@@@fbxsdk_20100@@QAE@XZ
	??1?$KArrayTemplate@PAVKString@fbxsdk_20100@@@fbxsdk_20100@@QAE@XZ
	??A?$KArrayTemplate@PAVKString@fbxsdk_20100@@@fbxsdk_20100@@QBEAAPAVKString@1@H@Z
	?GetAt@?$KArrayTemplate@H@fbxsdk_20100@@QBEHH@Z
	??A?$KArrayTemplate@PBD@fbxsdk_20100@@QBEAAPBDH@Z
	?Clear@?$KFbxLayerElementTemplate@N@fbxsdk_20100@@QAE_NXZ
	?Clear@?$KFbxLayerElementTemplate@_N@fbxsdk_20100@@QAE_NXZ
	?Clear@?$KFbxLayerElementTemplate@PAVKFbxTexture@fbxsdk_20100@@@fbxsdk_20100@@QAE_NXZ
	??A?$KArrayTemplate@UKFbxPolygon@KFbxMesh@fbxsdk_20100@@@fbxsdk_20100@@QBEAAUKFbxPolygon@KFbxMesh@1@H@Z
	??0?$KArrayTemplate@W4ELayerElementType@KFbxLayerElement@fbxsdk_20100@@@fbxsdk_20100@@QAE@XZ
	??1?$KArrayTemplate@W4ELayerElementType@KFbxLayerElement@fbxsdk_20100@@@fbxsdk_20100@@QAE@XZ
	??0?$KArrayTemplate@PBVKFbxLayerElementUV@fbxsdk_20100@@@fbxsdk_20100@@QAE@XZ
	??1?$KArrayTemplate@PBVKFbxLayerElementUV@fbxsdk_20100@@@fbxsdk_20100@@QAE@XZ
	??1?$KBaseArray@VKBaseArraySize@fbxsdk_20100@@@fbxsdk_20100@@IAE@XZ
	?GetAt@?$KBaseArray@VKBaseArraySize@fbxsdk_20100@@@fbxsdk_20100@@IAEPAXH@Z
	?GetArrayCount@?$KBaseArray@V?$KBaseArraySizeType@PAX@fbxsdk_20100@@@fbxsdk_20100@@IBEHXZ
	?GetArray@?$KArrayTemplate@VKFbxDataType@fbxsdk_20100@@@fbxsdk_20100@@QBEPAVKFbxDataType@2@XZ
	?GetTypeSize@?$KBaseArray@V?$KBaseArraySizeType@VKFbxDataType@fbxsdk_20100@@@fbxsdk_20100@@@fbxsdk_20100@@QBEHXZ
	?GetArrayCount@?$KBaseArray@V?$KBaseArraySizeType@VKFbxDataType@fbxsdk_20100@@@fbxsdk_20100@@@fbxsdk_20100@@IBEHXZ
	?SetArrayCount@?$KBaseArray@V?$KBaseArraySizeType@VKFbxDataType@fbxsdk_20100@@@fbxsdk_20100@@@fbxsdk_20100@@IAEXH@Z
	?GetBlockCount@?$KBaseArray@V?$KBaseArraySizeType@VKFbxDataType@fbxsdk_20100@@@fbxsdk_20100@@@fbxsdk_20100@@IBEHXZ
	?SetBlockCount@?$KBaseArray@V?$KBaseArraySizeType@VKFbxDataType@fbxsdk_20100@@@fbxsdk_20100@@@fbxsdk_20100@@IAEXH@Z
	?GetArray@?$KArrayTemplate@PAVKString@fbxsdk_20100@@@fbxsdk_20100@@QBEPAPAVKString@2@XZ
	?GetTypeSize@?$KBaseArray@V?$KBaseArraySizeType@PAVKString@fbxsdk_20100@@@fbxsdk_20100@@@fbxsdk_20100@@QBEHXZ
	?GetArrayCount@?$KBaseArray@V?$KBaseArraySizeType@PAVKString@fbxsdk_20100@@@fbxsdk_20100@@@fbxsdk_20100@@IBEHXZ
	?SetArrayCount@?$KBaseArray@V?$KBaseArraySizeType@PAVKString@fbxsdk_20100@@@fbxsdk_20100@@@fbxsdk_20100@@IAEXH@Z
	?GetBlockCount@?$KBaseArray@V?$KBaseArraySizeType@PAVKString@fbxsdk_20100@@@fbxsdk_20100@@@fbxsdk_20100@@IBEHXZ
	?SetBlockCount@?$KBaseArray@V?$KBaseArraySizeType@PAVKString@fbxsdk_20100@@@fbxsdk_20100@@@fbxsdk_20100@@IAEXH@Z
	?GetArray@?$KArrayTemplate@H@fbxsdk_20100@@QBEPAHXZ
	??1?$KBaseArray@V?$KBaseArraySizeType@H@fbxsdk_20100@@@fbxsdk_20100@@IAE@XZ
	?GetTypeSize@?$KBaseArray@V?$KBaseArraySizeType@H@fbxsdk_20100@@@fbxsdk_20100@@QBEHXZ
	?GetArrayCount@?$KBaseArray@V?$KBaseArraySizeType@H@fbxsdk_20100@@@fbxsdk_20100@@IBEHXZ
	?SetArrayCount@?$KBaseArray@V?$KBaseArraySizeType@H@fbxsdk_20100@@@fbxsdk_20100@@IAEXH@Z
	?GetBlockCount@?$KBaseArray@V?$KBaseArraySizeType@H@fbxsdk_20100@@@fbxsdk_20100@@IBEHXZ
	?SetBlockCount@?$KBaseArray@V?$KBaseArraySizeType@H@fbxsdk_20100@@@fbxsdk_20100@@IAEXH@Z
	?GetArrayCount@?$KBaseArray@V?$KBaseArraySizeType@PBD@fbxsdk_20100@@@fbxsdk_20100@@IBEHXZ
	?GetArrayCount@?$KBaseArray@V?$KBaseArraySizeType@UKFbxPolygon@KFbxMesh@fbxsdk_20100@@@fbxsdk_20100@@@fbxsdk_20100@@IBEHXZ
	?GetArrayCount@?$KBaseArray@V?$KBaseArraySizeType@W4ELayerElementType@KFbxLayerElement@fbxsdk_20100@@@fbxsdk_20100@@@fbxsdk_20100@@IBEHXZ
	?GetArrayCount@?$KBaseArray@V?$KBaseArraySizeType@PBVKFbxLayerElementUV@fbxsdk_20100@@@fbxsdk_20100@@@fbxsdk_20100@@IBEHXZ
	?GetArrayCount@?$KBaseArray@VKBaseArraySize@fbxsdk_20100@@@fbxsdk_20100@@IBEHXZ
	?SetArrayCount@?$KBaseArray@VKBaseArraySize@fbxsdk_20100@@@fbxsdk_20100@@IAEXH@Z
	?GetBlockCount@?$KBaseArray@VKBaseArraySize@fbxsdk_20100@@@fbxsdk_20100@@IBEHXZ
	?SetBlockCount@?$KBaseArray@VKBaseArraySize@fbxsdk_20100@@@fbxsdk_20100@@IAEXH@Z
	?InsertAt@?$KBaseArray@V?$KBaseArraySizeType@PAVKString@fbxsdk_20100@@@fbxsdk_20100@@@fbxsdk_20100@@IAEHHPAX@Z
	??A?$KArrayTemplate@W4ELayerElementType@KFbxLayerElement@fbxsdk_20100@@@fbxsdk_20100@@QBEAAW4ELayerElementType@KFbxLayerElement@1@H@Z
	?GetCount@?$KBaseArray@V?$KBaseArraySizeType@W4ELayerElementType@KFbxLayerElement@fbxsdk_20100@@@fbxsdk_20100@@@fbxsdk_20100@@QBEHXZ
	??A?$KArrayTemplate@PBVKFbxLayerElementUV@fbxsdk_20100@@@fbxsdk_20100@@QBEAAPBVKFbxLayerElementUV@1@H@Z
	?GetCount@?$KBaseArray@V?$KBaseArraySizeType@PBVKFbxLayerElementUV@fbxsdk_20100@@@fbxsdk_20100@@@fbxsdk_20100@@QBEHXZ
	?GetTypeSize@?$KBaseArray@V?$KBaseArraySizeType@PAX@fbxsdk_20100@@@fbxsdk_20100@@QBEHXZ
	?SetArrayCount@?$KBaseArray@V?$KBaseArraySizeType@PAX@fbxsdk_20100@@@fbxsdk_20100@@IAEXH@Z
	?SetBlockCount@?$KBaseArray@V?$KBaseArraySizeType@PAX@fbxsdk_20100@@@fbxsdk_20100@@IAEXH@Z
	?GetTypeSize@?$KBaseArray@V?$KBaseArraySizeType@W4ELayerElementType@KFbxLayerElement@fbxsdk_20100@@@fbxsdk_20100@@@fbxsdk_20100@@QBEHXZ
	?SetArrayCount@?$KBaseArray@V?$KBaseArraySizeType@W4ELayerElementType@KFbxLayerElement@fbxsdk_20100@@@fbxsdk_20100@@@fbxsdk_20100@@IAEXH@Z
	?SetBlockCount@?$KBaseArray@V?$KBaseArraySizeType@W4ELayerElementType@KFbxLayerElement@fbxsdk_20100@@@fbxsdk_20100@@@fbxsdk_20100@@IAEXH@Z
	?GetTypeSize@?$KBaseArray@V?$KBaseArraySizeType@PBVKFbxLayerElementUV@fbxsdk_20100@@@fbxsdk_20100@@@fbxsdk_20100@@QBEHXZ
	?SetArrayCount@?$KBaseArray@V?$KBaseArraySizeType@PBVKFbxLayerElementUV@fbxsdk_20100@@@fbxsdk_20100@@@fbxsdk_20100@@IAEXH@Z
	?SetBlockCount@?$KBaseArray@V?$KBaseArraySizeType@PBVKFbxLayerElementUV@fbxsdk_20100@@@fbxsdk_20100@@@fbxsdk_20100@@IAEXH@Z
	?InsertAt@?$KBaseArray@V?$KBaseArraySizeType@VKFbxDataType@fbxsdk_20100@@@fbxsdk_20100@@@fbxsdk_20100@@IAEHHPAX@Z
	??$fbxCopy@D@fbxsdk_20100@@YA_NPAXW4EFbxType@0@ABD@Z
	??$fbxCopy@E@fbxsdk_20100@@YA_NPAXW4EFbxType@0@ABE@Z
	??$fbxCopy@F@fbxsdk_20100@@YA_NPAXW4EFbxType@0@ABF@Z
	??$fbxCopy@G@fbxsdk_20100@@YA_NPAXW4EFbxType@0@ABG@Z
	??$fbxCopy@I@fbxsdk_20100@@YA_NPAXW4EFbxType@0@ABI@Z
	??$fbxCopy@_J@fbxsdk_20100@@YA_NPAXW4EFbxType@0@AB_J@Z
	??$fbxCopy@_K@fbxsdk_20100@@YA_NPAXW4EFbxType@0@AB_K@Z
	??$fbxCopy@VfbxHalfFloat@fbxsdk_20100@@@fbxsdk_20100@@YA_NPAXW4EFbxType@0@ABVfbxHalfFloat@0@@Z
	??$fbxCopy@_N@fbxsdk_20100@@YA_NPAXW4EFbxType@0@AB_N@Z
	??$fbxCopy@H@fbxsdk_20100@@YA_NPAXW4EFbxType@0@ABH@Z
	??$fbxCopy@M@fbxsdk_20100@@YA_NPAXW4EFbxType@0@ABM@Z
	??$fbxCopy@N@fbxsdk_20100@@YA_NPAXW4EFbxType@0@ABN@Z
	??$fbxCopy@V?$fbxVectorTemplate2@N@fbxsdk_20100@@@fbxsdk_20100@@YA_NPAXW4EFbxType@0@ABV?$fbxVectorTemplate2@N@0@@Z
	??$fbxCopy@V?$fbxVectorTemplate3@N@fbxsdk_20100@@@fbxsdk_20100@@YA_NPAXW4EFbxType@0@ABV?$fbxVectorTemplate3@N@0@@Z
	??$fbxCopy@V?$fbxVectorTemplate4@N@fbxsdk_20100@@@fbxsdk_20100@@YA_NPAXW4EFbxType@0@ABV?$fbxVectorTemplate4@N@0@@Z
	??$fbxCopy@V?$fbxVectorTemplate4@V?$fbxVectorTemplate4@N@fbxsdk_20100@@@fbxsdk_20100@@@fbxsdk_20100@@YA_NPAXW4EFbxType@0@ABV?$fbxVectorTemplate4@V?$fbxVectorTemplate4@N@fbxsdk_20100@@@0@@Z
	??$fbxCopy@VKString@fbxsdk_20100@@@fbxsdk_20100@@YA_NPAXW4EFbxType@0@ABVKString@0@@Z
	??$fbxCopy@VKTime@fbxsdk_20100@@@fbxsdk_20100@@YA_NPAXW4EFbxType@0@ABVKTime@0@@Z
	??$fbxCopy@VfbxBlob@fbxsdk_20100@@@fbxsdk_20100@@YA_NPAXW4EFbxType@0@ABVfbxBlob@0@@Z
	??$fbxCopy@VfbxDistance@fbxsdk_20100@@@fbxsdk_20100@@YA_NPAXW4EFbxType@0@ABVfbxDistance@0@@Z
	??$fbxCopy@VfbxDateTime@fbxsdk_20100@@@fbxsdk_20100@@YA_NPAXW4EFbxType@0@ABVfbxDateTime@0@@Z
	??$GetLocked@PAI@KFbxLayerElementArray@fbxsdk_20100@@QAEPAPAIPAPAIW4ELockMode@01@@Z
	??$GetLocked@PAVKFbxLayerElementArray@fbxsdk_20100@@@KFbxLayerElementArray@fbxsdk_20100@@QAEPAPAV01@PAPAV01@W4ELockMode@01@@Z
	?fbxCopy@fbxsdk_20100@@YA_NPAXW4EFbxType@1@PBX1@Z
	??_GKFbxLayerElementSmoothing@fbxsdk_20100@@UAEPAXI@Z
	??_GKFbxLayerElementCrease@fbxsdk_20100@@UAEPAXI@Z
	??_GKFbxLayerElementTexture@fbxsdk_20100@@UAEPAXI@Z
	?CreateLayerElementOfType@KFbxLayer@fbxsdk_20100@@QAEPAVKFbxLayerElement@2@W4ELayerElementType@32@_N@Z
	?ContentReadFrom@KFbxLayer@fbxsdk_20100@@QAE_NABVKFbxStream@2@@Z
	??_GKFbxLayerElementNormal@fbxsdk_20100@@MAEPAXI@Z
	??_GKFbxLayerElementBinormal@fbxsdk_20100@@MAEPAXI@Z
	??_GKFbxLayerElementTangent@fbxsdk_20100@@MAEPAXI@Z
	??_GKFbxLayerElementMaterial@fbxsdk_20100@@MAEPAXI@Z
	??_GKFbxLayerElementPolygonGroup@fbxsdk_20100@@MAEPAXI@Z
	??_GKFbxLayerElementUV@fbxsdk_20100@@MAEPAXI@Z
	??_GKFbxLayerElementVertexColor@fbxsdk_20100@@MAEPAXI@Z
	??_GKFbxLayerElementVisibility@fbxsdk_20100@@MAEPAXI@Z
	??0LayerElementArrayImp@fbxsdk_20100@@QAE@I@Z
	??_7LayerElementArrayImp@fbxsdk_20100@@6B@
	??_R4LayerElementArrayImp@fbxsdk_20100@@6B@
	??_R0?AVLayerElementArrayImp@fbxsdk_20100@@@8
	??_R3LayerElementArrayImp@fbxsdk_20100@@8
	??_R2LayerElementArrayImp@fbxsdk_20100@@8
	??_R1A@?0A@EA@LayerElementArrayImp@fbxsdk_20100@@8
	??_R13?0A@EA@?$KBaseArray@VKBaseArraySize@fbxsdk_20100@@@fbxsdk_20100@@8
	??_R0?AV?$KBaseArray@VKBaseArraySize@fbxsdk_20100@@@fbxsdk_20100@@@8
	??_R3?$KBaseArray@VKBaseArraySize@fbxsdk_20100@@@fbxsdk_20100@@8
	??_R2?$KBaseArray@VKBaseArraySize@fbxsdk_20100@@@fbxsdk_20100@@8
	??_R1A@?0A@EA@?$KBaseArray@VKBaseArraySize@fbxsdk_20100@@@fbxsdk_20100@@8
	?UnlockPostProcess@LayerElementArrayImp@fbxsdk_20100@@UAEXXZ
	?LockPostProcess@LayerElementArrayImp@fbxsdk_20100@@UAEXXZ
	??1LayerElementArrayImp@fbxsdk_20100@@UAE@XZ
	?GetAt@LayerElementArrayImp@fbxsdk_20100@@QAEPAXH@Z
	??_GLayerElementArrayImp@fbxsdk_20100@@UAEPAXI@Z
	??0LayerElementArrayProxyImp@fbxsdk_20100@@QAE@I@Z
	??_7LayerElementArrayProxyImp@fbxsdk_20100@@6B@
	??_R4LayerElementArrayProxyImp@fbxsdk_20100@@6B@
	??_R0?AVLayerElementArrayProxyImp@fbxsdk_20100@@@8
	??_R3LayerElementArrayProxyImp@fbxsdk_20100@@8
	??_R2LayerElementArrayProxyImp@fbxsdk_20100@@8
	??_R1A@?0A@EA@LayerElementArrayProxyImp@fbxsdk_20100@@8
	?ConnectSrcObject@KFbxObject@fbxsdk_20100@@QAE_NPAV12@W4kFbxConnectionType@2@@Z
	?IsConnectedSrcObject@KFbxObject@fbxsdk_20100@@QBE_NPBV12@@Z
	??0?$KBaseArray@V?$KBaseArraySizeType@PAVKFbxSurfaceMaterial@fbxsdk_20100@@@fbxsdk_20100@@@fbxsdk_20100@@IAE@V?$KBaseArraySizeType@PAVKFbxSurfaceMaterial@fbxsdk_20100@@@1@@Z
	?GetHeaderOffset@?$KBaseArray@V?$KBaseArraySizeType@PAVKFbxSurfaceMaterial@fbxsdk_20100@@@fbxsdk_20100@@@fbxsdk_20100@@IBEHXZ
	?Clear@?$KBaseArray@V?$KBaseArraySizeType@PAVKFbxSurfaceMaterial@fbxsdk_20100@@@fbxsdk_20100@@@fbxsdk_20100@@QAEXXZ
	?GetHeader@?$KBaseArray@V?$KBaseArraySizeType@PAVKFbxSurfaceMaterial@fbxsdk_20100@@@fbxsdk_20100@@@fbxsdk_20100@@IBEQAUKHeader@12@XZ
	?GetHeader@?$KBaseArray@V?$KBaseArraySizeType@PAVKFbxSurfaceMaterial@fbxsdk_20100@@@fbxsdk_20100@@@fbxsdk_20100@@IAEPAUKHeader@12@XZ
	?GetTypeSize@?$KBaseArraySizeType@PAVKFbxSurfaceMaterial@fbxsdk_20100@@@fbxsdk_20100@@QBEHXZ
	??$GetSrcObjectCount@VKFbxSurfaceMaterial@fbxsdk_20100@@@KFbxProperty@fbxsdk_20100@@QBEHPBVKFbxSurfaceMaterial@1@@Z
	??$GetSrcObject@VKFbxSurfaceMaterial@fbxsdk_20100@@@KFbxProperty@fbxsdk_20100@@QBEPAVKFbxSurfaceMaterial@1@PBV21@H@Z
	??$DisconnectAllSrcObject@VKFbxSurfaceMaterial@fbxsdk_20100@@@KFbxProperty@fbxsdk_20100@@QAE_NPBVKFbxSurfaceMaterial@1@@Z
	??$GetDstObject@VKFbxNode@fbxsdk_20100@@@KFbxProperty@fbxsdk_20100@@QBEPAVKFbxNode@1@PBV21@H@Z
	?GetAt@?$KArrayTemplate@PAVKFbxSurfaceMaterial@fbxsdk_20100@@@fbxsdk_20100@@QBEPAVKFbxSurfaceMaterial@2@H@Z
	?GetArray@?$KArrayTemplate@PAVKFbxSurfaceMaterial@fbxsdk_20100@@@fbxsdk_20100@@QBEPAPAVKFbxSurfaceMaterial@2@XZ
	??1?$KBaseArray@V?$KBaseArraySizeType@PAVKFbxSurfaceMaterial@fbxsdk_20100@@@fbxsdk_20100@@@fbxsdk_20100@@IAE@XZ
	?GetTypeSize@?$KBaseArray@V?$KBaseArraySizeType@PAVKFbxSurfaceMaterial@fbxsdk_20100@@@fbxsdk_20100@@@fbxsdk_20100@@QBEHXZ
	?GetArrayCount@?$KBaseArray@V?$KBaseArraySizeType@PAVKFbxSurfaceMaterial@fbxsdk_20100@@@fbxsdk_20100@@@fbxsdk_20100@@IBEHXZ
	?SetArrayCount@?$KBaseArray@V?$KBaseArraySizeType@PAVKFbxSurfaceMaterial@fbxsdk_20100@@@fbxsdk_20100@@@fbxsdk_20100@@IAEXH@Z
	?GetBlockCount@?$KBaseArray@V?$KBaseArraySizeType@PAVKFbxSurfaceMaterial@fbxsdk_20100@@@fbxsdk_20100@@@fbxsdk_20100@@IBEHXZ
	?SetBlockCount@?$KBaseArray@V?$KBaseArraySizeType@PAVKFbxSurfaceMaterial@fbxsdk_20100@@@fbxsdk_20100@@@fbxsdk_20100@@IAEXH@Z
	??$GetSrcObjectCount@VKFbxSurfaceMaterial@fbxsdk_20100@@@KFbxObject@fbxsdk_20100@@QBEHPBVKFbxSurfaceMaterial@1@@Z
	??$GetSrcObject@VKFbxSurfaceMaterial@fbxsdk_20100@@@KFbxObject@fbxsdk_20100@@QBEPAVKFbxSurfaceMaterial@1@PBV21@H@Z
	??$DisconnectAllSrcObject@VKFbxSurfaceMaterial@fbxsdk_20100@@@KFbxObject@fbxsdk_20100@@QAE_NPBVKFbxSurfaceMaterial@1@@Z
	??$GetDstObject@VKFbxNode@fbxsdk_20100@@@KFbxObject@fbxsdk_20100@@QBEPAVKFbxNode@1@PBV21@H@Z
	??1LayerElementArrayProxyImp@fbxsdk_20100@@UAE@XZ
	?GetCurrentNode@LayerElementArrayProxyImp@fbxsdk_20100@@ABEPAVKFbxNode@2@XZ
	??_GLayerElementArrayProxyImp@fbxsdk_20100@@UAEPAXI@Z
	??0KFbxLayerElementArray@fbxsdk_20100@@QAE@W4EFbxType@1@@Z
	??_7KFbxLayerElementArray@fbxsdk_20100@@6B@
	??_R4KFbxLayerElementArray@fbxsdk_20100@@6B@
	??_R0?AVKFbxLayerElementArray@fbxsdk_20100@@@8
	??_R3KFbxLayerElementArray@fbxsdk_20100@@8
	??_R2KFbxLayerElementArray@fbxsdk_20100@@8
	??_R1A@?0A@EA@KFbxLayerElementArray@fbxsdk_20100@@8
	?GetReference@KFbxLayerElementArray@fbxsdk_20100@@IAEPAXHW4EFbxType@2@@Z
	?GetReferenceTo@KFbxLayerElementArray@fbxsdk_20100@@IAEXHPAPAXW4EFbxType@2@@Z
	?GetCount@?$KBaseArray@V?$KBaseArraySizeType@PAX@fbxsdk_20100@@@fbxsdk_20100@@QBEHXZ
	?SetAt@?$KArrayTemplate@VKFbxDataType@fbxsdk_20100@@@fbxsdk_20100@@QAEXHVKFbxDataType@2@@Z
	?GetCount@?$KBaseArray@V?$KBaseArraySizeType@VKFbxDataType@fbxsdk_20100@@@fbxsdk_20100@@@fbxsdk_20100@@QBEHXZ
	?Resize@?$KBaseArray@V?$KBaseArraySizeType@VKFbxDataType@fbxsdk_20100@@@fbxsdk_20100@@@fbxsdk_20100@@QAEXH@Z
	?SetAt@?$KArrayTemplate@PAVKString@fbxsdk_20100@@@fbxsdk_20100@@QAEXHPAVKString@2@@Z
	?GetCount@?$KBaseArray@V?$KBaseArraySizeType@PAVKString@fbxsdk_20100@@@fbxsdk_20100@@@fbxsdk_20100@@QBEHXZ
	?Resize@?$KBaseArray@V?$KBaseArraySizeType@PAVKString@fbxsdk_20100@@@fbxsdk_20100@@@fbxsdk_20100@@QAEXH@Z
	??0?$KArrayTemplate@H@fbxsdk_20100@@QAE@XZ
	??1?$KArrayTemplate@H@fbxsdk_20100@@QAE@XZ
	?SetAt@?$KArrayTemplate@H@fbxsdk_20100@@QAEXHH@Z
	?GetCount@?$KBaseArray@V?$KBaseArraySizeType@PBD@fbxsdk_20100@@@fbxsdk_20100@@QBEHXZ
	??0?$KArrayTemplate@PAVKFbxSurfaceMaterial@fbxsdk_20100@@@fbxsdk_20100@@QAE@XZ
	??1?$KArrayTemplate@PAVKFbxSurfaceMaterial@fbxsdk_20100@@@fbxsdk_20100@@QAE@XZ
	?SetAt@?$KArrayTemplate@PAVKFbxSurfaceMaterial@fbxsdk_20100@@@fbxsdk_20100@@QAEXHPAVKFbxSurfaceMaterial@2@@Z
	?Resize@?$KBaseArray@V?$KBaseArraySizeType@PAVKFbxSurfaceMaterial@fbxsdk_20100@@@fbxsdk_20100@@@fbxsdk_20100@@QAEXH@Z
	?GetCount@?$KBaseArray@V?$KBaseArraySizeType@UKFbxPolygon@KFbxMesh@fbxsdk_20100@@@fbxsdk_20100@@@fbxsdk_20100@@QBEHXZ
	?InsertAt@?$KBaseArray@VKBaseArraySize@fbxsdk_20100@@@fbxsdk_20100@@IAEHHPAX@Z
	?RemoveAt@?$KBaseArray@VKBaseArraySize@fbxsdk_20100@@@fbxsdk_20100@@IAEXH@Z
	?GetCount@?$KBaseArray@VKBaseArraySize@fbxsdk_20100@@@fbxsdk_20100@@QBEHXZ
	?Resize@?$KBaseArray@VKBaseArraySize@fbxsdk_20100@@@fbxsdk_20100@@QAEXH@Z
	?AddMultiple@?$KBaseArray@VKBaseArraySize@fbxsdk_20100@@@fbxsdk_20100@@QAEXH@Z
	?FindAfter@?$KArrayTemplate@PAX@fbxsdk_20100@@QBEHHPAX@Z
	?InsertAt@?$KArrayTemplate@PAVKString@fbxsdk_20100@@@fbxsdk_20100@@QAEHHPAVKString@2@@Z
	?AddMultiple@?$KBaseArray@V?$KBaseArraySizeType@H@fbxsdk_20100@@@fbxsdk_20100@@QAEXH@Z
	?InsertAt@?$KBaseArray@V?$KBaseArraySizeType@PAX@fbxsdk_20100@@@fbxsdk_20100@@IAEHHPAX@Z
	?RemoveAt@?$KBaseArray@V?$KBaseArraySizeType@PAX@fbxsdk_20100@@@fbxsdk_20100@@IAEXH@Z
	?InsertAt@?$KBaseArray@V?$KBaseArraySizeType@W4ELayerElementType@KFbxLayerElement@fbxsdk_20100@@@fbxsdk_20100@@@fbxsdk_20100@@IAEHHPAX@Z
	?InsertAt@?$KBaseArray@V?$KBaseArraySizeType@PBVKFbxLayerElementUV@fbxsdk_20100@@@fbxsdk_20100@@@fbxsdk_20100@@IAEHHPAX@Z
	?InsertAt@?$KArrayTemplate@VKFbxDataType@fbxsdk_20100@@@fbxsdk_20100@@QAEHHVKFbxDataType@2@@Z
	?GetPolygonSize@KFbxMesh@fbxsdk_20100@@QBEHH@Z
	?GetCount@LayerElementArrayImp@fbxsdk_20100@@QBEHXZ
	?Resize@LayerElementArrayImp@fbxsdk_20100@@QAEXH@Z
	?AddMultiple@LayerElementArrayImp@fbxsdk_20100@@QAEXH@Z
	?InsertAt@LayerElementArrayImp@fbxsdk_20100@@QAEHHPAX@Z
	?RemoveAt@LayerElementArrayImp@fbxsdk_20100@@QAEXH@Z
	?UnlockPostProcess@LayerElementArrayProxyImp@fbxsdk_20100@@UAEXXZ
	?LockPostProcess@LayerElementArrayProxyImp@fbxsdk_20100@@UAEXXZ
	??1KFbxLayerElementArray@fbxsdk_20100@@UAE@XZ
	?GetCount@KFbxLayerElementArray@fbxsdk_20100@@QBEHXZ
	?Resize@KFbxLayerElementArray@fbxsdk_20100@@QAEXH@Z
	?AddMultiple@KFbxLayerElementArray@fbxsdk_20100@@QAEXH@Z
	?InsertAt@KFbxLayerElementArray@fbxsdk_20100@@QAEHHPBXW4EFbxType@2@@Z
	?SetAt@KFbxLayerElementArray@fbxsdk_20100@@QAEXHPBXW4EFbxType@2@@Z
	?SetLast@KFbxLayerElementArray@fbxsdk_20100@@QAEXPBXW4EFbxType@2@@Z
	?RemoveAt@KFbxLayerElementArray@fbxsdk_20100@@QAEXHPAPAXW4EFbxType@2@@Z
	?RemoveLast@KFbxLayerElementArray@fbxsdk_20100@@QAEXPAPAXW4EFbxType@2@@Z
	?GetAt@KFbxLayerElementArray@fbxsdk_20100@@QBE_NHPAPAXW4EFbxType@2@@Z
	?GetFirst@KFbxLayerElementArray@fbxsdk_20100@@QBE_NPAPAXW4EFbxType@2@@Z
	?GetLast@KFbxLayerElementArray@fbxsdk_20100@@QBE_NPAPAXW4EFbxType@2@@Z
	?FindAfter@KFbxLayerElementArray@fbxsdk_20100@@QBEHHPBXW4EFbxType@2@@Z
	?FindBefore@KFbxLayerElementArray@fbxsdk_20100@@QBEHHPBXW4EFbxType@2@@Z
	?IsEqual@KFbxLayerElementArray@fbxsdk_20100@@QAE_NABV12@@Z
	??1?$KFbxLayerElementArrayTemplate@PAVKFbxSurfaceMaterial@fbxsdk_20100@@@fbxsdk_20100@@UAE@XZ
	?Find@?$KArrayTemplate@PAX@fbxsdk_20100@@QBEHPAX@Z
	?MemorySize@?$KFbxLayerElementTemplate@VKFbxVector4@fbxsdk_20100@@@fbxsdk_20100@@UBEHXZ
	?ContentWriteTo@?$KFbxLayerElementTemplate@VKFbxVector4@fbxsdk_20100@@@fbxsdk_20100@@UBE_NAAVKFbxStream@2@@Z
	?ContentReadFrom@?$KFbxLayerElementTemplate@VKFbxVector4@fbxsdk_20100@@@fbxsdk_20100@@UAE_NABVKFbxStream@2@@Z
	?MemorySize@?$KFbxLayerElementTemplate@PAVKFbxSurfaceMaterial@fbxsdk_20100@@@fbxsdk_20100@@UBEHXZ
	?ContentWriteTo@?$KFbxLayerElementTemplate@PAVKFbxSurfaceMaterial@fbxsdk_20100@@@fbxsdk_20100@@UBE_NAAVKFbxStream@2@@Z
	?ContentReadFrom@?$KFbxLayerElementTemplate@PAVKFbxSurfaceMaterial@fbxsdk_20100@@@fbxsdk_20100@@UAE_NABVKFbxStream@2@@Z
	??0?$KFbxLayerElementArrayTemplate@PAVKFbxSurfaceMaterial@fbxsdk_20100@@@fbxsdk_20100@@QAE@W4EFbxType@1@@Z
	??_7?$KFbxLayerElementArrayTemplate@PAVKFbxSurfaceMaterial@fbxsdk_20100@@@fbxsdk_20100@@6B@
	??_R4?$KFbxLayerElementArrayTemplate@PAVKFbxSurfaceMaterial@fbxsdk_20100@@@fbxsdk_20100@@6B@
	??_R0?AV?$KFbxLayerElementArrayTemplate@PAVKFbxSurfaceMaterial@fbxsdk_20100@@@fbxsdk_20100@@@8
	??_R3?$KFbxLayerElementArrayTemplate@PAVKFbxSurfaceMaterial@fbxsdk_20100@@@fbxsdk_20100@@8
	??_R2?$KFbxLayerElementArrayTemplate@PAVKFbxSurfaceMaterial@fbxsdk_20100@@@fbxsdk_20100@@8
	??_R1A@?0A@EA@?$KFbxLayerElementArrayTemplate@PAVKFbxSurfaceMaterial@fbxsdk_20100@@@fbxsdk_20100@@8
	?MemorySize@?$KFbxLayerElementTemplate@H@fbxsdk_20100@@UBEHXZ
	?ContentWriteTo@?$KFbxLayerElementTemplate@H@fbxsdk_20100@@UBE_NAAVKFbxStream@2@@Z
	?ContentReadFrom@?$KFbxLayerElementTemplate@H@fbxsdk_20100@@UAE_NABVKFbxStream@2@@Z
	?MemorySize@?$KFbxLayerElementTemplate@VKFbxVector2@fbxsdk_20100@@@fbxsdk_20100@@UBEHXZ
	?ContentWriteTo@?$KFbxLayerElementTemplate@VKFbxVector2@fbxsdk_20100@@@fbxsdk_20100@@UBE_NAAVKFbxStream@2@@Z
	?ContentReadFrom@?$KFbxLayerElementTemplate@VKFbxVector2@fbxsdk_20100@@@fbxsdk_20100@@UAE_NABVKFbxStream@2@@Z
	?MemorySize@?$KFbxLayerElementTemplate@VKFbxColor@fbxsdk_20100@@@fbxsdk_20100@@UBEHXZ
	?ContentWriteTo@?$KFbxLayerElementTemplate@VKFbxColor@fbxsdk_20100@@@fbxsdk_20100@@UBE_NAAVKFbxStream@2@@Z
	?ContentReadFrom@?$KFbxLayerElementTemplate@VKFbxColor@fbxsdk_20100@@@fbxsdk_20100@@UAE_NABVKFbxStream@2@@Z
	?MemorySize@?$KFbxLayerElementTemplate@PAX@fbxsdk_20100@@UBEHXZ
	?ContentWriteTo@?$KFbxLayerElementTemplate@PAX@fbxsdk_20100@@UBE_NAAVKFbxStream@2@@Z
	?ContentReadFrom@?$KFbxLayerElementTemplate@PAX@fbxsdk_20100@@UAE_NABVKFbxStream@2@@Z
	?Add@?$KArrayTemplate@PAVKString@fbxsdk_20100@@@fbxsdk_20100@@QAEHPAVKString@2@@Z
	??0?$KFbxLayerElementArrayTemplate@_N@fbxsdk_20100@@QAE@W4EFbxType@1@@Z
	??_7?$KFbxLayerElementArrayTemplate@_N@fbxsdk_20100@@6B@
	??_R4?$KFbxLayerElementArrayTemplate@_N@fbxsdk_20100@@6B@
	??_R0?AV?$KFbxLayerElementArrayTemplate@_N@fbxsdk_20100@@@8
	??_R3?$KFbxLayerElementArrayTemplate@_N@fbxsdk_20100@@8
	??_R2?$KFbxLayerElementArrayTemplate@_N@fbxsdk_20100@@8
	??_R1A@?0A@EA@?$KFbxLayerElementArrayTemplate@_N@fbxsdk_20100@@8
	??0?$KFbxLayerElementArrayTemplate@H@fbxsdk_20100@@QAE@W4EFbxType@1@@Z
	??_7?$KFbxLayerElementArrayTemplate@H@fbxsdk_20100@@6B@
	??_R4?$KFbxLayerElementArrayTemplate@H@fbxsdk_20100@@6B@
	??_R0?AV?$KFbxLayerElementArrayTemplate@H@fbxsdk_20100@@@8
	??_R3?$KFbxLayerElementArrayTemplate@H@fbxsdk_20100@@8
	??_R2?$KFbxLayerElementArrayTemplate@H@fbxsdk_20100@@8
	??_R1A@?0A@EA@?$KFbxLayerElementArrayTemplate@H@fbxsdk_20100@@8
	??0?$KFbxLayerElementArrayTemplate@M@fbxsdk_20100@@QAE@W4EFbxType@1@@Z
	??_7?$KFbxLayerElementArrayTemplate@M@fbxsdk_20100@@6B@
	??_R4?$KFbxLayerElementArrayTemplate@M@fbxsdk_20100@@6B@
	??_R0?AV?$KFbxLayerElementArrayTemplate@M@fbxsdk_20100@@@8
	??_R3?$KFbxLayerElementArrayTemplate@M@fbxsdk_20100@@8
	??_R2?$KFbxLayerElementArrayTemplate@M@fbxsdk_20100@@8
	??_R1A@?0A@EA@?$KFbxLayerElementArrayTemplate@M@fbxsdk_20100@@8
	??0?$KFbxLayerElementArrayTemplate@N@fbxsdk_20100@@QAE@W4EFbxType@1@@Z
	??_7?$KFbxLayerElementArrayTemplate@N@fbxsdk_20100@@6B@
	??_R4?$KFbxLayerElementArrayTemplate@N@fbxsdk_20100@@6B@
	??_R0?AV?$KFbxLayerElementArrayTemplate@N@fbxsdk_20100@@@8
	??_R3?$KFbxLayerElementArrayTemplate@N@fbxsdk_20100@@8
	??_R2?$KFbxLayerElementArrayTemplate@N@fbxsdk_20100@@8
	??_R1A@?0A@EA@?$KFbxLayerElementArrayTemplate@N@fbxsdk_20100@@8
	?SetCount@?$KBaseArray@V?$KBaseArraySizeType@H@fbxsdk_20100@@@fbxsdk_20100@@QAEXH@Z
	?AllocateArrays@?$KFbxLayerElementTemplate@N@fbxsdk_20100@@MAEXXZ
	?MemorySize@?$KFbxLayerElementTemplate@N@fbxsdk_20100@@UBEHXZ
	?ContentWriteTo@?$KFbxLayerElementTemplate@N@fbxsdk_20100@@UBE_NAAVKFbxStream@2@@Z
	?ContentReadFrom@?$KFbxLayerElementTemplate@N@fbxsdk_20100@@UAE_NABVKFbxStream@2@@Z
	?AllocateArrays@?$KFbxLayerElementTemplate@_N@fbxsdk_20100@@MAEXXZ
	?MemorySize@?$KFbxLayerElementTemplate@_N@fbxsdk_20100@@UBEHXZ
	?ContentWriteTo@?$KFbxLayerElementTemplate@_N@fbxsdk_20100@@UBE_NAAVKFbxStream@2@@Z
	?ContentReadFrom@?$KFbxLayerElementTemplate@_N@fbxsdk_20100@@UAE_NABVKFbxStream@2@@Z
	?MemorySize@?$KFbxLayerElementTemplate@PAVKFbxTexture@fbxsdk_20100@@@fbxsdk_20100@@UBEHXZ
	?ContentWriteTo@?$KFbxLayerElementTemplate@PAVKFbxTexture@fbxsdk_20100@@@fbxsdk_20100@@UBE_NAAVKFbxStream@2@@Z
	?ContentReadFrom@?$KFbxLayerElementTemplate@PAVKFbxTexture@fbxsdk_20100@@@fbxsdk_20100@@UAE_NABVKFbxStream@2@@Z
	?SetCount@?$KBaseArray@VKBaseArraySize@fbxsdk_20100@@@fbxsdk_20100@@QAEXH@Z
	??_G?$KFbxLayerElementArrayTemplate@PAVKFbxSurfaceMaterial@fbxsdk_20100@@@fbxsdk_20100@@UAEPAXI@Z
	??1?$KFbxLayerElementArrayTemplate@_N@fbxsdk_20100@@UAE@XZ
	??1?$KFbxLayerElementArrayTemplate@H@fbxsdk_20100@@UAE@XZ
	??1?$KFbxLayerElementArrayTemplate@M@fbxsdk_20100@@UAE@XZ
	??1?$KFbxLayerElementArrayTemplate@N@fbxsdk_20100@@UAE@XZ
	?InsertAt@?$KArrayTemplate@PAX@fbxsdk_20100@@QAEHHPAX@Z
	?RemoveAt@?$KArrayTemplate@PAX@fbxsdk_20100@@QAEPAXH@Z
	??0?$KFbxLayerElementArrayTemplate@PAX@fbxsdk_20100@@QAE@W4EFbxType@1@@Z
	??_7?$KFbxLayerElementArrayTemplate@PAX@fbxsdk_20100@@6B@
	??_R4?$KFbxLayerElementArrayTemplate@PAX@fbxsdk_20100@@6B@
	??_R0?AV?$KFbxLayerElementArrayTemplate@PAX@fbxsdk_20100@@@8
	??_R3?$KFbxLayerElementArrayTemplate@PAX@fbxsdk_20100@@8
	??_R2?$KFbxLayerElementArrayTemplate@PAX@fbxsdk_20100@@8
	??_R1A@?0A@EA@?$KFbxLayerElementArrayTemplate@PAX@fbxsdk_20100@@8
	?InsertAt@?$KArrayTemplate@W4ELayerElementType@KFbxLayerElement@fbxsdk_20100@@@fbxsdk_20100@@QAEHHW4ELayerElementType@KFbxLayerElement@2@@Z
	?InsertAt@?$KArrayTemplate@PBVKFbxLayerElementUV@fbxsdk_20100@@@fbxsdk_20100@@QAEHHPBVKFbxLayerElementUV@2@@Z
	??0?$KFbxLayerElementArrayTemplate@VKFbxVector4@fbxsdk_20100@@@fbxsdk_20100@@QAE@W4EFbxType@1@@Z
	??_7?$KFbxLayerElementArrayTemplate@VKFbxVector4@fbxsdk_20100@@@fbxsdk_20100@@6B@
	??_R4?$KFbxLayerElementArrayTemplate@VKFbxVector4@fbxsdk_20100@@@fbxsdk_20100@@6B@
	??_R0?AV?$KFbxLayerElementArrayTemplate@VKFbxVector4@fbxsdk_20100@@@fbxsdk_20100@@@8
	??_R3?$KFbxLayerElementArrayTemplate@VKFbxVector4@fbxsdk_20100@@@fbxsdk_20100@@8
	??_R2?$KFbxLayerElementArrayTemplate@VKFbxVector4@fbxsdk_20100@@@fbxsdk_20100@@8
	??_R1A@?0A@EA@?$KFbxLayerElementArrayTemplate@VKFbxVector4@fbxsdk_20100@@@fbxsdk_20100@@8
	??0?$KFbxLayerElementArrayTemplate@VKFbxVector2@fbxsdk_20100@@@fbxsdk_20100@@QAE@W4EFbxType@1@@Z
	??_7?$KFbxLayerElementArrayTemplate@VKFbxVector2@fbxsdk_20100@@@fbxsdk_20100@@6B@
	??_R4?$KFbxLayerElementArrayTemplate@VKFbxVector2@fbxsdk_20100@@@fbxsdk_20100@@6B@
	??_R0?AV?$KFbxLayerElementArrayTemplate@VKFbxVector2@fbxsdk_20100@@@fbxsdk_20100@@@8
	??_R3?$KFbxLayerElementArrayTemplate@VKFbxVector2@fbxsdk_20100@@@fbxsdk_20100@@8
	??_R2?$KFbxLayerElementArrayTemplate@VKFbxVector2@fbxsdk_20100@@@fbxsdk_20100@@8
	??_R1A@?0A@EA@?$KFbxLayerElementArrayTemplate@VKFbxVector2@fbxsdk_20100@@@fbxsdk_20100@@8
	??0?$KFbxLayerElementArrayTemplate@VKFbxColor@fbxsdk_20100@@@fbxsdk_20100@@QAE@W4EFbxType@1@@Z
	??_7?$KFbxLayerElementArrayTemplate@VKFbxColor@fbxsdk_20100@@@fbxsdk_20100@@6B@
	??_R4?$KFbxLayerElementArrayTemplate@VKFbxColor@fbxsdk_20100@@@fbxsdk_20100@@6B@
	??_R0?AV?$KFbxLayerElementArrayTemplate@VKFbxColor@fbxsdk_20100@@@fbxsdk_20100@@@8
	??_R3?$KFbxLayerElementArrayTemplate@VKFbxColor@fbxsdk_20100@@@fbxsdk_20100@@8
	??_R2?$KFbxLayerElementArrayTemplate@VKFbxColor@fbxsdk_20100@@@fbxsdk_20100@@8
	??_R1A@?0A@EA@?$KFbxLayerElementArrayTemplate@VKFbxColor@fbxsdk_20100@@@fbxsdk_20100@@8
	??0?$KFbxLayerElementArrayTemplate@PAVKFbxTexture@fbxsdk_20100@@@fbxsdk_20100@@QAE@W4EFbxType@1@@Z
	??_7?$KFbxLayerElementArrayTemplate@PAVKFbxTexture@fbxsdk_20100@@@fbxsdk_20100@@6B@
	??_R4?$KFbxLayerElementArrayTemplate@PAVKFbxTexture@fbxsdk_20100@@@fbxsdk_20100@@6B@
	??_R0?AV?$KFbxLayerElementArrayTemplate@PAVKFbxTexture@fbxsdk_20100@@@fbxsdk_20100@@@8
	??_R3?$KFbxLayerElementArrayTemplate@PAVKFbxTexture@fbxsdk_20100@@@fbxsdk_20100@@8
	??_R2?$KFbxLayerElementArrayTemplate@PAVKFbxTexture@fbxsdk_20100@@@fbxsdk_20100@@8
	??_R1A@?0A@EA@?$KFbxLayerElementArrayTemplate@PAVKFbxTexture@fbxsdk_20100@@@fbxsdk_20100@@8
	??1?$KFbxLayerElementArrayTemplate@PAX@fbxsdk_20100@@UAE@XZ
	??1?$KFbxLayerElementArrayTemplate@VKFbxVector4@fbxsdk_20100@@@fbxsdk_20100@@UAE@XZ
	??1?$KFbxLayerElementArrayTemplate@VKFbxVector2@fbxsdk_20100@@@fbxsdk_20100@@UAE@XZ
	??1?$KFbxLayerElementArrayTemplate@VKFbxColor@fbxsdk_20100@@@fbxsdk_20100@@UAE@XZ
	??1?$KFbxLayerElementArrayTemplate@PAVKFbxTexture@fbxsdk_20100@@@fbxsdk_20100@@UAE@XZ
	?Add@?$KArrayTemplate@VKFbxDataType@fbxsdk_20100@@@fbxsdk_20100@@QAEHVKFbxDataType@2@@Z
	??$GetAt@H@KFbxLayerElementArray@fbxsdk_20100@@QBE_NHPAH@Z
	??$SetAt@H@KFbxLayerElementArray@fbxsdk_20100@@QAEXHABH@Z
	??$SetAt@PAVKFbxSurfaceMaterial@fbxsdk_20100@@@KFbxLayerElementArray@fbxsdk_20100@@QAEXHABQAVKFbxSurfaceMaterial@1@@Z
	??$GetAt@PAVKFbxSurfaceMaterial@fbxsdk_20100@@@KFbxLayerElementArray@fbxsdk_20100@@QBE_NHPAPAVKFbxSurfaceMaterial@1@@Z
	??$SetAt@_N@KFbxLayerElementArray@fbxsdk_20100@@QAEXHAB_N@Z
	??$GetAt@_N@KFbxLayerElementArray@fbxsdk_20100@@QBE_NHPA_N@Z
	??$SetAt@N@KFbxLayerElementArray@fbxsdk_20100@@QAEXHABN@Z
	??$GetAt@N@KFbxLayerElementArray@fbxsdk_20100@@QBE_NHPAN@Z
	??$SetAt@VKFbxVector4@fbxsdk_20100@@@KFbxLayerElementArray@fbxsdk_20100@@QAEXHABVKFbxVector4@1@@Z
	??$GetAt@VKFbxVector4@fbxsdk_20100@@@KFbxLayerElementArray@fbxsdk_20100@@QBE_NHPAVKFbxVector4@1@@Z
	??$SetAt@VKFbxVector2@fbxsdk_20100@@@KFbxLayerElementArray@fbxsdk_20100@@QAEXHABVKFbxVector2@1@@Z
	??$GetAt@VKFbxVector2@fbxsdk_20100@@@KFbxLayerElementArray@fbxsdk_20100@@QBE_NHPAVKFbxVector2@1@@Z
	??$SetAt@VKFbxColor@fbxsdk_20100@@@KFbxLayerElementArray@fbxsdk_20100@@QAEXHABVKFbxColor@1@@Z
	??$GetAt@VKFbxColor@fbxsdk_20100@@@KFbxLayerElementArray@fbxsdk_20100@@QBE_NHPAVKFbxColor@1@@Z
	??$SetAt@PAVKFbxTexture@fbxsdk_20100@@@KFbxLayerElementArray@fbxsdk_20100@@QAEXHABQAVKFbxTexture@1@@Z
	??$GetAt@PAVKFbxTexture@fbxsdk_20100@@@KFbxLayerElementArray@fbxsdk_20100@@QBE_NHPAPAVKFbxTexture@1@@Z
	?GetDirectArrayCount@KFbxLayerElementUserData@fbxsdk_20100@@QBEHXZ
	?Clear@KFbxLayerElementUserData@fbxsdk_20100@@QAEXXZ
	?Init@KFbxLayerElementUserData@fbxsdk_20100@@AAEXXZ
	?MemorySize@KFbxLayerElementTexture@fbxsdk_20100@@UBEHXZ
	?Clear@KFbxLayer@fbxsdk_20100@@AAEXXZ
	?SetCount@LayerElementArrayImp@fbxsdk_20100@@QAEXH@Z
	??_GKFbxLayerElementArray@fbxsdk_20100@@UAEPAXI@Z
	?WriteLock@KFbxLayerElementArray@fbxsdk_20100@@QBE_NXZ
	?GetLocked@KFbxLayerElementArray@fbxsdk_20100@@UAEPAXW4ELockMode@12@W4EFbxType@2@@Z
	?SetCount@KFbxLayerElementArray@fbxsdk_20100@@QAEXH@Z
	?Add@KFbxLayerElementArray@fbxsdk_20100@@QAEHPBXW4EFbxType@2@@Z
	?Find@KFbxLayerElementArray@fbxsdk_20100@@QBEHPBXW4EFbxType@2@@Z
	??0LayerElementArrayProxy@KFbxLayerElementMaterial@fbxsdk_20100@@QAE@W4EFbxType@2@@Z
	??_7LayerElementArrayProxy@KFbxLayerElementMaterial@fbxsdk_20100@@6B@
	??_R4LayerElementArrayProxy@KFbxLayerElementMaterial@fbxsdk_20100@@6B@
	??_R0?AVLayerElementArrayProxy@KFbxLayerElementMaterial@fbxsdk_20100@@@8
	??_R3LayerElementArrayProxy@KFbxLayerElementMaterial@fbxsdk_20100@@8
	??_R2LayerElementArrayProxy@KFbxLayerElementMaterial@fbxsdk_20100@@8
	??_R1A@?0A@EA@LayerElementArrayProxy@KFbxLayerElementMaterial@fbxsdk_20100@@8
	??1LayerElementArrayProxy@KFbxLayerElementMaterial@fbxsdk_20100@@UAE@XZ
	??_GLayerElementArrayProxy@KFbxLayerElementMaterial@fbxsdk_20100@@UAEPAXI@Z
	?RemoveIt@?$KArrayTemplate@PAX@fbxsdk_20100@@QAE_NPAX@Z
	?Add@?$KArrayTemplate@PAX@fbxsdk_20100@@QAEHPAX@Z
	?AllocateArrays@?$KFbxLayerElementTemplate@VKFbxVector4@fbxsdk_20100@@@fbxsdk_20100@@MAEXXZ
	?AllocateArrays@?$KFbxLayerElementTemplate@PAVKFbxSurfaceMaterial@fbxsdk_20100@@@fbxsdk_20100@@MAEXXZ
	?AllocateArrays@?$KFbxLayerElementTemplate@H@fbxsdk_20100@@MAEXXZ
	?AllocateArrays@?$KFbxLayerElementTemplate@VKFbxVector2@fbxsdk_20100@@@fbxsdk_20100@@MAEXXZ
	?AllocateArrays@?$KFbxLayerElementTemplate@VKFbxColor@fbxsdk_20100@@@fbxsdk_20100@@MAEXXZ
	?AllocateArrays@?$KFbxLayerElementTemplate@PAX@fbxsdk_20100@@MAEXXZ
	?GetAt@?$KFbxLayerElementArrayTemplate@H@fbxsdk_20100@@QBEHH@Z
	?AllocateArrays@?$KFbxLayerElementTemplate@PAVKFbxTexture@fbxsdk_20100@@@fbxsdk_20100@@MAEXXZ
	?Add@?$KArrayTemplate@W4ELayerElementType@KFbxLayerElement@fbxsdk_20100@@@fbxsdk_20100@@QAEHW4ELayerElementType@KFbxLayerElement@2@@Z
	?Add@?$KArrayTemplate@PBVKFbxLayerElementUV@fbxsdk_20100@@@fbxsdk_20100@@QAEHPBVKFbxLayerElementUV@2@@Z
	??_G?$KFbxLayerElementArrayTemplate@_N@fbxsdk_20100@@UAEPAXI@Z
	??_G?$KFbxLayerElementArrayTemplate@H@fbxsdk_20100@@UAEPAXI@Z
	??_G?$KFbxLayerElementArrayTemplate@M@fbxsdk_20100@@UAEPAXI@Z
	??_G?$KFbxLayerElementArrayTemplate@N@fbxsdk_20100@@UAEPAXI@Z
	??4?$KArrayTemplate@VKFbxDataType@fbxsdk_20100@@@fbxsdk_20100@@QAEAAV01@ABV01@@Z
	?SetAt@?$KFbxLayerElementArrayTemplate@H@fbxsdk_20100@@QAEXHABH@Z
	??4?$KArrayTemplate@W4ELayerElementType@KFbxLayerElement@fbxsdk_20100@@@fbxsdk_20100@@QAEAAV01@ABV01@@Z
	??4?$KArrayTemplate@PBVKFbxLayerElementUV@fbxsdk_20100@@@fbxsdk_20100@@QAEAAV01@ABV01@@Z
	??_G?$KFbxLayerElementArrayTemplate@PAX@fbxsdk_20100@@UAEPAXI@Z
	??_G?$KFbxLayerElementArrayTemplate@VKFbxVector4@fbxsdk_20100@@@fbxsdk_20100@@UAEPAXI@Z
	??_G?$KFbxLayerElementArrayTemplate@VKFbxVector2@fbxsdk_20100@@@fbxsdk_20100@@UAEPAXI@Z
	??_G?$KFbxLayerElementArrayTemplate@VKFbxColor@fbxsdk_20100@@@fbxsdk_20100@@UAEPAXI@Z
	??_G?$KFbxLayerElementArrayTemplate@PAVKFbxTexture@fbxsdk_20100@@@fbxsdk_20100@@UAEPAXI@Z
	?SetAt@?$KFbxLayerElementArrayTemplate@PAVKFbxSurfaceMaterial@fbxsdk_20100@@@fbxsdk_20100@@QAEXHABQAVKFbxSurfaceMaterial@2@@Z
	?GetAt@?$KFbxLayerElementArrayTemplate@PAVKFbxSurfaceMaterial@fbxsdk_20100@@@fbxsdk_20100@@QBEPAVKFbxSurfaceMaterial@2@H@Z
	?SetAt@?$KFbxLayerElementArrayTemplate@_N@fbxsdk_20100@@QAEXHAB_N@Z
	?GetAt@?$KFbxLayerElementArrayTemplate@_N@fbxsdk_20100@@QBE_NH@Z
	?SetAt@?$KFbxLayerElementArrayTemplate@N@fbxsdk_20100@@QAEXHABN@Z
	?GetAt@?$KFbxLayerElementArrayTemplate@N@fbxsdk_20100@@QBENH@Z
	?SetAt@?$KFbxLayerElementArrayTemplate@VKFbxVector4@fbxsdk_20100@@@fbxsdk_20100@@QAEXHABVKFbxVector4@2@@Z
	?GetAt@?$KFbxLayerElementArrayTemplate@VKFbxVector4@fbxsdk_20100@@@fbxsdk_20100@@QBE?AVKFbxVector4@2@H@Z
	?SetAt@?$KFbxLayerElementArrayTemplate@VKFbxVector2@fbxsdk_20100@@@fbxsdk_20100@@QAEXHABVKFbxVector2@2@@Z
	?GetAt@?$KFbxLayerElementArrayTemplate@VKFbxVector2@fbxsdk_20100@@@fbxsdk_20100@@QBE?AVKFbxVector2@2@H@Z
	?SetAt@?$KFbxLayerElementArrayTemplate@VKFbxColor@fbxsdk_20100@@@fbxsdk_20100@@QAEXHABVKFbxColor@2@@Z
	?GetAt@?$KFbxLayerElementArrayTemplate@VKFbxColor@fbxsdk_20100@@@fbxsdk_20100@@QBE?AVKFbxColor@2@H@Z
	?SetAt@?$KFbxLayerElementArrayTemplate@PAVKFbxTexture@fbxsdk_20100@@@fbxsdk_20100@@QAEXHABQAVKFbxTexture@2@@Z
	?GetAt@?$KFbxLayerElementArrayTemplate@PAVKFbxTexture@fbxsdk_20100@@@fbxsdk_20100@@QBEPAVKFbxTexture@2@H@Z
	??$Add@H@KFbxLayerElementArray@fbxsdk_20100@@QAEHABH@Z
	??1KFbxLayer@fbxsdk_20100@@EAE@XZ
	?AllocateArrays@KFbxLayerElementMaterial@fbxsdk_20100@@UAEXXZ
	?Release@KFbxLayerElementArray@fbxsdk_20100@@UAEXPAPAXW4EFbxType@2@@Z
	?ConvertDataType@KFbxLayerElementArray@fbxsdk_20100@@MAEXW4EFbxType@2@PAPAXPAI@Z
	?RemoveIt@KFbxLayerElementArray@fbxsdk_20100@@QAE_NPAPAXW4EFbxType@2@@Z
	??0?$KArrayTemplate@VKFbxDataType@fbxsdk_20100@@@fbxsdk_20100@@QAE@ABV01@@Z
	?Add@?$KFbxLayerElementArrayTemplate@H@fbxsdk_20100@@QAEHABH@Z
	??4?$KFbxLayerElementArrayTemplate@H@fbxsdk_20100@@QAEAAV01@ABV01@@Z
	??0?$KArrayTemplate@W4ELayerElementType@KFbxLayerElement@fbxsdk_20100@@@fbxsdk_20100@@QAE@ABV01@@Z
	??0?$KArrayTemplate@PBVKFbxLayerElementUV@fbxsdk_20100@@@fbxsdk_20100@@QAE@ABV01@@Z
	??4?$KFbxLayerElementArrayTemplate@PAVKFbxSurfaceMaterial@fbxsdk_20100@@@fbxsdk_20100@@QAEAAV01@ABV01@@Z
	??4?$KFbxLayerElementArrayTemplate@_N@fbxsdk_20100@@QAEAAV01@ABV01@@Z
	??4?$KFbxLayerElementArrayTemplate@N@fbxsdk_20100@@QAEAAV01@ABV01@@Z
	??4?$KFbxLayerElementArrayTemplate@VKFbxVector4@fbxsdk_20100@@@fbxsdk_20100@@QAEAAV01@ABV01@@Z
	??4?$KFbxLayerElementArrayTemplate@VKFbxVector2@fbxsdk_20100@@@fbxsdk_20100@@QAEAAV01@ABV01@@Z
	??4?$KFbxLayerElementArrayTemplate@VKFbxColor@fbxsdk_20100@@@fbxsdk_20100@@QAEAAV01@ABV01@@Z
	??4?$KFbxLayerElementArrayTemplate@PAVKFbxTexture@fbxsdk_20100@@@fbxsdk_20100@@QAEAAV01@ABV01@@Z
	??4KFbxLayerElementUserData@fbxsdk_20100@@QAEAAV01@ABV01@@Z
	??0KFbxLayerElementUserData@fbxsdk_20100@@IAE@HAAV?$KArrayTemplate@VKFbxDataType@fbxsdk_20100@@@1@AAV?$KArrayTemplate@PBD@1@@Z
	??_7KFbxLayerElementUserData@fbxsdk_20100@@6B@
	??_R4KFbxLayerElementUserData@fbxsdk_20100@@6B@
	??_R0?AVKFbxLayerElementUserData@fbxsdk_20100@@@8
	??_R3KFbxLayerElementUserData@fbxsdk_20100@@8
	??_R2KFbxLayerElementUserData@fbxsdk_20100@@8
	??_R1A@?0A@EA@KFbxLayerElementUserData@fbxsdk_20100@@8
	?MemorySize@KFbxLayerElementUserData@fbxsdk_20100@@UBEHXZ
	??1KFbxLayerElementUserData@fbxsdk_20100@@MAE@XZ
	??_GKFbxLayerElementUserData@fbxsdk_20100@@MAEPAXI@Z
	?AllocateArrays@KFbxLayerElementUserData@fbxsdk_20100@@MAEXXZ
	??0KFbxLayerElementUserData@fbxsdk_20100@@IAE@ABV01@@Z
	??_GKFbxLayer@fbxsdk_20100@@EAEPAXI@Z
	?GetUVSetChannels@KFbxLayer@fbxsdk_20100@@QBE?AV?$KArrayTemplate@W4ELayerElementType@KFbxLayerElement@fbxsdk_20100@@@2@XZ
	?GetUVSets@KFbxLayer@fbxsdk_20100@@QBE?AV?$KArrayTemplate@PBVKFbxLayerElementUV@fbxsdk_20100@@@2@XZ
	?RemapIndexArrayTo@fbxsdk_20100@@YAHPAVKFbxLayerElement@1@W4EMappingMode@21@PAV?$KFbxLayerElementArrayTemplate@H@1@@Z
	??_R0?AVKFbxObject@fbxsdk_20100@@@8
	??_R0?AVKFbxMesh@fbxsdk_20100@@@8
	?Create@KFbxLayerElementUserData@fbxsdk_20100@@SAPAV12@PAVKFbxLayerContainer@2@PBDHAAV?$KArrayTemplate@VKFbxDataType@fbxsdk_20100@@@2@AAV?$KArrayTemplate@PBD@2@@Z
	?Create@KFbxLayerElementUserData@fbxsdk_20100@@SAPAV12@PAVKFbxLayerContainer@2@ABV12@@Z
	??4?$KFbxLayerElementTemplate@VKFbxVector4@fbxsdk_20100@@@fbxsdk_20100@@QAEAAV01@ABV01@@Z
	??4?$KFbxLayerElementTemplate@PAVKFbxSurfaceMaterial@fbxsdk_20100@@@fbxsdk_20100@@QAEAAV01@ABV01@@Z
	??4?$KFbxLayerElementTemplate@H@fbxsdk_20100@@QAEAAV01@ABV01@@Z
	??4?$KFbxLayerElementTemplate@VKFbxVector2@fbxsdk_20100@@@fbxsdk_20100@@QAEAAV01@ABV01@@Z
	??4?$KFbxLayerElementTemplate@VKFbxColor@fbxsdk_20100@@@fbxsdk_20100@@QAEAAV01@ABV01@@Z
	??4?$KFbxLayerElementTemplate@N@fbxsdk_20100@@QAEAAV01@ABV01@@Z
	??4?$KFbxLayerElementTemplate@_N@fbxsdk_20100@@QAEAAV01@ABV01@@Z
	??4?$KFbxLayerElementTemplate@PAVKFbxTexture@fbxsdk_20100@@@fbxsdk_20100@@QAEAAV01@ABV01@@Z
	??4KFbxLayerElementNormal@fbxsdk_20100@@QAEAAV01@ABV01@@Z
	??4KFbxLayerElementBinormal@fbxsdk_20100@@QAEAAV01@ABV01@@Z
	??4KFbxLayerElementTangent@fbxsdk_20100@@QAEAAV01@ABV01@@Z
	??4KFbxLayerElementMaterial@fbxsdk_20100@@QAEAAV01@ABV01@@Z
	??4KFbxLayerElementPolygonGroup@fbxsdk_20100@@QAEAAV01@ABV01@@Z
	??4KFbxLayerElementUV@fbxsdk_20100@@QAEAAV01@ABV01@@Z
	??4KFbxLayerElementVertexColor@fbxsdk_20100@@QAEAAV01@ABV01@@Z
	??4KFbxLayerElementSmoothing@fbxsdk_20100@@QAEAAV01@ABV01@@Z
	??4KFbxLayerElementCrease@fbxsdk_20100@@QAEAAV01@ABV01@@Z
	??4KFbxLayerElementVisibility@fbxsdk_20100@@QAEAAV01@ABV01@@Z
	??4KFbxLayerElementTexture@fbxsdk_20100@@QAEAAV01@ABV01@@Z
	?Clone@KFbxLayer@fbxsdk_20100@@QAEXABV12@PAVKFbxSdkManager@2@@Z
	?smMutex@?$KFbxEvent@VKFbxObjectPropertyChanged@fbxsdk_20100@@@kfbxevents@fbxsdk_20100@@0VKFbxMutex@kfbxmp@3@A
	?FindAfter@?$KArrayTemplate@H@fbxsdk_20100@@QBEHHH@Z
	?RemoveAt@?$KBaseArray@V?$KBaseArraySizeType@PAVKFbxLayer@fbxsdk_20100@@@fbxsdk_20100@@@fbxsdk_20100@@IAEXH@Z
	?Find@?$KArrayTemplate@PAVKFbxLayerElement@fbxsdk_20100@@@fbxsdk_20100@@QBEHPAVKFbxLayerElement@2@@Z
	?InsertAt@?$KBaseArray@V?$KBaseArraySizeType@H@fbxsdk_20100@@@fbxsdk_20100@@IAEHHPAX@Z
	?InsertAt@?$KBaseArray@V?$KBaseArraySizeType@PAVKFbxLayer@fbxsdk_20100@@@fbxsdk_20100@@@fbxsdk_20100@@IAEHHPAX@Z
	?InsertAt@?$KBaseArray@V?$KBaseArraySizeType@PAVKFbxLayerElement@fbxsdk_20100@@@fbxsdk_20100@@@fbxsdk_20100@@IAEHHPAX@Z
	?RemoveAt@?$KBaseArray@V?$KBaseArraySizeType@PAVKFbxLayerElement@fbxsdk_20100@@@fbxsdk_20100@@@fbxsdk_20100@@IAEXH@Z
	??1KFbxTakeNodeContainer@fbxsdk_20100@@UAE@XZ
	??_7KFbxTakeNodeContainer@fbxsdk_20100@@6B@
	??_R4KFbxTakeNodeContainer@fbxsdk_20100@@6B@
	??_R0?AVKFbxTakeNodeContainer@fbxsdk_20100@@@8
	??_R3KFbxTakeNodeContainer@fbxsdk_20100@@8
	??_R2KFbxTakeNodeContainer@fbxsdk_20100@@8
	??_R1A@?0A@EA@KFbxTakeNodeContainer@fbxsdk_20100@@8
	?GetClassId@KFbxTakeNodeContainer@fbxsdk_20100@@UBE?AVkFbxClassId@2@XZ
	??_GKFbxTakeNodeContainer@fbxsdk_20100@@UAEPAXI@Z
	??1KFbxNodeAttribute@fbxsdk_20100@@UAE@XZ
	??_7KFbxNodeAttribute@fbxsdk_20100@@6B@
	??_R4KFbxNodeAttribute@fbxsdk_20100@@6B@
	??_R0?AVKFbxNodeAttribute@fbxsdk_20100@@@8
	??_R3KFbxNodeAttribute@fbxsdk_20100@@8
	??_R2KFbxNodeAttribute@fbxsdk_20100@@8
	??_R1A@?0A@EA@KFbxNodeAttribute@fbxsdk_20100@@8
	?GetClassId@KFbxNodeAttribute@fbxsdk_20100@@UBE?AVkFbxClassId@2@XZ
	?GetAttributeType@KFbxNodeAttribute@fbxsdk_20100@@UBE?AW4EAttributeType@12@XZ
	??_GKFbxNodeAttribute@fbxsdk_20100@@UAEPAXI@Z
	??0KFbxLayerContainer@fbxsdk_20100@@IAE@AAVKFbxSdkManager@1@PBD@Z
	??_7KFbxLayerContainer@fbxsdk_20100@@6B@
	??_R4KFbxLayerContainer@fbxsdk_20100@@6B@
	??_R0?AVKFbxLayerContainer@fbxsdk_20100@@@8
	??_R3KFbxLayerContainer@fbxsdk_20100@@8
	??_R2KFbxLayerContainer@fbxsdk_20100@@8
	??_R1A@?0A@EA@KFbxLayerContainer@fbxsdk_20100@@8
	?GetClassId@KFbxLayerContainer@fbxsdk_20100@@UBE?AVkFbxClassId@2@XZ
	?GetAttributeType@KFbxLayerContainer@fbxsdk_20100@@UBE?AW4EAttributeType@KFbxNodeAttribute@2@XZ
	??1KFbxLayerContainer@fbxsdk_20100@@UAE@XZ
	??_GKFbxLayerContainer@fbxsdk_20100@@UAEPAXI@Z
	?GetLayerCount@KFbxLayerContainer@fbxsdk_20100@@QBEHXZ
	?GetLayerCount@KFbxLayerContainer@fbxsdk_20100@@QBEHW4ELayerElementType@KFbxLayerElement@2@_N@Z
	?GetLayer@KFbxLayerContainer@fbxsdk_20100@@QAEPAVKFbxLayer@2@H@Z
	?GetLayer@KFbxLayerContainer@fbxsdk_20100@@QBEPBVKFbxLayer@2@H@Z
	?GetLayerIndex@KFbxLayerContainer@fbxsdk_20100@@QBEHHW4ELayerElementType@KFbxLayerElement@2@_N@Z
	?GetLayerTypedIndex@KFbxLayerContainer@fbxsdk_20100@@QAEHHW4ELayerElementType@KFbxLayerElement@2@_N@Z
	?SetDocument@KFbxLayerContainer@fbxsdk_20100@@MAEXPAVKFbxDocument@2@@Z
	?ConvertDirectToIndexToDirect@KFbxLayerContainer@fbxsdk_20100@@QAE_NH@Z
	?Find@?$KArrayTemplate@H@fbxsdk_20100@@QBEHH@Z
	?RemoveAt@?$KArrayTemplate@PAVKFbxLayer@fbxsdk_20100@@@fbxsdk_20100@@QAEPAVKFbxLayer@2@H@Z
	?InsertAt@?$KArrayTemplate@H@fbxsdk_20100@@QAEHHH@Z
	?InsertAt@?$KArrayTemplate@PAVKFbxLayer@fbxsdk_20100@@@fbxsdk_20100@@QAEHHPAVKFbxLayer@2@@Z
	?InsertAt@?$KArrayTemplate@PAVKFbxLayerElement@fbxsdk_20100@@@fbxsdk_20100@@QAEHHPAVKFbxLayerElement@2@@Z
	?RemoveAt@?$KArrayTemplate@PAVKFbxLayerElement@fbxsdk_20100@@@fbxsdk_20100@@QAEPAVKFbxLayerElement@2@H@Z
	?GT@KFbxLayerContainer@fbxsdk_20100@@QAEPAXHIH@Z
	?GTI@KFbxLayerContainer@fbxsdk_20100@@QAEHPBDIH@Z
	?ClearLayers@KFbxLayerContainer@fbxsdk_20100@@QAEXXZ
	?GetLayer@KFbxLayerContainer@fbxsdk_20100@@QAEPAVKFbxLayer@2@HW4ELayerElementType@KFbxLayerElement@2@_N@Z
	?GetLayer@KFbxLayerContainer@fbxsdk_20100@@QBEPBVKFbxLayer@2@HW4ELayerElementType@KFbxLayerElement@2@_N@Z
	?ConnecNotify@KFbxLayerContainer@fbxsdk_20100@@MAE_NABVKFbxConnectEvent@2@@Z
	?Add@?$KArrayTemplate@H@fbxsdk_20100@@QAEHH@Z
	?Add@?$KArrayTemplate@PAVKFbxLayer@fbxsdk_20100@@@fbxsdk_20100@@QAEHPAVKFbxLayer@2@@Z
	?RemoveIt@?$KArrayTemplate@PAVKFbxLayerElement@fbxsdk_20100@@@fbxsdk_20100@@QAE_NPAVKFbxLayerElement@2@@Z
	?Add@?$KArrayTemplate@PAVKFbxLayerElement@fbxsdk_20100@@@fbxsdk_20100@@QAEHPAVKFbxLayerElement@2@@Z
	?Destruct@KFbxLayerContainer@fbxsdk_20100@@MAEX_N0@Z
	?GTC@KFbxLayerContainer@fbxsdk_20100@@QAEHIH@Z
	?AddToLayerElementsList@KFbxLayerContainer@fbxsdk_20100@@QAEHPAVKFbxLayerElement@2@@Z
	?RemoveFromLayerElementsList@KFbxLayerContainer@fbxsdk_20100@@QAEXPAVKFbxLayerElement@2@@Z
	?CreateLayer@KFbxLayerContainer@fbxsdk_20100@@QAEHXZ
	?CopyLayers@KFbxLayerContainer@fbxsdk_20100@@IAEXPBV12@@Z
	?AT@KFbxLayerContainer@fbxsdk_20100@@QAEHPAXIH@Z
	?AM@KFbxLayerContainer@fbxsdk_20100@@QAEHPAXI0_N@Z
	??4KFbxLayerContainer@fbxsdk_20100@@IAEAAV01@ABV01@@Z
	?smMutex@?$KFbxEvent@VKFbxObjectPropertyChanged@fbxsdk_20100@@@kfbxevents@fbxsdk_20100@@0VKFbxMutex@kfbxmp@3@A
	?ClassId@KFbxLayerContainer@fbxsdk_20100@@2VkFbxClassId@2@A
	?GetTypeSize@?$KBaseArraySizeType@UKFbxPolygon@KFbxMesh@fbxsdk_20100@@@fbxsdk_20100@@QBEHXZ
	?Clear@?$KBaseArray@V?$KBaseArraySizeType@N@fbxsdk_20100@@@fbxsdk_20100@@QAEXXZ
	?GetHeader@?$KBaseArray@V?$KBaseArraySizeType@N@fbxsdk_20100@@@fbxsdk_20100@@IBEQAUKHeader@12@XZ
	?Clear@?$KBaseArray@V?$KBaseArraySizeType@VKVertexNormalInfo@KFbxMesh@fbxsdk_20100@@@fbxsdk_20100@@@fbxsdk_20100@@QAEXXZ
	?GetHeader@?$KBaseArray@V?$KBaseArraySizeType@VKVertexNormalInfo@KFbxMesh@fbxsdk_20100@@@fbxsdk_20100@@@fbxsdk_20100@@IBEQAUKHeader@12@XZ
	?GetHeader@?$KBaseArray@V?$KBaseArraySizeType@VKVertexNormalInfo@KFbxMesh@fbxsdk_20100@@@fbxsdk_20100@@@fbxsdk_20100@@IAEPAUKHeader@12@XZ
	?GetTypeSize@?$KBaseArraySizeType@VKVertexNormalInfo@KFbxMesh@fbxsdk_20100@@@fbxsdk_20100@@QBEHXZ
	?Clear@?$KBaseArray@V?$KBaseArraySizeType@W4ELayerElementType@KFbxLayerElement@fbxsdk_20100@@@fbxsdk_20100@@@fbxsdk_20100@@QAEXXZ
	?Clear@?$KBaseArray@V?$KBaseArraySizeType@PAV?$KArrayTemplate@VKDuplicateVertex@KFbxMesh@fbxsdk_20100@@@fbxsdk_20100@@@fbxsdk_20100@@@fbxsdk_20100@@QAEXXZ
	?GetHeader@?$KBaseArray@V?$KBaseArraySizeType@PAV?$KArrayTemplate@VKDuplicateVertex@KFbxMesh@fbxsdk_20100@@@fbxsdk_20100@@@fbxsdk_20100@@@fbxsdk_20100@@IBEQAUKHeader@12@XZ
	?GetHeader@?$KBaseArray@V?$KBaseArraySizeType@PAV?$KArrayTemplate@VKDuplicateVertex@KFbxMesh@fbxsdk_20100@@@fbxsdk_20100@@@fbxsdk_20100@@@fbxsdk_20100@@IAEPAUKHeader@12@XZ
	?GetTypeSize@?$KBaseArraySizeType@PAV?$KArrayTemplate@VKDuplicateVertex@KFbxMesh@fbxsdk_20100@@@fbxsdk_20100@@@fbxsdk_20100@@QBEHXZ
	?Clear@?$KBaseArray@V?$KBaseArraySizeType@VKDuplicateVertex@KFbxMesh@fbxsdk_20100@@@fbxsdk_20100@@@fbxsdk_20100@@QAEXXZ
	?GetHeader@?$KBaseArray@V?$KBaseArraySizeType@VKDuplicateVertex@KFbxMesh@fbxsdk_20100@@@fbxsdk_20100@@@fbxsdk_20100@@IBEQAUKHeader@12@XZ
	?Clear@?$KBaseArray@V?$KBaseArraySizeType@UKFbxSplitEdgeData@KFbxMesh@fbxsdk_20100@@@fbxsdk_20100@@@fbxsdk_20100@@QAEXXZ
	?GetHeader@?$KBaseArray@V?$KBaseArraySizeType@UKFbxSplitEdgeData@KFbxMesh@fbxsdk_20100@@@fbxsdk_20100@@@fbxsdk_20100@@IBEQAUKHeader@12@XZ
	?GetHeader@?$KBaseArray@V?$KBaseArraySizeType@UKFbxSplitEdgeData@KFbxMesh@fbxsdk_20100@@@fbxsdk_20100@@@fbxsdk_20100@@IAEPAUKHeader@12@XZ
	?GetTypeSize@?$KBaseArraySizeType@UKFbxSplitEdgeData@KFbxMesh@fbxsdk_20100@@@fbxsdk_20100@@QBEHXZ
	?GetHeader@?$KBaseArray@V?$KBaseArraySizeType@PAVKStringListItem@fbxsdk_20100@@@fbxsdk_20100@@@fbxsdk_20100@@IBEQAUKHeader@12@XZ
	?GetTypeSize@?$KBaseArraySizeType@VKFbxVector4@fbxsdk_20100@@@fbxsdk_20100@@QBEHXZ
	?GetBlockCount@?$KBaseArray@V?$KBaseArraySizeType@N@fbxsdk_20100@@@fbxsdk_20100@@IBEHXZ
	?GetBlockCount@?$KBaseArray@V?$KBaseArraySizeType@VKDuplicateVertex@KFbxMesh@fbxsdk_20100@@@fbxsdk_20100@@@fbxsdk_20100@@IBEHXZ
	?GetHeader@?$KBaseArray@V?$KBaseArraySizeType@N@fbxsdk_20100@@@fbxsdk_20100@@IAEPAUKHeader@12@XZ
	?GetTypeSize@?$KBaseArraySizeType@N@fbxsdk_20100@@QBEHXZ
	?GetHeader@?$KBaseArray@V?$KBaseArraySizeType@VKDuplicateVertex@KFbxMesh@fbxsdk_20100@@@fbxsdk_20100@@@fbxsdk_20100@@IAEPAUKHeader@12@XZ
	?GetTypeSize@?$KBaseArraySizeType@VKDuplicateVertex@KFbxMesh@fbxsdk_20100@@@fbxsdk_20100@@QBEHXZ
	??$KFbxCast@VKFbxMesh@fbxsdk_20100@@@fbxsdk_20100@@YAPAVKFbxMesh@0@PAVKFbxPlug@0@@Z
	??$GetLocked@VKFbxVector4@fbxsdk_20100@@@KFbxLayerElementArray@fbxsdk_20100@@QAEPAVKFbxVector4@1@PAV21@W4ELockMode@01@@Z
	??$GetLocked@H@KFbxLayerElementArray@fbxsdk_20100@@QAEPAHPAHW4ELockMode@01@@Z
	??$Release@H@KFbxLayerElementArray@fbxsdk_20100@@QAEXPAPAHPAH@Z
	??$Release@VKFbxVector4@fbxsdk_20100@@@KFbxLayerElementArray@fbxsdk_20100@@QAEXPAPAVKFbxVector4@1@PAV21@@Z
	??$GetLocked@VKFbxVector2@fbxsdk_20100@@@KFbxLayerElementArray@fbxsdk_20100@@QAEPAVKFbxVector2@1@PAV21@W4ELockMode@01@@Z
	??$Release@VKFbxVector2@fbxsdk_20100@@@KFbxLayerElementArray@fbxsdk_20100@@QAEXPAPAVKFbxVector2@1@PAV21@@Z
	??$GetLocked@N@KFbxLayerElementArray@fbxsdk_20100@@QAEPANPANW4ELockMode@01@@Z
	??$Release@N@KFbxLayerElementArray@fbxsdk_20100@@QAEXPAPANPAN@Z
	??$RemoveAt@_N@KFbxLayerElementArray@fbxsdk_20100@@QAEXHPA_N@Z
	??$SetAt@H@KFbxLayerElementArray@fbxsdk_20100@@QAEXHABH@Z
	??$RemoveAt@H@KFbxLayerElementArray@fbxsdk_20100@@QAEXHPAH@Z
	??$GetAt@H@KFbxLayerElementArray@fbxsdk_20100@@QBE_NHPAH@Z
	??$RemoveAt@M@KFbxLayerElementArray@fbxsdk_20100@@QAEXHPAM@Z
	??$RemoveAt@N@KFbxLayerElementArray@fbxsdk_20100@@QAEXHPAN@Z
	??$GetAt@N@KFbxLayerElementArray@fbxsdk_20100@@QBE_NHPAN@Z
	??$SetAt@VKFbxVector4@fbxsdk_20100@@@KFbxLayerElementArray@fbxsdk_20100@@QAEXHABVKFbxVector4@1@@Z
	??$RemoveAt@VKFbxVector4@fbxsdk_20100@@@KFbxLayerElementArray@fbxsdk_20100@@QAEXHPAVKFbxVector4@1@@Z
	??$GetAt@VKFbxVector4@fbxsdk_20100@@@KFbxLayerElementArray@fbxsdk_20100@@QBE_NHPAVKFbxVector4@1@@Z
	??$RemoveAt@VKFbxColor@fbxsdk_20100@@@KFbxLayerElementArray@fbxsdk_20100@@QAEXHPAVKFbxColor@1@@Z
	??$Add@VKFbxVector2@fbxsdk_20100@@@KFbxLayerElementArray@fbxsdk_20100@@QAEHABVKFbxVector2@1@@Z
	??$SetAt@VKFbxVector2@fbxsdk_20100@@@KFbxLayerElementArray@fbxsdk_20100@@QAEXHABVKFbxVector2@1@@Z
	??$RemoveAt@VKFbxVector2@fbxsdk_20100@@@KFbxLayerElementArray@fbxsdk_20100@@QAEXHPAVKFbxVector2@1@@Z
	??$GetAt@VKFbxVector2@fbxsdk_20100@@@KFbxLayerElementArray@fbxsdk_20100@@QBE_NHPAVKFbxVector2@1@@Z
	??$_FbxTypeOf@VKFbxTexture@fbxsdk_20100@@@fbxsdk_20100@@YA?AW4EFbxType@0@ABQAVKFbxTexture@0@@Z
	?GetDirectArrayVoid@KFbxLayerElementUserData@fbxsdk_20100@@QAEPAV?$KFbxLayerElementArrayTemplate@PAX@2@HPA_N@Z
	?TypedClone@KFbxMesh@fbxsdk_20100@@QBEPAV12@PAVKFbxObject@2@W4ECloneType@32@@Z
	?Reset@KFbxMesh@fbxsdk_20100@@QAEXXZ
	?InitTextureUV@KFbxMesh@fbxsdk_20100@@QAEXHW4ELayerElementType@KFbxLayerElement@2@@Z
	?GetTextureUV@KFbxMesh@fbxsdk_20100@@QBE_NPAPAV?$KFbxLayerElementArrayTemplate@VKFbxVector2@fbxsdk_20100@@@2@W4ELayerElementType@KFbxLayerElement@2@@Z
	?GetTextureUVCount@KFbxMesh@fbxsdk_20100@@QAEHW4ELayerElementType@KFbxLayerElement@2@@Z
	?GetMaterialIndices@KFbxMesh@fbxsdk_20100@@QBE_NPAPAV?$KFbxLayerElementArrayTemplate@H@2@@Z
	?InitTextureUVIndices@KFbxMesh@fbxsdk_20100@@QAEXW4EMappingMode@KFbxLayerElement@2@W4ELayerElementType@42@@Z
	?GetTextureIndices@KFbxMesh@fbxsdk_20100@@QBE_NPAPAV?$KFbxLayerElementArrayTemplate@H@2@W4ELayerElementType@KFbxLayerElement@2@@Z
	?EndGetMeshEdgeVertices@KFbxMesh@fbxsdk_20100@@QAEXXZ
	?SetVertexCreaseInfo@KFbxMesh@fbxsdk_20100@@QAE_NHN@Z
	?meshSmoothingReadTest@fbxsdk_20100@@YAXPAVKFbxMesh@1@@Z
	??A?$KArrayTemplate@VKFbxDataType@fbxsdk_20100@@@fbxsdk_20100@@QBEAAVKFbxDataType@1@H@Z
	??1?$KArrayTemplate@PAVKString@fbxsdk_20100@@@fbxsdk_20100@@QAE@XZ
	?RemoveAt@?$KFbxLayerElementArrayTemplate@_N@fbxsdk_20100@@QAE_NH@Z
	?SetAt@?$KFbxLayerElementArrayTemplate@H@fbxsdk_20100@@QAEXHABH@Z
	?RemoveAt@?$KFbxLayerElementArrayTemplate@H@fbxsdk_20100@@QAEHH@Z
	?GetAt@?$KFbxLayerElementArrayTemplate@H@fbxsdk_20100@@QBEHH@Z
	?RemoveAt@?$KFbxLayerElementArrayTemplate@M@fbxsdk_20100@@QAEMH@Z
	?RemoveAt@?$KFbxLayerElementArrayTemplate@N@fbxsdk_20100@@QAENH@Z
	?GetAt@?$KFbxLayerElementArrayTemplate@N@fbxsdk_20100@@QBENH@Z
	??0?$KArrayTemplate@H@fbxsdk_20100@@QAE@XZ
	??1?$KArrayTemplate@H@fbxsdk_20100@@QAE@XZ
	??A?$KArrayTemplate@H@fbxsdk_20100@@QBEAAHH@Z
	?GetArray@?$KArrayTemplate@H@fbxsdk_20100@@QBEPAHXZ
	??A?$KArrayTemplate@PAVKFbxLayer@fbxsdk_20100@@@fbxsdk_20100@@QBEAAPAVKFbxLayer@1@H@Z
	??0?$KArrayTemplate@VKFbxVector4@fbxsdk_20100@@@fbxsdk_20100@@QAE@XZ
	??1?$KArrayTemplate@VKFbxVector4@fbxsdk_20100@@@fbxsdk_20100@@QAE@XZ
	??A?$KArrayTemplate@VKFbxVector4@fbxsdk_20100@@@fbxsdk_20100@@QBEAAVKFbxVector4@1@H@Z
	??0?$KArrayTemplate@UKFbxPolygon@KFbxMesh@fbxsdk_20100@@@fbxsdk_20100@@QAE@XZ
	??1?$KArrayTemplate@UKFbxPolygon@KFbxMesh@fbxsdk_20100@@@fbxsdk_20100@@QAE@XZ
	??A?$KArrayTemplate@UKFbxPolygon@KFbxMesh@fbxsdk_20100@@@fbxsdk_20100@@QBEAAUKFbxPolygon@KFbxMesh@1@H@Z
	??A?$KArrayTemplate@N@fbxsdk_20100@@QBEAANH@Z
	?SetAt@?$KFbxLayerElementArrayTemplate@VKFbxVector4@fbxsdk_20100@@@fbxsdk_20100@@QAEXHABVKFbxVector4@2@@Z
	?RemoveAt@?$KFbxLayerElementArrayTemplate@VKFbxVector4@fbxsdk_20100@@@fbxsdk_20100@@QAE?AVKFbxVector4@2@H@Z
	?GetAt@?$KFbxLayerElementArrayTemplate@VKFbxVector4@fbxsdk_20100@@@fbxsdk_20100@@QBE?AVKFbxVector4@2@H@Z
	??A?$KFbxLayerElementArrayTemplate@VKFbxVector4@fbxsdk_20100@@@fbxsdk_20100@@QBE?AVKFbxVector4@1@H@Z
	?RemoveAt@?$KFbxLayerElementArrayTemplate@VKFbxColor@fbxsdk_20100@@@fbxsdk_20100@@QAE?AVKFbxColor@2@H@Z
	?Add@?$KFbxLayerElementArrayTemplate@VKFbxVector2@fbxsdk_20100@@@fbxsdk_20100@@QAEHABVKFbxVector2@2@@Z
	?SetAt@?$KFbxLayerElementArrayTemplate@VKFbxVector2@fbxsdk_20100@@@fbxsdk_20100@@QAEXHABVKFbxVector2@2@@Z
	?RemoveAt@?$KFbxLayerElementArrayTemplate@VKFbxVector2@fbxsdk_20100@@@fbxsdk_20100@@QAE?AVKFbxVector2@2@H@Z
	?GetAt@?$KFbxLayerElementArrayTemplate@VKFbxVector2@fbxsdk_20100@@@fbxsdk_20100@@QBE?AVKFbxVector2@2@H@Z
	??A?$KArrayTemplate@VKVertexNormalInfo@KFbxMesh@fbxsdk_20100@@@fbxsdk_20100@@QBEAAVKVertexNormalInfo@KFbxMesh@1@H@Z
	??A?$KArrayTemplate@PAV?$KArrayTemplate@VKDuplicateVertex@KFbxMesh@fbxsdk_20100@@@fbxsdk_20100@@@fbxsdk_20100@@QBEAAPAV?$KArrayTemplate@VKDuplicateVertex@KFbxMesh@fbxsdk_20100@@@1@H@Z
	??A?$KArrayTemplate@VKDuplicateVertex@KFbxMesh@fbxsdk_20100@@@fbxsdk_20100@@QBEAAVKDuplicateVertex@KFbxMesh@1@H@Z
	?GetAt@?$KArrayTemplate@VKDuplicateVertex@KFbxMesh@fbxsdk_20100@@@fbxsdk_20100@@QBE?AVKDuplicateVertex@KFbxMesh@2@H@Z
	??A?$KArrayTemplate@UKFbxSplitEdgeData@KFbxMesh@fbxsdk_20100@@@fbxsdk_20100@@QBEAAUKFbxSplitEdgeData@KFbxMesh@1@H@Z
	??1?$KArrayTemplate@PAVKStringListItem@fbxsdk_20100@@@fbxsdk_20100@@QAE@XZ
	??A?$KArrayTemplate@PAVKStringListItem@fbxsdk_20100@@@fbxsdk_20100@@QBEAAPAVKStringListItem@1@H@Z
	?GetAt@?$KArrayTemplate@H@fbxsdk_20100@@QBEHH@Z
	?GetTypeSize@?$KBaseArray@V?$KBaseArraySizeType@H@fbxsdk_20100@@@fbxsdk_20100@@QBEHXZ
	?GetArrayCount@?$KBaseArray@V?$KBaseArraySizeType@H@fbxsdk_20100@@@fbxsdk_20100@@IBEHXZ
	?SetArrayCount@?$KBaseArray@V?$KBaseArraySizeType@H@fbxsdk_20100@@@fbxsdk_20100@@IAEXH@Z
	?GetBlockCount@?$KBaseArray@V?$KBaseArraySizeType@H@fbxsdk_20100@@@fbxsdk_20100@@IBEHXZ
	?SetBlockCount@?$KBaseArray@V?$KBaseArraySizeType@H@fbxsdk_20100@@@fbxsdk_20100@@IAEXH@Z
	??1?$KBaseArray@V?$KBaseArraySizeType@PAVKFbxTakeNode@fbxsdk_20100@@@fbxsdk_20100@@@fbxsdk_20100@@IAE@XZ
	??1?$KBaseArray@V?$KBaseArraySizeType@PAVKFbxDefaultTakeCallback@fbxsdk_20100@@@fbxsdk_20100@@@fbxsdk_20100@@IAE@XZ
	??1?$KBaseArray@V?$KBaseArraySizeType@PAVKFbxLayer@fbxsdk_20100@@@fbxsdk_20100@@@fbxsdk_20100@@IAE@XZ
	??1?$KBaseArray@V?$KBaseArraySizeType@PAVKFbxLayerElement@fbxsdk_20100@@@fbxsdk_20100@@@fbxsdk_20100@@IAE@XZ
	?GetArrayCount@?$KBaseArray@V?$KBaseArraySizeType@VKFbxVector4@fbxsdk_20100@@@fbxsdk_20100@@@fbxsdk_20100@@IBEHXZ
	?SetArrayCount@?$KBaseArray@V?$KBaseArraySizeType@VKFbxVector4@fbxsdk_20100@@@fbxsdk_20100@@@fbxsdk_20100@@IAEXH@Z
	??1?$KBaseArray@V?$KBaseArraySizeType@PAVKFbxShape@fbxsdk_20100@@@fbxsdk_20100@@@fbxsdk_20100@@IAE@XZ
	?GetAt@?$KArrayTemplate@UKFbxPolygon@KFbxMesh@fbxsdk_20100@@@fbxsdk_20100@@QBE?AUKFbxPolygon@KFbxMesh@2@H@Z
	?GetArray@?$KArrayTemplate@UKFbxPolygon@KFbxMesh@fbxsdk_20100@@@fbxsdk_20100@@QBEPAUKFbxPolygon@KFbxMesh@2@XZ
	?GetTypeSize@?$KBaseArray@V?$KBaseArraySizeType@UKFbxPolygon@KFbxMesh@fbxsdk_20100@@@fbxsdk_20100@@@fbxsdk_20100@@QBEHXZ
	?GetArrayCount@?$KBaseArray@V?$KBaseArraySizeType@UKFbxPolygon@KFbxMesh@fbxsdk_20100@@@fbxsdk_20100@@@fbxsdk_20100@@IBEHXZ
	?SetArrayCount@?$KBaseArray@V?$KBaseArraySizeType@UKFbxPolygon@KFbxMesh@fbxsdk_20100@@@fbxsdk_20100@@@fbxsdk_20100@@IAEXH@Z
	?GetBlockCount@?$KBaseArray@V?$KBaseArraySizeType@UKFbxPolygon@KFbxMesh@fbxsdk_20100@@@fbxsdk_20100@@@fbxsdk_20100@@IBEHXZ
	?SetBlockCount@?$KBaseArray@V?$KBaseArraySizeType@UKFbxPolygon@KFbxMesh@fbxsdk_20100@@@fbxsdk_20100@@@fbxsdk_20100@@IAEXH@Z
	??1?$KBaseArray@V?$KBaseArraySizeType@N@fbxsdk_20100@@@fbxsdk_20100@@IAE@XZ
	?GetArrayCount@?$KBaseArray@V?$KBaseArraySizeType@N@fbxsdk_20100@@@fbxsdk_20100@@IBEHXZ
	??1?$KBaseArray@V?$KBaseArraySizeType@VKVertexNormalInfo@KFbxMesh@fbxsdk_20100@@@fbxsdk_20100@@@fbxsdk_20100@@IAE@XZ
	?GetTypeSize@?$KBaseArray@V?$KBaseArraySizeType@VKVertexNormalInfo@KFbxMesh@fbxsdk_20100@@@fbxsdk_20100@@@fbxsdk_20100@@QBEHXZ
	?GetArrayCount@?$KBaseArray@V?$KBaseArraySizeType@VKVertexNormalInfo@KFbxMesh@fbxsdk_20100@@@fbxsdk_20100@@@fbxsdk_20100@@IBEHXZ
	?SetArrayCount@?$KBaseArray@V?$KBaseArraySizeType@VKVertexNormalInfo@KFbxMesh@fbxsdk_20100@@@fbxsdk_20100@@@fbxsdk_20100@@IAEXH@Z
	?GetBlockCount@?$KBaseArray@V?$KBaseArraySizeType@VKVertexNormalInfo@KFbxMesh@fbxsdk_20100@@@fbxsdk_20100@@@fbxsdk_20100@@IBEHXZ
	?SetBlockCount@?$KBaseArray@V?$KBaseArraySizeType@VKVertexNormalInfo@KFbxMesh@fbxsdk_20100@@@fbxsdk_20100@@@fbxsdk_20100@@IAEXH@Z
	??1?$KBaseArray@V?$KBaseArraySizeType@W4ELayerElementType@KFbxLayerElement@fbxsdk_20100@@@fbxsdk_20100@@@fbxsdk_20100@@IAE@XZ
	?GetArray@?$KArrayTemplate@PAV?$KArrayTemplate@VKDuplicateVertex@KFbxMesh@fbxsdk_20100@@@fbxsdk_20100@@@fbxsdk_20100@@QBEPAPAV?$KArrayTemplate@VKDuplicateVertex@KFbxMesh@fbxsdk_20100@@@2@XZ
	??1?$KBaseArray@V?$KBaseArraySizeType@PAV?$KArrayTemplate@VKDuplicateVertex@KFbxMesh@fbxsdk_20100@@@fbxsdk_20100@@@fbxsdk_20100@@@fbxsdk_20100@@IAE@XZ
	?GetTypeSize@?$KBaseArray@V?$KBaseArraySizeType@PAV?$KArrayTemplate@VKDuplicateVertex@KFbxMesh@fbxsdk_20100@@@fbxsdk_20100@@@fbxsdk_20100@@@fbxsdk_20100@@QBEHXZ
	?GetArrayCount@?$KBaseArray@V?$KBaseArraySizeType@PAV?$KArrayTemplate@VKDuplicateVertex@KFbxMesh@fbxsdk_20100@@@fbxsdk_20100@@@fbxsdk_20100@@@fbxsdk_20100@@IBEHXZ
	?SetArrayCount@?$KBaseArray@V?$KBaseArraySizeType@PAV?$KArrayTemplate@VKDuplicateVertex@KFbxMesh@fbxsdk_20100@@@fbxsdk_20100@@@fbxsdk_20100@@@fbxsdk_20100@@IAEXH@Z
	?GetBlockCount@?$KBaseArray@V?$KBaseArraySizeType@PAV?$KArrayTemplate@VKDuplicateVertex@KFbxMesh@fbxsdk_20100@@@fbxsdk_20100@@@fbxsdk_20100@@@fbxsdk_20100@@IBEHXZ
	?SetBlockCount@?$KBaseArray@V?$KBaseArraySizeType@PAV?$KArrayTemplate@VKDuplicateVertex@KFbxMesh@fbxsdk_20100@@@fbxsdk_20100@@@fbxsdk_20100@@@fbxsdk_20100@@IAEXH@Z
	??1?$KBaseArray@V?$KBaseArraySizeType@VKDuplicateVertex@KFbxMesh@fbxsdk_20100@@@fbxsdk_20100@@@fbxsdk_20100@@IAE@XZ
	?GetArrayCount@?$KBaseArray@V?$KBaseArraySizeType@VKDuplicateVertex@KFbxMesh@fbxsdk_20100@@@fbxsdk_20100@@@fbxsdk_20100@@IBEHXZ
	??1?$KBaseArray@V?$KBaseArraySizeType@UKFbxSplitEdgeData@KFbxMesh@fbxsdk_20100@@@fbxsdk_20100@@@fbxsdk_20100@@IAE@XZ
	?GetTypeSize@?$KBaseArray@V?$KBaseArraySizeType@UKFbxSplitEdgeData@KFbxMesh@fbxsdk_20100@@@fbxsdk_20100@@@fbxsdk_20100@@QBEHXZ
	?GetArrayCount@?$KBaseArray@V?$KBaseArraySizeType@UKFbxSplitEdgeData@KFbxMesh@fbxsdk_20100@@@fbxsdk_20100@@@fbxsdk_20100@@IBEHXZ
	?SetArrayCount@?$KBaseArray@V?$KBaseArraySizeType@UKFbxSplitEdgeData@KFbxMesh@fbxsdk_20100@@@fbxsdk_20100@@@fbxsdk_20100@@IAEXH@Z
	?GetBlockCount@?$KBaseArray@V?$KBaseArraySizeType@UKFbxSplitEdgeData@KFbxMesh@fbxsdk_20100@@@fbxsdk_20100@@@fbxsdk_20100@@IBEHXZ
	?SetBlockCount@?$KBaseArray@V?$KBaseArraySizeType@UKFbxSplitEdgeData@KFbxMesh@fbxsdk_20100@@@fbxsdk_20100@@@fbxsdk_20100@@IAEXH@Z
	?GetArrayCount@?$KBaseArray@V?$KBaseArraySizeType@PAVKStringListItem@fbxsdk_20100@@@fbxsdk_20100@@@fbxsdk_20100@@IBEHXZ
	?InsertAt@?$KBaseArray@V?$KBaseArraySizeType@H@fbxsdk_20100@@@fbxsdk_20100@@IAEHHPAX@Z
	?GetTypeSize@?$KBaseArray@V?$KBaseArraySizeType@VKFbxVector4@fbxsdk_20100@@@fbxsdk_20100@@@fbxsdk_20100@@QBEHXZ
	?InsertAt@?$KBaseArray@V?$KBaseArraySizeType@UKFbxPolygon@KFbxMesh@fbxsdk_20100@@@fbxsdk_20100@@@fbxsdk_20100@@IAEHHPAX@Z
	?GetTypeSize@?$KBaseArray@V?$KBaseArraySizeType@N@fbxsdk_20100@@@fbxsdk_20100@@QBEHXZ
	?SetArrayCount@?$KBaseArray@V?$KBaseArraySizeType@N@fbxsdk_20100@@@fbxsdk_20100@@IAEXH@Z
	?SetBlockCount@?$KBaseArray@V?$KBaseArraySizeType@N@fbxsdk_20100@@@fbxsdk_20100@@IAEXH@Z
	?GetTypeSize@?$KBaseArray@V?$KBaseArraySizeType@VKDuplicateVertex@KFbxMesh@fbxsdk_20100@@@fbxsdk_20100@@@fbxsdk_20100@@QBEHXZ
	?SetArrayCount@?$KBaseArray@V?$KBaseArraySizeType@VKDuplicateVertex@KFbxMesh@fbxsdk_20100@@@fbxsdk_20100@@@fbxsdk_20100@@IAEXH@Z
	?SetBlockCount@?$KBaseArray@V?$KBaseArraySizeType@VKDuplicateVertex@KFbxMesh@fbxsdk_20100@@@fbxsdk_20100@@@fbxsdk_20100@@IAEXH@Z
	??$KFbxGetDirectArray@_N@fbxsdk_20100@@YAAAV?$KFbxLayerElementArrayTemplate@_N@0@PAVKFbxLayerElementUserData@0@HPA_N@Z
	??$KFbxGetDirectArray@H@fbxsdk_20100@@YAAAV?$KFbxLayerElementArrayTemplate@H@0@PAVKFbxLayerElementUserData@0@HPA_N@Z
	??$KFbxGetDirectArray@M@fbxsdk_20100@@YAAAV?$KFbxLayerElementArrayTemplate@M@0@PAVKFbxLayerElementUserData@0@HPA_N@Z
	??$KFbxGetDirectArray@N@fbxsdk_20100@@YAAAV?$KFbxLayerElementArrayTemplate@N@0@PAVKFbxLayerElementUserData@0@HPA_N@Z
	??$RemoveAt@PAVKFbxTexture@fbxsdk_20100@@@KFbxLayerElementArray@fbxsdk_20100@@QAEXHPAPAVKFbxTexture@1@@Z
	??1?$KArrayTemplate@VKDuplicateVertex@KFbxMesh@fbxsdk_20100@@@fbxsdk_20100@@QAE@XZ
	?RemoveFromAllDirectArrays@KFbxLayerElementUserData@fbxsdk_20100@@QAEXH@Z
	??1KFbxEdgeLookup@KFbxMesh@fbxsdk_20100@@QAE@XZ
	??0KFbxEdgeLookup@KFbxMesh@fbxsdk_20100@@QAE@XZ
	?Destruct@KFbxMesh@fbxsdk_20100@@MAEX_N0@Z
	?GetPolygonVertices@KFbxMesh@fbxsdk_20100@@QBEPAHXZ
	?AddTextureUV@KFbxMesh@fbxsdk_20100@@QAEXVKFbxVector2@2@W4ELayerElementType@KFbxLayerElement@2@@Z
	?GetUVLayerCount@KFbxMesh@fbxsdk_20100@@QAEHXZ
	?GetCount@?$KBaseArray@V?$KBaseArraySizeType@H@fbxsdk_20100@@@fbxsdk_20100@@QBEHXZ
	?Resize@?$KBaseArray@V?$KBaseArraySizeType@H@fbxsdk_20100@@@fbxsdk_20100@@QAEXH@Z
	??1?$KArrayTemplate@PAVKFbxTakeNode@fbxsdk_20100@@@fbxsdk_20100@@QAE@XZ
	??1?$KArrayTemplate@PAVKFbxDefaultTakeCallback@fbxsdk_20100@@@fbxsdk_20100@@QAE@XZ
	??1?$KArrayTemplate@PAVKFbxLayer@fbxsdk_20100@@@fbxsdk_20100@@QAE@XZ
	??1?$KArrayTemplate@PAVKFbxLayerElement@fbxsdk_20100@@@fbxsdk_20100@@QAE@XZ
	?GetCount@?$KBaseArray@V?$KBaseArraySizeType@VKFbxVector4@fbxsdk_20100@@@fbxsdk_20100@@@fbxsdk_20100@@QBEHXZ
	??1?$KArrayTemplate@PAVKFbxShape@fbxsdk_20100@@@fbxsdk_20100@@QAE@XZ
	??B?$KArrayTemplate@UKFbxPolygon@KFbxMesh@fbxsdk_20100@@@fbxsdk_20100@@QAEPAUKFbxPolygon@KFbxMesh@1@XZ
	?GetCount@?$KBaseArray@V?$KBaseArraySizeType@UKFbxPolygon@KFbxMesh@fbxsdk_20100@@@fbxsdk_20100@@@fbxsdk_20100@@QBEHXZ
	??0?$KArrayTemplate@N@fbxsdk_20100@@QAE@XZ
	??1?$KArrayTemplate@N@fbxsdk_20100@@QAE@XZ
	?RemoveAt@?$KFbxLayerElementArrayTemplate@PAVKFbxTexture@fbxsdk_20100@@@fbxsdk_20100@@QAEPAVKFbxTexture@2@H@Z
	??0?$KArrayTemplate@VKVertexNormalInfo@KFbxMesh@fbxsdk_20100@@@fbxsdk_20100@@QAE@XZ
	??1?$KArrayTemplate@VKVertexNormalInfo@KFbxMesh@fbxsdk_20100@@@fbxsdk_20100@@QAE@XZ
	?Resize@?$KBaseArray@V?$KBaseArraySizeType@VKVertexNormalInfo@KFbxMesh@fbxsdk_20100@@@fbxsdk_20100@@@fbxsdk_20100@@QAEXH@Z
	??1?$KArrayTemplate@W4ELayerElementType@KFbxLayerElement@fbxsdk_20100@@@fbxsdk_20100@@QAE@XZ
	??0?$KArrayTemplate@PAV?$KArrayTemplate@VKDuplicateVertex@KFbxMesh@fbxsdk_20100@@@fbxsdk_20100@@@fbxsdk_20100@@QAE@XZ
	??1?$KArrayTemplate@PAV?$KArrayTemplate@VKDuplicateVertex@KFbxMesh@fbxsdk_20100@@@fbxsdk_20100@@@fbxsdk_20100@@QAE@XZ
	?SetAt@?$KArrayTemplate@PAV?$KArrayTemplate@VKDuplicateVertex@KFbxMesh@fbxsdk_20100@@@fbxsdk_20100@@@fbxsdk_20100@@QAEXHPAV?$KArrayTemplate@VKDuplicateVertex@KFbxMesh@fbxsdk_20100@@@2@@Z
	?GetCount@?$KBaseArray@V?$KBaseArraySizeType@PAV?$KArrayTemplate@VKDuplicateVertex@KFbxMesh@fbxsdk_20100@@@fbxsdk_20100@@@fbxsdk_20100@@@fbxsdk_20100@@QBEHXZ
	?Resize@?$KBaseArray@V?$KBaseArraySizeType@PAV?$KArrayTemplate@VKDuplicateVertex@KFbxMesh@fbxsdk_20100@@@fbxsdk_20100@@@fbxsdk_20100@@@fbxsdk_20100@@QAEXH@Z
	??0?$KArrayTemplate@VKDuplicateVertex@KFbxMesh@fbxsdk_20100@@@fbxsdk_20100@@QAE@XZ
	?GetCount@?$KBaseArray@V?$KBaseArraySizeType@VKDuplicateVertex@KFbxMesh@fbxsdk_20100@@@fbxsdk_20100@@@fbxsdk_20100@@QBEHXZ
	??0?$KArrayTemplate@UKFbxSplitEdgeData@KFbxMesh@fbxsdk_20100@@@fbxsdk_20100@@QAE@XZ
	??1?$KArrayTemplate@UKFbxSplitEdgeData@KFbxMesh@fbxsdk_20100@@@fbxsdk_20100@@QAE@XZ
	?GetCount@?$KBaseArray@V?$KBaseArraySizeType@UKFbxSplitEdgeData@KFbxMesh@fbxsdk_20100@@@fbxsdk_20100@@@fbxsdk_20100@@QBEHXZ
	?Resize@?$KBaseArray@V?$KBaseArraySizeType@UKFbxSplitEdgeData@KFbxMesh@fbxsdk_20100@@@fbxsdk_20100@@@fbxsdk_20100@@QAEXH@Z
	?GetCount@?$KBaseArray@V?$KBaseArraySizeType@PAVKStringListItem@fbxsdk_20100@@@fbxsdk_20100@@@fbxsdk_20100@@QBEHXZ
	?InsertAt@?$KArrayTemplate@H@fbxsdk_20100@@QAEHHH@Z
	?FindAfter@?$KArrayTemplate@H@fbxsdk_20100@@QBEHHH@Z
	?RemoveAt@?$KBaseArray@V?$KBaseArraySizeType@H@fbxsdk_20100@@@fbxsdk_20100@@IAEXH@Z
	?AddMultiple@?$KBaseArray@V?$KBaseArraySizeType@H@fbxsdk_20100@@@fbxsdk_20100@@QAEXH@Z
	?AddMultiple@?$KBaseArray@V?$KBaseArraySizeType@VKFbxVector4@fbxsdk_20100@@@fbxsdk_20100@@@fbxsdk_20100@@QAEXH@Z
	?InsertAt@?$KArrayTemplate@UKFbxPolygon@KFbxMesh@fbxsdk_20100@@@fbxsdk_20100@@QAEHHUKFbxPolygon@KFbxMesh@2@@Z
	?RemoveAt@?$KBaseArray@V?$KBaseArraySizeType@UKFbxPolygon@KFbxMesh@fbxsdk_20100@@@fbxsdk_20100@@@fbxsdk_20100@@IAEXH@Z
	?InsertAt@?$KBaseArray@V?$KBaseArraySizeType@VKFbxVector4@fbxsdk_20100@@@fbxsdk_20100@@@fbxsdk_20100@@IAEHHPAX@Z
	?RemoveAt@?$KBaseArray@V?$KBaseArraySizeType@VKFbxVector4@fbxsdk_20100@@@fbxsdk_20100@@@fbxsdk_20100@@IAEXH@Z
	?InsertAt@?$KBaseArray@V?$KBaseArraySizeType@N@fbxsdk_20100@@@fbxsdk_20100@@IAEHHPAX@Z
	?InsertAt@?$KBaseArray@V?$KBaseArraySizeType@VKDuplicateVertex@KFbxMesh@fbxsdk_20100@@@fbxsdk_20100@@@fbxsdk_20100@@IAEHHPAX@Z
	??1KFbxTakeNodeContainer@fbxsdk_20100@@UAE@XZ
	??_7KFbxTakeNodeContainer@fbxsdk_20100@@6B@
	??_R4KFbxTakeNodeContainer@fbxsdk_20100@@6B@
	??_R0?AVKFbxTakeNodeContainer@fbxsdk_20100@@@8
	??_R3KFbxTakeNodeContainer@fbxsdk_20100@@8
	??_R2KFbxTakeNodeContainer@fbxsdk_20100@@8
	??_R1A@?0A@EA@KFbxTakeNodeContainer@fbxsdk_20100@@8
	?GetClassId@KFbxTakeNodeContainer@fbxsdk_20100@@UBE?AVkFbxClassId@2@XZ
	??_GKFbxTakeNodeContainer@fbxsdk_20100@@UAEPAXI@Z
	??1KFbxNodeAttribute@fbxsdk_20100@@UAE@XZ
	??_7KFbxNodeAttribute@fbxsdk_20100@@6B@
	??_R4KFbxNodeAttribute@fbxsdk_20100@@6B@
	??_R0?AVKFbxNodeAttribute@fbxsdk_20100@@@8
	??_R3KFbxNodeAttribute@fbxsdk_20100@@8
	??_R2KFbxNodeAttribute@fbxsdk_20100@@8
	??_R1A@?0A@EA@KFbxNodeAttribute@fbxsdk_20100@@8
	?GetClassId@KFbxNodeAttribute@fbxsdk_20100@@UBE?AVkFbxClassId@2@XZ
	?GetAttributeType@KFbxNodeAttribute@fbxsdk_20100@@UBE?AW4EAttributeType@12@XZ
	??_GKFbxNodeAttribute@fbxsdk_20100@@UAEPAXI@Z
	??1KFbxLayerContainer@fbxsdk_20100@@UAE@XZ
	??_7KFbxLayerContainer@fbxsdk_20100@@6B@
	??_R4KFbxLayerContainer@fbxsdk_20100@@6B@
	??_R0?AVKFbxLayerContainer@fbxsdk_20100@@@8
	??_R3KFbxLayerContainer@fbxsdk_20100@@8
	??_R2KFbxLayerContainer@fbxsdk_20100@@8
	??_R1A@?0A@EA@KFbxLayerContainer@fbxsdk_20100@@8
	?GetClassId@KFbxLayerContainer@fbxsdk_20100@@UBE?AVkFbxClassId@2@XZ
	?GetAttributeType@KFbxLayerContainer@fbxsdk_20100@@UBE?AW4EAttributeType@KFbxNodeAttribute@2@XZ
	??_GKFbxLayerContainer@fbxsdk_20100@@UAEPAXI@Z
	??1KFbxGeometryBase@fbxsdk_20100@@UAE@XZ
	??_7KFbxGeometryBase@fbxsdk_20100@@6B@
	??_R4KFbxGeometryBase@fbxsdk_20100@@6B@
	??_R0?AVKFbxGeometryBase@fbxsdk_20100@@@8
	??_R3KFbxGeometryBase@fbxsdk_20100@@8
	??_R2KFbxGeometryBase@fbxsdk_20100@@8
	??_R1A@?0A@EA@KFbxGeometryBase@fbxsdk_20100@@8
	?GetClassId@KFbxGeometryBase@fbxsdk_20100@@UBE?AVkFbxClassId@2@XZ
	??_GKFbxGeometryBase@fbxsdk_20100@@UAEPAXI@Z
	??1KFbxGeometry@fbxsdk_20100@@UAE@XZ
	??_7KFbxGeometry@fbxsdk_20100@@6B@
	??_R4KFbxGeometry@fbxsdk_20100@@6B@
	??_R0?AVKFbxGeometry@fbxsdk_20100@@@8
	??_R3KFbxGeometry@fbxsdk_20100@@8
	??_R2KFbxGeometry@fbxsdk_20100@@8
	??_R1A@?0A@EA@KFbxGeometry@fbxsdk_20100@@8
	?GetClassId@KFbxGeometry@fbxsdk_20100@@UBE?AVkFbxClassId@2@XZ
	??_GKFbxGeometry@fbxsdk_20100@@UAEPAXI@Z
	?GetPolygonCount@KFbxMesh@fbxsdk_20100@@QBEHXZ
	?GetPolygonSize@KFbxMesh@fbxsdk_20100@@QBEHH@Z
	?GetPolygonVertex@KFbxMesh@fbxsdk_20100@@QBEHHH@Z
	??0KFbxMesh@fbxsdk_20100@@IAE@AAVKFbxSdkManager@1@PBD@Z
	??_7KFbxMesh@fbxsdk_20100@@6B@
	??_R4KFbxMesh@fbxsdk_20100@@6B@
	??_R0?AVKFbxMesh@fbxsdk_20100@@@8
	??_R3KFbxMesh@fbxsdk_20100@@8
	??_R2KFbxMesh@fbxsdk_20100@@8
	??_R1A@?0A@EA@KFbxMesh@fbxsdk_20100@@8
	?GetClassId@KFbxMesh@fbxsdk_20100@@UBE?AVkFbxClassId@2@XZ
	??1KFbxMesh@fbxsdk_20100@@UAE@XZ
	??_GKFbxMesh@fbxsdk_20100@@UAEPAXI@Z
	?PolySetTexture@KFbxMesh@fbxsdk_20100@@IAEXPAVKFbxLayer@2@HW4ELayerElementType@KFbxLayerElement@2@@Z
	?GetPolygonVertexIndex@KFbxMesh@fbxsdk_20100@@QBEHH@Z
	?RemoveUVIndex@KFbxMesh@fbxsdk_20100@@IAEXPAVKFbxLayerElementUV@2@HH@Z
	?RemoveTextureIndex@KFbxMesh@fbxsdk_20100@@IAEXPAVKFbxLayerElementTexture@2@HH@Z
	?ComputeVertexNormals@KFbxMesh@fbxsdk_20100@@QAEX_N@Z
	?CheckIfVertexNormalsCCW@KFbxMesh@fbxsdk_20100@@QAE_NXZ
	?GetPolygonGroup@KFbxMesh@fbxsdk_20100@@QBEHH@Z
	?GetPolygonVertexNormal@KFbxMesh@fbxsdk_20100@@QBEXHHAAVKFbxVector4@2@@Z
	?GetTextureUVIndex@KFbxMesh@fbxsdk_20100@@QAEHHHW4ELayerElementType@KFbxLayerElement@2@@Z
	?SetTextureUVIndex@KFbxMesh@fbxsdk_20100@@QAEXHHHW4ELayerElementType@KFbxLayerElement@2@@Z
	?IsBadPoly@KFbxMesh@fbxsdk_20100@@IAE_NH@Z
	?GetAllChannelUV@KFbxMesh@fbxsdk_20100@@QAE?AV?$KArrayTemplate@W4ELayerElementType@KFbxLayerElement@fbxsdk_20100@@@2@H@Z
	?InitMaterialIndices@KFbxMesh@fbxsdk_20100@@QAEXW4EMappingMode@KFbxLayerElement@2@@Z
	?InitTextureIndices@KFbxMesh@fbxsdk_20100@@IAEXPAVKFbxLayerElementTexture@2@W4EMappingMode@KFbxLayerElement@2@@Z
	?BuildMergeList@KFbxMesh@fbxsdk_20100@@QAE_NAAV?$KArrayTemplate@H@2@W4ESplitObject@12@_N@Z
	?GetMeshEdgeCount@KFbxMesh@fbxsdk_20100@@QBEHXZ
	?FindPolygonIndex@KFbxMesh@fbxsdk_20100@@IAEHH@Z
	?GetMeshEdgeVertices@KFbxMesh@fbxsdk_20100@@QAEXHAAH0@Z
	?SetMeshEdgeCount@KFbxMesh@fbxsdk_20100@@QAEXH@Z
	?BeginAddMeshEdgeIndex@KFbxMesh@fbxsdk_20100@@QAEXXZ
	?GetPolygonVertexCount@KFbxMesh@fbxsdk_20100@@QBEHXZ
	?BeginGetMeshEdgeVertices@KFbxMesh@fbxsdk_20100@@QAEXXZ
	?IsTriangleMesh@KFbxMesh@fbxsdk_20100@@QBE_NXZ
	?GetEdgeCreaseInfo@KFbxMesh@fbxsdk_20100@@QAENH@Z
	?SetEdgeCreaseInfo@KFbxMesh@fbxsdk_20100@@QAE_NHN@Z
	?Clear@?$KStringListTemplate@VKStringListItem@fbxsdk_20100@@@fbxsdk_20100@@UAEXXZ
	?RemoveAt@?$KArrayTemplate@H@fbxsdk_20100@@QAEHH@Z
	?Find@?$KArrayTemplate@H@fbxsdk_20100@@QBEHH@Z
	?Add@?$KArrayTemplate@H@fbxsdk_20100@@QAEHH@Z
	?AddMultiple@?$KArrayTemplate@H@fbxsdk_20100@@QAEXI@Z
	??4?$KArrayTemplate@H@fbxsdk_20100@@QAEAAV01@ABV01@@Z
	?SetCount@?$KBaseArray@V?$KBaseArraySizeType@H@fbxsdk_20100@@@fbxsdk_20100@@QAEXH@Z
	?SetCount@?$KBaseArray@V?$KBaseArraySizeType@VKFbxVector4@fbxsdk_20100@@@fbxsdk_20100@@@fbxsdk_20100@@QAEXH@Z
	?RemoveAt@?$KArrayTemplate@UKFbxPolygon@KFbxMesh@fbxsdk_20100@@@fbxsdk_20100@@QAE?AUKFbxPolygon@KFbxMesh@2@H@Z
	?Add@?$KArrayTemplate@UKFbxPolygon@KFbxMesh@fbxsdk_20100@@@fbxsdk_20100@@QAEHUKFbxPolygon@KFbxMesh@2@@Z
	??4?$KArrayTemplate@UKFbxPolygon@KFbxMesh@fbxsdk_20100@@@fbxsdk_20100@@QAEAAV01@ABV01@@Z
	?InsertAt@?$KArrayTemplate@VKFbxVector4@fbxsdk_20100@@@fbxsdk_20100@@QAEHHVKFbxVector4@2@@Z
	?RemoveAt@?$KArrayTemplate@VKFbxVector4@fbxsdk_20100@@@fbxsdk_20100@@QAE?AVKFbxVector4@2@H@Z
	?InsertAt@?$KArrayTemplate@N@fbxsdk_20100@@QAEHHN@Z
	?InsertAt@?$KArrayTemplate@VKDuplicateVertex@KFbxMesh@fbxsdk_20100@@@fbxsdk_20100@@QAEHHVKDuplicateVertex@KFbxMesh@2@@Z
	??$DeleteAndClear@PAV?$KArrayTemplate@VKDuplicateVertex@KFbxMesh@fbxsdk_20100@@@fbxsdk_20100@@@fbxsdk_20100@@YAXAAV?$KArrayTemplate@PAV?$KArrayTemplate@VKDuplicateVertex@KFbxMesh@fbxsdk_20100@@@fbxsdk_20100@@@0@@Z
	?BeginPolygon@KFbxMesh@fbxsdk_20100@@QAEXHHH_N@Z
	?BeginPolygonExt@KFbxMesh@fbxsdk_20100@@QAEXHPAH@Z
	?AddPolygon@KFbxMesh@fbxsdk_20100@@QAEXHH@Z
	?RemovePolygon@KFbxMesh@fbxsdk_20100@@QAEHH@Z
	??4KFbxMesh@fbxsdk_20100@@IAEAAV01@ABV01@@Z
	?Clone@KFbxMesh@fbxsdk_20100@@UBEPAVKFbxObject@2@PAV32@W4ECloneType@32@@Z
	?CheckSamePointTwice@KFbxMesh@fbxsdk_20100@@QAE_NXZ
	?RemoveBadPolygons@KFbxMesh@fbxsdk_20100@@QAEHXZ
	?InitTextureIndices@KFbxMesh@fbxsdk_20100@@QAEXW4EMappingMode@KFbxLayerElement@2@W4ELayerElementType@42@@Z
	?SplitPointsForHardEdge@KFbxMesh@fbxsdk_20100@@QAEXAAV?$KArrayTemplate@PAV?$KArrayTemplate@VKDuplicateVertex@KFbxMesh@fbxsdk_20100@@@fbxsdk_20100@@@2@W4ELayerElementType@KFbxLayerElement@2@@Z
	?GetMeshEdgeIndex@KFbxMesh@fbxsdk_20100@@QAEHHHAA_N@Z
	?BuildMeshEdgeArray@KFbxMesh@fbxsdk_20100@@QAEXXZ
	?SetMeshEdgeIndex@KFbxMesh@fbxsdk_20100@@QAEHHHH_N@Z
	?SetMeshEdgeIndex@KFbxMesh@fbxsdk_20100@@QAE_NHHH@Z
	?GetMeshEdgeIndexForPolygon@KFbxMesh@fbxsdk_20100@@QAEHHH@Z
	?ComputeComponentMaps@KFbxMesh@fbxsdk_20100@@QAEXAAUKFbxComponentMap@12@0@Z
	?createMeshCube@fbxsdk_20100@@YAPAVKFbxMesh@1@PAVKFbxSdkManager@1@@Z
	?meshEdgeConsistencyCheck@fbxsdk_20100@@YA_NPAVKFbxMesh@1@@Z
	?meshTriangulationCheck@fbxsdk_20100@@YAXPAVKFbxMesh@1@0@Z
	?meshEdgeTest@fbxsdk_20100@@YAXPAVKFbxSdkManager@1@@Z
	?meshSmoothingTest@fbxsdk_20100@@YAXPAVKFbxSdkManager@1@@Z
	??1?$KStringListTemplate@VKStringListItem@fbxsdk_20100@@@fbxsdk_20100@@UAE@XZ
	??_7?$KStringListTemplate@VKStringListItem@fbxsdk_20100@@@fbxsdk_20100@@6B@
	??_R4?$KStringListTemplate@VKStringListItem@fbxsdk_20100@@@fbxsdk_20100@@6B@
	??_R0?AV?$KStringListTemplate@VKStringListItem@fbxsdk_20100@@@fbxsdk_20100@@@8
	??_R3?$KStringListTemplate@VKStringListItem@fbxsdk_20100@@@fbxsdk_20100@@8
	??_R2?$KStringListTemplate@VKStringListItem@fbxsdk_20100@@@fbxsdk_20100@@8
	??_R1A@?0A@EA@?$KStringListTemplate@VKStringListItem@fbxsdk_20100@@@fbxsdk_20100@@8
	?Buffer@KString@fbxsdk_20100@@QAEPADXZ
	??0KStringListItem@fbxsdk_20100@@QAE@PBDI@Z
	?GetBlockCount@?$KBaseArray@V?$KBaseArraySizeType@PAVKStringListItem@fbxsdk_20100@@@fbxsdk_20100@@@fbxsdk_20100@@IBEHXZ
	?GetHeader@?$KBaseArray@V?$KBaseArraySizeType@PAVKStringListItem@fbxsdk_20100@@@fbxsdk_20100@@@fbxsdk_20100@@IAEPAUKHeader@12@XZ
	?GetTypeSize@?$KBaseArraySizeType@PAVKStringListItem@fbxsdk_20100@@@fbxsdk_20100@@QBEHXZ
	?GetAt@?$KArrayTemplate@PAVKStringListItem@fbxsdk_20100@@@fbxsdk_20100@@QBEPAVKStringListItem@2@H@Z
	?GetTypeSize@?$KBaseArray@V?$KBaseArraySizeType@PAVKStringListItem@fbxsdk_20100@@@fbxsdk_20100@@@fbxsdk_20100@@QBEHXZ
	?SetArrayCount@?$KBaseArray@V?$KBaseArraySizeType@PAVKStringListItem@fbxsdk_20100@@@fbxsdk_20100@@@fbxsdk_20100@@IAEXH@Z
	?SetBlockCount@?$KBaseArray@V?$KBaseArraySizeType@PAVKStringListItem@fbxsdk_20100@@@fbxsdk_20100@@@fbxsdk_20100@@IAEXH@Z
	?InsertAt@?$KBaseArray@V?$KBaseArraySizeType@PAVKStringListItem@fbxsdk_20100@@@fbxsdk_20100@@@fbxsdk_20100@@IAEHHPAX@Z
	?RemoveAt@?$KBaseArray@V?$KBaseArraySizeType@PAVKStringListItem@fbxsdk_20100@@@fbxsdk_20100@@@fbxsdk_20100@@IAEXH@Z
	?SetStringAt@?$KStringListTemplate@VKStringListItem@fbxsdk_20100@@@fbxsdk_20100@@UAE_NHPAD@Z
	?GetText@?$KStringListTemplate@VKStringListItem@fbxsdk_20100@@@fbxsdk_20100@@UAEXAAVKString@2@@Z
	?Add@?$KStringListTemplate@VKStringListItem@fbxsdk_20100@@@fbxsdk_20100@@QAEHPADI@Z
	?InsertAt@?$KArrayTemplate@PAVKStringListItem@fbxsdk_20100@@@fbxsdk_20100@@QAEHHPAVKStringListItem@2@@Z
	?RemoveAt@?$KArrayTemplate@PAVKStringListItem@fbxsdk_20100@@@fbxsdk_20100@@QAEPAVKStringListItem@2@H@Z
	?InsertAt@?$KStringListTemplate@VKStringListItem@fbxsdk_20100@@@fbxsdk_20100@@UAEHHPADI@Z
	?RemoveAt@?$KStringListTemplate@VKStringListItem@fbxsdk_20100@@@fbxsdk_20100@@UAEXH@Z
	?SetText@?$KStringListTemplate@VKStringListItem@fbxsdk_20100@@@fbxsdk_20100@@UAEHPAD@Z
	?RemoveLast@?$KArrayTemplate@VKFbxVector4@fbxsdk_20100@@@fbxsdk_20100@@QAE?AVKFbxVector4@2@XZ
	?Add@?$KArrayTemplate@VKFbxVector4@fbxsdk_20100@@@fbxsdk_20100@@QAEHVKFbxVector4@2@@Z
	?Add@?$KArrayTemplate@N@fbxsdk_20100@@QAEHN@Z
	?Add@?$KArrayTemplate@VKDuplicateVertex@KFbxMesh@fbxsdk_20100@@@fbxsdk_20100@@QAEHVKDuplicateVertex@KFbxMesh@2@@Z
	??_G?$KStringListTemplate@VKStringListItem@fbxsdk_20100@@@fbxsdk_20100@@UAEPAXI@Z
	??1KStringList@fbxsdk_20100@@UAE@XZ
	?GetTypeFlags@KFbxMesh@fbxsdk_20100@@MBE?AVKStringList@2@XZ
	?BuildSplitList@KFbxMesh@fbxsdk_20100@@QAEXAAV?$KArrayTemplate@PAV?$KArrayTemplate@VKDuplicateVertex@KFbxMesh@fbxsdk_20100@@@fbxsdk_20100@@@2@W4ESplitObject@12@@Z
	?SplitPoints@KFbxMesh@fbxsdk_20100@@QAEXW4ELayerElementType@KFbxLayerElement@2@@Z
	?MergePointsForPolygonVerteNormals@KFbxMesh@fbxsdk_20100@@QAEXAAV?$KArrayTemplate@H@2@@Z
	?AddMeshEdgeIndex@KFbxMesh@fbxsdk_20100@@QAEHHH_N@Z
	?AddMeshEdgeIndexForPolygon@KFbxMesh@fbxsdk_20100@@QAEHHH@Z
	?meshSplitTest@fbxsdk_20100@@YAXPAVKFbxSdkManager@1@@Z
	?meshMergeTest@fbxsdk_20100@@YAXPAVKFbxSdkManager@1@@Z
	?smMutex@?$KFbxEvent@VKFbxObjectPropertyChanged@fbxsdk_20100@@@kfbxevents@fbxsdk_20100@@0VKFbxMutex@kfbxmp@3@A
	?ClassId@KFbxMesh@fbxsdk_20100@@2VkFbxClassId@2@A
	?GetDirectArray@?$KFbxLayerElementTemplate@H@fbxsdk_20100@@QAEAAV?$KFbxLayerElementArrayTemplate@H@2@XZ
	?GetDirectArray@?$KFbxLayerElementTemplate@VKFbxVector2@fbxsdk_20100@@@fbxsdk_20100@@QAEAAV?$KFbxLayerElementArrayTemplate@VKFbxVector2@fbxsdk_20100@@@2@XZ
	?GetIndexArray@?$KFbxLayerElementTemplate@VKFbxVector2@fbxsdk_20100@@@fbxsdk_20100@@QAEAAV?$KFbxLayerElementArrayTemplate@H@2@XZ
	?GetDirectArray@?$KFbxLayerElementTemplate@VKFbxColor@fbxsdk_20100@@@fbxsdk_20100@@QAEAAV?$KFbxLayerElementArrayTemplate@VKFbxColor@fbxsdk_20100@@@2@XZ
	?GetIndexArray@?$KFbxLayerElementTemplate@VKFbxColor@fbxsdk_20100@@@fbxsdk_20100@@QAEAAV?$KFbxLayerElementArrayTemplate@H@2@XZ
	?Clear@?$KBaseArray@V?$KBaseArraySizeType@PAVKString@fbxsdk_20100@@@fbxsdk_20100@@@fbxsdk_20100@@QAEXXZ
	?Clear@?$KBaseArray@V?$KBaseArraySizeType@UKFbxPolygon@KFbxMesh@fbxsdk_20100@@@fbxsdk_20100@@@fbxsdk_20100@@QAEXXZ
	??0?$KPair@HH@fbxsdk_20100@@QAE@XZ
	?Clear@?$KBaseArray@V?$KBaseArraySizeType@PAV?$KMap@HHU?$KFbxLessCompare@H@fbxsdk_20100@@VKBaseAllocator@2@@fbxsdk_20100@@@fbxsdk_20100@@@fbxsdk_20100@@QAEXXZ
	??0?$KBaseArray@V?$KBaseArraySizeType@H@fbxsdk_20100@@@fbxsdk_20100@@IAE@V?$KBaseArraySizeType@H@1@@Z
	??1?$KBaseArray@V?$KBaseArraySizeType@H@fbxsdk_20100@@@fbxsdk_20100@@IAE@XZ
	?GetHeaderOffset@?$KBaseArray@V?$KBaseArraySizeType@H@fbxsdk_20100@@@fbxsdk_20100@@IBEHXZ
	??0?$KBaseArray@V?$KBaseArraySizeType@N@fbxsdk_20100@@@fbxsdk_20100@@IAE@V?$KBaseArraySizeType@N@1@@Z
	?GetHeaderOffset@?$KBaseArray@V?$KBaseArraySizeType@N@fbxsdk_20100@@@fbxsdk_20100@@IBEHXZ
	??0?$KBaseArray@V?$KBaseArraySizeType@PAVKString@fbxsdk_20100@@@fbxsdk_20100@@@fbxsdk_20100@@IAE@V?$KBaseArraySizeType@PAVKString@fbxsdk_20100@@@1@@Z
	??1?$KBaseArray@V?$KBaseArraySizeType@PAVKString@fbxsdk_20100@@@fbxsdk_20100@@@fbxsdk_20100@@IAE@XZ
	?GetHeaderOffset@?$KBaseArray@V?$KBaseArraySizeType@PAVKString@fbxsdk_20100@@@fbxsdk_20100@@@fbxsdk_20100@@IBEHXZ
	??0?$KBaseArray@V?$KBaseArraySizeType@VKFbxVector4@fbxsdk_20100@@@fbxsdk_20100@@@fbxsdk_20100@@IAE@V?$KBaseArraySizeType@VKFbxVector4@fbxsdk_20100@@@1@@Z
	?Clear@?$KBaseArray@V?$KBaseArraySizeType@VKFbxVector4@fbxsdk_20100@@@fbxsdk_20100@@@fbxsdk_20100@@QAEXXZ
	?GetHeaderOffset@?$KBaseArray@V?$KBaseArraySizeType@VKFbxVector4@fbxsdk_20100@@@fbxsdk_20100@@@fbxsdk_20100@@IBEHXZ
	?GetHeaderOffset@?$KBaseArray@V?$KBaseArraySizeType@UKFbxPolygon@KFbxMesh@fbxsdk_20100@@@fbxsdk_20100@@@fbxsdk_20100@@IBEHXZ
	??0?$KBaseArray@V?$KBaseArraySizeType@PAVKFbxCluster@fbxsdk_20100@@@fbxsdk_20100@@@fbxsdk_20100@@IAE@V?$KBaseArraySizeType@PAVKFbxCluster@fbxsdk_20100@@@1@@Z
	?GetHeaderOffset@?$KBaseArray@V?$KBaseArraySizeType@PAVKFbxCluster@fbxsdk_20100@@@fbxsdk_20100@@@fbxsdk_20100@@IBEHXZ
	??0?$KBaseArray@V?$KBaseArraySizeType@PAVKFCurve@fbxsdk_20100@@@fbxsdk_20100@@@fbxsdk_20100@@IAE@V?$KBaseArraySizeType@PAVKFCurve@fbxsdk_20100@@@1@@Z
	?GetHeaderOffset@?$KBaseArray@V?$KBaseArraySizeType@PAVKFCurve@fbxsdk_20100@@@fbxsdk_20100@@@fbxsdk_20100@@IBEHXZ
	?GetValue@KKeyValuePair@?$KMap@V?$KPair@HH@fbxsdk_20100@@HVPointsToEdgeComparator@2@VKBaseAllocator@2@@fbxsdk_20100@@QBEABHXZ
	??0?$KBaseArray@V?$KBaseArraySizeType@V?$KPair@HH@fbxsdk_20100@@@fbxsdk_20100@@@fbxsdk_20100@@IAE@V?$KBaseArraySizeType@V?$KPair@HH@fbxsdk_20100@@@1@@Z
	?GetHeaderOffset@?$KBaseArray@V?$KBaseArraySizeType@V?$KPair@HH@fbxsdk_20100@@@fbxsdk_20100@@@fbxsdk_20100@@IBEHXZ
	??0?$KBaseArray@V?$KBaseArraySizeType@PAVKFbxMesh@fbxsdk_20100@@@fbxsdk_20100@@@fbxsdk_20100@@IAE@V?$KBaseArraySizeType@PAVKFbxMesh@fbxsdk_20100@@@1@@Z
	?GetHeaderOffset@?$KBaseArray@V?$KBaseArraySizeType@PAVKFbxMesh@fbxsdk_20100@@@fbxsdk_20100@@@fbxsdk_20100@@IBEHXZ
	??0?$KBaseArray@V?$KBaseArraySizeType@PAV?$KMap@HHU?$KFbxLessCompare@H@fbxsdk_20100@@VKBaseAllocator@2@@fbxsdk_20100@@@fbxsdk_20100@@@fbxsdk_20100@@IAE@V?$KBaseArraySizeType@PAV?$KMap@HHU?$KFbxLessCompare@H@fbxsdk_20100@@VKBaseAllocator@2@@fbxsdk_20100@@@1@@Z
	??1?$KBaseArray@V?$KBaseArraySizeType@PAV?$KMap@HHU?$KFbxLessCompare@H@fbxsdk_20100@@VKBaseAllocator@2@@fbxsdk_20100@@@fbxsdk_20100@@@fbxsdk_20100@@IAE@XZ
	?GetHeaderOffset@?$KBaseArray@V?$KBaseArraySizeType@PAV?$KMap@HHU?$KFbxLessCompare@H@fbxsdk_20100@@VKBaseAllocator@2@@fbxsdk_20100@@@fbxsdk_20100@@@fbxsdk_20100@@IBEHXZ
	?GetValue@KKeyValuePair@?$KMap@HHU?$KFbxLessCompare@H@fbxsdk_20100@@VKBaseAllocator@2@@fbxsdk_20100@@QBEABHXZ
	?GetAt@?$KArrayTemplate@H@fbxsdk_20100@@QBEHH@Z
	?GetHeader@?$KBaseArray@V?$KBaseArraySizeType@H@fbxsdk_20100@@@fbxsdk_20100@@IBEQAUKHeader@12@XZ
	?GetHeader@?$KBaseArray@V?$KBaseArraySizeType@H@fbxsdk_20100@@@fbxsdk_20100@@IAEPAUKHeader@12@XZ
	?GetTypeSize@?$KBaseArraySizeType@H@fbxsdk_20100@@QBEHXZ
	?Clear@?$KBaseArray@V?$KBaseArraySizeType@N@fbxsdk_20100@@@fbxsdk_20100@@QAEXXZ
	?GetHeader@?$KBaseArray@V?$KBaseArraySizeType@N@fbxsdk_20100@@@fbxsdk_20100@@IBEQAUKHeader@12@XZ
	?GetHeader@?$KBaseArray@V?$KBaseArraySizeType@N@fbxsdk_20100@@@fbxsdk_20100@@IAEPAUKHeader@12@XZ
	?GetBlockCount@?$KBaseArray@V?$KBaseArraySizeType@N@fbxsdk_20100@@@fbxsdk_20100@@IBEHXZ
	?SetBlockCount@?$KBaseArray@V?$KBaseArraySizeType@N@fbxsdk_20100@@@fbxsdk_20100@@IAEXH@Z
	?GetHeader@?$KBaseArray@V?$KBaseArraySizeType@PAVKString@fbxsdk_20100@@@fbxsdk_20100@@@fbxsdk_20100@@IBEQAUKHeader@12@XZ
	?GetHeader@?$KBaseArray@V?$KBaseArraySizeType@VKFbxVector4@fbxsdk_20100@@@fbxsdk_20100@@@fbxsdk_20100@@IBEQAUKHeader@12@XZ
	?GetHeader@?$KBaseArray@V?$KBaseArraySizeType@VKFbxVector4@fbxsdk_20100@@@fbxsdk_20100@@@fbxsdk_20100@@IAEPAUKHeader@12@XZ
	?GetTypeSize@?$KBaseArraySizeType@VKFbxVector4@fbxsdk_20100@@@fbxsdk_20100@@QBEHXZ
	?GetHeader@?$KBaseArray@V?$KBaseArraySizeType@UKFbxPolygon@KFbxMesh@fbxsdk_20100@@@fbxsdk_20100@@@fbxsdk_20100@@IBEQAUKHeader@12@XZ
	?Clear@?$KBaseArray@V?$KBaseArraySizeType@PAVKFbxCluster@fbxsdk_20100@@@fbxsdk_20100@@@fbxsdk_20100@@QAEXXZ
	?GetHeader@?$KBaseArray@V?$KBaseArraySizeType@PAVKFbxCluster@fbxsdk_20100@@@fbxsdk_20100@@@fbxsdk_20100@@IBEQAUKHeader@12@XZ
	?GetHeader@?$KBaseArray@V?$KBaseArraySizeType@PAVKFbxCluster@fbxsdk_20100@@@fbxsdk_20100@@@fbxsdk_20100@@IAEPAUKHeader@12@XZ
	?GetTypeSize@?$KBaseArraySizeType@PAVKFbxCluster@fbxsdk_20100@@@fbxsdk_20100@@QBEHXZ
	?Clear@?$KBaseArray@V?$KBaseArraySizeType@PAVKFCurve@fbxsdk_20100@@@fbxsdk_20100@@@fbxsdk_20100@@QAEXXZ
	?GetHeader@?$KBaseArray@V?$KBaseArraySizeType@PAVKFCurve@fbxsdk_20100@@@fbxsdk_20100@@@fbxsdk_20100@@IBEQAUKHeader@12@XZ
	?GetHeader@?$KBaseArray@V?$KBaseArraySizeType@PAVKFCurve@fbxsdk_20100@@@fbxsdk_20100@@@fbxsdk_20100@@IAEPAUKHeader@12@XZ
	?GetTypeSize@?$KBaseArraySizeType@PAVKFCurve@fbxsdk_20100@@@fbxsdk_20100@@QBEHXZ
	?GetKey@KKeyValuePair@?$KMap@V?$KPair@HH@fbxsdk_20100@@HVPointsToEdgeComparator@2@VKBaseAllocator@2@@fbxsdk_20100@@QBEABV?$KPair@HH@3@XZ
	??0?$KPair@$$CBV?$KPair@HH@fbxsdk_20100@@H@fbxsdk_20100@@QAE@ABV?$KPair@HH@1@ABH@Z
	?Clear@?$KBaseArray@V?$KBaseArraySizeType@V?$KPair@HH@fbxsdk_20100@@@fbxsdk_20100@@@fbxsdk_20100@@QAEXXZ
	?GetHeader@?$KBaseArray@V?$KBaseArraySizeType@V?$KPair@HH@fbxsdk_20100@@@fbxsdk_20100@@@fbxsdk_20100@@IBEQAUKHeader@12@XZ
	?GetHeader@?$KBaseArray@V?$KBaseArraySizeType@V?$KPair@HH@fbxsdk_20100@@@fbxsdk_20100@@@fbxsdk_20100@@IAEPAUKHeader@12@XZ
	?GetTypeSize@?$KBaseArraySizeType@V?$KPair@HH@fbxsdk_20100@@@fbxsdk_20100@@QBEHXZ
	?Clear@?$KBaseArray@V?$KBaseArraySizeType@PAVKFbxMesh@fbxsdk_20100@@@fbxsdk_20100@@@fbxsdk_20100@@QAEXXZ
	?GetHeader@?$KBaseArray@V?$KBaseArraySizeType@PAVKFbxMesh@fbxsdk_20100@@@fbxsdk_20100@@@fbxsdk_20100@@IBEQAUKHeader@12@XZ
	?GetHeader@?$KBaseArray@V?$KBaseArraySizeType@PAVKFbxMesh@fbxsdk_20100@@@fbxsdk_20100@@@fbxsdk_20100@@IAEPAUKHeader@12@XZ
	?GetBlockCount@?$KBaseArray@V?$KBaseArraySizeType@PAVKFbxMesh@fbxsdk_20100@@@fbxsdk_20100@@@fbxsdk_20100@@IBEHXZ
	?SetBlockCount@?$KBaseArray@V?$KBaseArraySizeType@PAVKFbxMesh@fbxsdk_20100@@@fbxsdk_20100@@@fbxsdk_20100@@IAEXH@Z
	?GetHeader@?$KBaseArray@V?$KBaseArraySizeType@PAV?$KMap@HHU?$KFbxLessCompare@H@fbxsdk_20100@@VKBaseAllocator@2@@fbxsdk_20100@@@fbxsdk_20100@@@fbxsdk_20100@@IBEQAUKHeader@12@XZ
	?GetHeader@?$KBaseArray@V?$KBaseArraySizeType@PAV?$KMap@HHU?$KFbxLessCompare@H@fbxsdk_20100@@VKBaseAllocator@2@@fbxsdk_20100@@@fbxsdk_20100@@@fbxsdk_20100@@IAEPAUKHeader@12@XZ
	?GetBlockCount@?$KBaseArray@V?$KBaseArraySizeType@PAV?$KMap@HHU?$KFbxLessCompare@H@fbxsdk_20100@@VKBaseAllocator@2@@fbxsdk_20100@@@fbxsdk_20100@@@fbxsdk_20100@@IBEHXZ
	?SetBlockCount@?$KBaseArray@V?$KBaseArraySizeType@PAV?$KMap@HHU?$KFbxLessCompare@H@fbxsdk_20100@@VKBaseAllocator@2@@fbxsdk_20100@@@fbxsdk_20100@@@fbxsdk_20100@@IAEXH@Z
	?GetKey@KKeyValuePair@?$KMap@HHU?$KFbxLessCompare@H@fbxsdk_20100@@VKBaseAllocator@2@@fbxsdk_20100@@QBEABHXZ
	??0?$KPair@$$CBHH@fbxsdk_20100@@QAE@ABH0@Z
	??R?$KFbxLessCompare@H@fbxsdk_20100@@QBEHABH0@Z
	?GetTypeSize@?$KBaseArraySizeType@N@fbxsdk_20100@@QBEHXZ
	?GetTypeSize@?$KBaseArraySizeType@PAVKFbxMesh@fbxsdk_20100@@@fbxsdk_20100@@QBEHXZ
	?GetTypeSize@?$KBaseArraySizeType@PAV?$KMap@HHU?$KFbxLessCompare@H@fbxsdk_20100@@VKBaseAllocator@2@@fbxsdk_20100@@@fbxsdk_20100@@QBEHXZ
	??$Release@H@KFbxLayerElementArray@fbxsdk_20100@@QAEXPAPAHPAH@Z
	??$GetLocked@H@KFbxLayerElementArray@fbxsdk_20100@@QAEPAHPAHW4ELockMode@01@@Z
	??$KFbxSetPolygon@VKFbxVector4@fbxsdk_20100@@@fbxsdk_20100@@YAXPAV?$KFbxLayerElementTemplate@VKFbxVector4@fbxsdk_20100@@@0@HH_N@Z
	??$KFbxSetPolygon@PAVKFbxSurfaceMaterial@fbxsdk_20100@@@fbxsdk_20100@@YAXPAV?$KFbxLayerElementTemplate@PAVKFbxSurfaceMaterial@fbxsdk_20100@@@0@HH_N@Z
	??$KFbxSetPolygon@VKFbxColor@fbxsdk_20100@@@fbxsdk_20100@@YAXPAV?$KFbxLayerElementTemplate@VKFbxColor@fbxsdk_20100@@@0@HH_N@Z
	??$KFbxSetPolygon@VKFbxVector2@fbxsdk_20100@@@fbxsdk_20100@@YAXPAV?$KFbxLayerElementTemplate@VKFbxVector2@fbxsdk_20100@@@0@HH_N@Z
	??$Release@N@KFbxLayerElementArray@fbxsdk_20100@@QAEXPAPANPAN@Z
	??$GetLocked@VKFbxVector4@fbxsdk_20100@@@KFbxLayerElementArray@fbxsdk_20100@@QAEPAVKFbxVector4@1@PAV21@W4ELockMode@01@@Z
	??$Release@VKFbxVector4@fbxsdk_20100@@@KFbxLayerElementArray@fbxsdk_20100@@QAEXPAPAVKFbxVector4@1@PAV21@@Z
	??$GetLocked@VKFbxVector2@fbxsdk_20100@@@KFbxLayerElementArray@fbxsdk_20100@@QAEPAVKFbxVector2@1@PAV21@W4ELockMode@01@@Z
	??$Release@VKFbxVector2@fbxsdk_20100@@@KFbxLayerElementArray@fbxsdk_20100@@QAEXPAPAVKFbxVector2@1@PAV21@@Z
	??$ConvertNurbs@VKFbxNurb@fbxsdk_20100@@VKFbxNurbsSurface@2@@KFbxGeometryConverter@fbxsdk_20100@@IAEXPAVKFbxNurb@1@PAVKFbxNurbsSurface@1@@Z
	??$ConvertNurbs@VKFbxNurbsSurface@fbxsdk_20100@@VKFbxNurb@2@@KFbxGeometryConverter@fbxsdk_20100@@IAEXPAVKFbxNurbsSurface@1@PAVKFbxNurb@1@@Z
	??$KFbxGet@N@fbxsdk_20100@@YANABVKFbxProperty@0@@Z
	??$Add@H@KFbxLayerElementArray@fbxsdk_20100@@QAEHABH@Z
	??$SetAt@H@KFbxLayerElementArray@fbxsdk_20100@@QAEXHABH@Z
	??$GetAt@H@KFbxLayerElementArray@fbxsdk_20100@@QBE_NHPAH@Z
	??$Add@VKFbxVector4@fbxsdk_20100@@@KFbxLayerElementArray@fbxsdk_20100@@QAEHABVKFbxVector4@1@@Z
	??$SetAt@VKFbxVector4@fbxsdk_20100@@@KFbxLayerElementArray@fbxsdk_20100@@QAEXHABVKFbxVector4@1@@Z
	??$GetAt@VKFbxVector4@fbxsdk_20100@@@KFbxLayerElementArray@fbxsdk_20100@@QBE_NHPAVKFbxVector4@1@@Z
	??$Add@VKFbxVector2@fbxsdk_20100@@@KFbxLayerElementArray@fbxsdk_20100@@QAEHABVKFbxVector2@1@@Z
	??$GetAt@VKFbxVector2@fbxsdk_20100@@@KFbxLayerElementArray@fbxsdk_20100@@QBE_NHPAVKFbxVector2@1@@Z
	??$Add@VKFbxColor@fbxsdk_20100@@@KFbxLayerElementArray@fbxsdk_20100@@QAEHABVKFbxColor@1@@Z
	??$GetAt@VKFbxColor@fbxsdk_20100@@@KFbxLayerElementArray@fbxsdk_20100@@QBE_NHPAVKFbxColor@1@@Z
	?GetDirectArray@?$KFbxLayerElementTemplate@VKFbxVector4@fbxsdk_20100@@@fbxsdk_20100@@QBEAAV?$KFbxLayerElementArrayTemplate@VKFbxVector4@fbxsdk_20100@@@2@XZ
	?GetIndexArray@?$KFbxLayerElementTemplate@VKFbxVector4@fbxsdk_20100@@@fbxsdk_20100@@QBEAAV?$KFbxLayerElementArrayTemplate@H@2@XZ
	?GetIndexArray@?$KFbxLayerElementTemplate@PAVKFbxSurfaceMaterial@fbxsdk_20100@@@fbxsdk_20100@@QBEAAV?$KFbxLayerElementArrayTemplate@H@2@XZ
	?GetDirectArray@?$KFbxLayerElementTemplate@H@fbxsdk_20100@@QBEAAV?$KFbxLayerElementArrayTemplate@H@2@XZ
	?GetIndexArray@?$KFbxLayerElementTemplate@H@fbxsdk_20100@@QBEAAV?$KFbxLayerElementArrayTemplate@H@2@XZ
	?GetIndexArray@?$KFbxLayerElementTemplate@H@fbxsdk_20100@@QAEAAV?$KFbxLayerElementArrayTemplate@H@2@XZ
	?GetDirectArray@?$KFbxLayerElementTemplate@VKFbxVector2@fbxsdk_20100@@@fbxsdk_20100@@QBEAAV?$KFbxLayerElementArrayTemplate@VKFbxVector2@fbxsdk_20100@@@2@XZ
	?GetIndexArray@?$KFbxLayerElementTemplate@VKFbxVector2@fbxsdk_20100@@@fbxsdk_20100@@QBEAAV?$KFbxLayerElementArrayTemplate@H@2@XZ
	?GetDirectArray@?$KFbxLayerElementTemplate@VKFbxColor@fbxsdk_20100@@@fbxsdk_20100@@QBEAAV?$KFbxLayerElementArrayTemplate@VKFbxColor@fbxsdk_20100@@@2@XZ
	?GetIndexArray@?$KFbxLayerElementTemplate@VKFbxColor@fbxsdk_20100@@@fbxsdk_20100@@QBEAAV?$KFbxLayerElementArrayTemplate@H@2@XZ
	??A?$KFbxLayerElementArrayTemplate@H@fbxsdk_20100@@QBEHH@Z
	?GetDirectArray@?$KFbxLayerElementTemplate@PAVKFbxTexture@fbxsdk_20100@@@fbxsdk_20100@@QBEAAV?$KFbxLayerElementArrayTemplate@PAVKFbxTexture@fbxsdk_20100@@@2@XZ
	?GetDirectArray@?$KFbxLayerElementTemplate@PAVKFbxTexture@fbxsdk_20100@@@fbxsdk_20100@@QAEAAV?$KFbxLayerElementArrayTemplate@PAVKFbxTexture@fbxsdk_20100@@@2@XZ
	?GetIndexArray@?$KFbxLayerElementTemplate@PAVKFbxTexture@fbxsdk_20100@@@fbxsdk_20100@@QBEAAV?$KFbxLayerElementArrayTemplate@H@2@XZ
	?GetIndexArray@?$KFbxLayerElementTemplate@PAVKFbxTexture@fbxsdk_20100@@@fbxsdk_20100@@QAEAAV?$KFbxLayerElementArrayTemplate@H@2@XZ
	??A?$KFbxLayerElementArrayTemplate@VKFbxVector2@fbxsdk_20100@@@fbxsdk_20100@@QBE?AVKFbxVector2@1@H@Z
	??A?$KFbxLayerElementArrayTemplate@VKFbxColor@fbxsdk_20100@@@fbxsdk_20100@@QBE?AVKFbxColor@1@H@Z
	??$SetAt@VKFbxVector2@fbxsdk_20100@@@KFbxLayerElementArray@fbxsdk_20100@@QAEXHABVKFbxVector2@1@@Z
	??$SetAt@VKFbxColor@fbxsdk_20100@@@KFbxLayerElementArray@fbxsdk_20100@@QAEXHABVKFbxColor@1@@Z
	??$_FbxTypeOf@VKFbxSurfaceMaterial@fbxsdk_20100@@@fbxsdk_20100@@YA?AW4EFbxType@0@ABQAVKFbxSurfaceMaterial@0@@Z
	??$_FbxTypeOf@VKFbxTexture@fbxsdk_20100@@@fbxsdk_20100@@YA?AW4EFbxType@0@ABQAVKFbxTexture@0@@Z
	?RangeIntersects@KXRange@KBitSet@fbxsdk_20100@@QBE_NABV123@@Z
	?ContainsBitAbsoluteIndex@KBitSegment@KBitSet@fbxsdk_20100@@QBE_NH@Z
	??1KBitSet@fbxsdk_20100@@QAE@XZ
	?GetSizeInSegments@KBitSet@fbxsdk_20100@@IBEHXZ
	?SafeAssign@KBitSegment@KBitSet@fbxsdk_20100@@IAEPAV123@AAV23@HI@Z
	?GetBit@KBitSet@fbxsdk_20100@@QBE_NH@Z
	?GuarantySegment@KBitSet@fbxsdk_20100@@IAEPAVKBitSegment@12@ABVKXRange@12@@Z
	?RevertMaterialReferenceModeConversion@KFbxGeometryConverter@fbxsdk_20100@@IBEXPAVKFbxMesh@2@@Z
	?FlipNurb@KFbxGeometryConverter@fbxsdk_20100@@QAEPAVKFbxNurb@2@PAV32@_N1@Z
	?FlipNurbsSurface@KFbxGeometryConverter@fbxsdk_20100@@QAEPAVKFbxNurbsSurface@2@PAV32@_N1@Z
	?InitializeWeightInNormals@KFbxGeometryConverter@fbxsdk_20100@@IAEXPAVKFbxLayerContainer@2@@Z
	?ConvertNurbsSurfaceToNurb@KFbxGeometryConverter@fbxsdk_20100@@QAEPAVKFbxNurb@2@PAVKFbxNurbsSurface@2@@Z
	?ConvertNurbToNurbsSurface@KFbxGeometryConverter@fbxsdk_20100@@QAEPAVKFbxNurbsSurface@2@PAVKFbxNurb@2@@Z
	??0?$KArrayTemplate@H@fbxsdk_20100@@QAE@XZ
	??1?$KArrayTemplate@H@fbxsdk_20100@@QAE@XZ
	??A?$KArrayTemplate@H@fbxsdk_20100@@QBEAAHH@Z
	??A?$KArrayTemplate@N@fbxsdk_20100@@QBEAANH@Z
	??0?$KArrayTemplate@PAVKString@fbxsdk_20100@@@fbxsdk_20100@@QAE@XZ
	??1?$KArrayTemplate@PAVKString@fbxsdk_20100@@@fbxsdk_20100@@QAE@XZ
	??A?$KArrayTemplate@PAVKString@fbxsdk_20100@@@fbxsdk_20100@@QBEAAPAVKString@1@H@Z
	?GetAt@?$KArrayTemplate@PAVKString@fbxsdk_20100@@@fbxsdk_20100@@QBEPAVKString@2@H@Z
	?Add@?$KFbxLayerElementArrayTemplate@H@fbxsdk_20100@@QAEHABH@Z
	?SetAt@?$KFbxLayerElementArrayTemplate@H@fbxsdk_20100@@QAEXHABH@Z
	?GetAt@?$KFbxLayerElementArrayTemplate@H@fbxsdk_20100@@QBEHH@Z
	??A?$KArrayTemplate@VKFbxVector4@fbxsdk_20100@@@fbxsdk_20100@@QBEAAVKFbxVector4@1@H@Z
	??A?$KArrayTemplate@UKFbxPolygon@KFbxMesh@fbxsdk_20100@@@fbxsdk_20100@@QBEAAUKFbxPolygon@KFbxMesh@1@H@Z
	??A?$KArrayTemplate@PAVKFbxCluster@fbxsdk_20100@@@fbxsdk_20100@@QBEAAPAVKFbxCluster@1@H@Z
	?Add@?$KFbxLayerElementArrayTemplate@VKFbxVector4@fbxsdk_20100@@@fbxsdk_20100@@QAEHABVKFbxVector4@2@@Z
	?SetAt@?$KFbxLayerElementArrayTemplate@VKFbxVector4@fbxsdk_20100@@@fbxsdk_20100@@QAEXHABVKFbxVector4@2@@Z
	?GetAt@?$KFbxLayerElementArrayTemplate@VKFbxVector4@fbxsdk_20100@@@fbxsdk_20100@@QBE?AVKFbxVector4@2@H@Z
	??A?$KFbxLayerElementArrayTemplate@VKFbxVector4@fbxsdk_20100@@@fbxsdk_20100@@QBE?AVKFbxVector4@1@H@Z
	??A?$KArrayTemplate@PAVKFCurve@fbxsdk_20100@@@fbxsdk_20100@@QBEAAPAVKFCurve@1@H@Z
	?Add@?$KFbxLayerElementArrayTemplate@VKFbxVector2@fbxsdk_20100@@@fbxsdk_20100@@QAEHABVKFbxVector2@2@@Z
	?GetAt@?$KFbxLayerElementArrayTemplate@VKFbxVector2@fbxsdk_20100@@@fbxsdk_20100@@QBE?AVKFbxVector2@2@H@Z
	??A?$KArrayTemplate@V?$KPair@HH@fbxsdk_20100@@@fbxsdk_20100@@QBEAAV?$KPair@HH@1@H@Z
	?Add@?$KFbxLayerElementArrayTemplate@VKFbxColor@fbxsdk_20100@@@fbxsdk_20100@@QAEHABVKFbxColor@2@@Z
	?GetAt@?$KFbxLayerElementArrayTemplate@VKFbxColor@fbxsdk_20100@@@fbxsdk_20100@@QBE?AVKFbxColor@2@H@Z
	?GetAt@?$KArrayTemplate@PAVKFbxMesh@fbxsdk_20100@@@fbxsdk_20100@@QBEPAVKFbxMesh@2@H@Z
	??0?$KArrayTemplate@PAV?$KMap@HHU?$KFbxLessCompare@H@fbxsdk_20100@@VKBaseAllocator@2@@fbxsdk_20100@@@fbxsdk_20100@@QAE@XZ
	??1?$KArrayTemplate@PAV?$KMap@HHU?$KFbxLessCompare@H@fbxsdk_20100@@VKBaseAllocator@2@@fbxsdk_20100@@@fbxsdk_20100@@QAE@XZ
	?GetAt@?$KArrayTemplate@PAV?$KMap@HHU?$KFbxLessCompare@H@fbxsdk_20100@@VKBaseAllocator@2@@fbxsdk_20100@@@fbxsdk_20100@@QBEPAV?$KMap@HHU?$KFbxLessCompare@H@fbxsdk_20100@@VKBaseAllocator@2@@2@H@Z
	?GetTypeSize@?$KBaseArray@V?$KBaseArraySizeType@H@fbxsdk_20100@@@fbxsdk_20100@@QBEHXZ
	?GetArrayCount@?$KBaseArray@V?$KBaseArraySizeType@H@fbxsdk_20100@@@fbxsdk_20100@@IBEHXZ
	?SetArrayCount@?$KBaseArray@V?$KBaseArraySizeType@H@fbxsdk_20100@@@fbxsdk_20100@@IAEXH@Z
	?GetBlockCount@?$KBaseArray@V?$KBaseArraySizeType@H@fbxsdk_20100@@@fbxsdk_20100@@IBEHXZ
	?SetBlockCount@?$KBaseArray@V?$KBaseArraySizeType@H@fbxsdk_20100@@@fbxsdk_20100@@IAEXH@Z
	?GetArray@?$KArrayTemplate@N@fbxsdk_20100@@QBEPANXZ
	??1?$KBaseArray@V?$KBaseArraySizeType@N@fbxsdk_20100@@@fbxsdk_20100@@IAE@XZ
	?GetArrayCount@?$KBaseArray@V?$KBaseArraySizeType@N@fbxsdk_20100@@@fbxsdk_20100@@IBEHXZ
	?SetArrayCount@?$KBaseArray@V?$KBaseArraySizeType@N@fbxsdk_20100@@@fbxsdk_20100@@IAEXH@Z
	?GetArrayCount@?$KBaseArray@V?$KBaseArraySizeType@PAVKString@fbxsdk_20100@@@fbxsdk_20100@@@fbxsdk_20100@@IBEHXZ
	?GetArray@?$KArrayTemplate@VKFbxVector4@fbxsdk_20100@@@fbxsdk_20100@@QBEPAVKFbxVector4@2@XZ
	??1?$KBaseArray@V?$KBaseArraySizeType@VKFbxVector4@fbxsdk_20100@@@fbxsdk_20100@@@fbxsdk_20100@@IAE@XZ
	?GetTypeSize@?$KBaseArray@V?$KBaseArraySizeType@VKFbxVector4@fbxsdk_20100@@@fbxsdk_20100@@@fbxsdk_20100@@QBEHXZ
	?GetArrayCount@?$KBaseArray@V?$KBaseArraySizeType@VKFbxVector4@fbxsdk_20100@@@fbxsdk_20100@@@fbxsdk_20100@@IBEHXZ
	?SetArrayCount@?$KBaseArray@V?$KBaseArraySizeType@VKFbxVector4@fbxsdk_20100@@@fbxsdk_20100@@@fbxsdk_20100@@IAEXH@Z
	?GetBlockCount@?$KBaseArray@V?$KBaseArraySizeType@VKFbxVector4@fbxsdk_20100@@@fbxsdk_20100@@@fbxsdk_20100@@IBEHXZ
	?SetBlockCount@?$KBaseArray@V?$KBaseArraySizeType@VKFbxVector4@fbxsdk_20100@@@fbxsdk_20100@@@fbxsdk_20100@@IAEXH@Z
	?GetArrayCount@?$KBaseArray@V?$KBaseArraySizeType@UKFbxPolygon@KFbxMesh@fbxsdk_20100@@@fbxsdk_20100@@@fbxsdk_20100@@IBEHXZ
	?GetArray@?$KArrayTemplate@PAVKFbxCluster@fbxsdk_20100@@@fbxsdk_20100@@QBEPAPAVKFbxCluster@2@XZ
	??1?$KBaseArray@V?$KBaseArraySizeType@PAVKFbxCluster@fbxsdk_20100@@@fbxsdk_20100@@@fbxsdk_20100@@IAE@XZ
	?GetTypeSize@?$KBaseArray@V?$KBaseArraySizeType@PAVKFbxCluster@fbxsdk_20100@@@fbxsdk_20100@@@fbxsdk_20100@@QBEHXZ
	?GetArrayCount@?$KBaseArray@V?$KBaseArraySizeType@PAVKFbxCluster@fbxsdk_20100@@@fbxsdk_20100@@@fbxsdk_20100@@IBEHXZ
	?SetArrayCount@?$KBaseArray@V?$KBaseArraySizeType@PAVKFbxCluster@fbxsdk_20100@@@fbxsdk_20100@@@fbxsdk_20100@@IAEXH@Z
	?GetBlockCount@?$KBaseArray@V?$KBaseArraySizeType@PAVKFbxCluster@fbxsdk_20100@@@fbxsdk_20100@@@fbxsdk_20100@@IBEHXZ
	?SetBlockCount@?$KBaseArray@V?$KBaseArraySizeType@PAVKFbxCluster@fbxsdk_20100@@@fbxsdk_20100@@@fbxsdk_20100@@IAEXH@Z
	?GetArray@?$KArrayTemplate@PAVKFCurve@fbxsdk_20100@@@fbxsdk_20100@@QBEPAPAVKFCurve@2@XZ
	??1?$KBaseArray@V?$KBaseArraySizeType@PAVKFCurve@fbxsdk_20100@@@fbxsdk_20100@@@fbxsdk_20100@@IAE@XZ
	?GetTypeSize@?$KBaseArray@V?$KBaseArraySizeType@PAVKFCurve@fbxsdk_20100@@@fbxsdk_20100@@@fbxsdk_20100@@QBEHXZ
	?GetArrayCount@?$KBaseArray@V?$KBaseArraySizeType@PAVKFCurve@fbxsdk_20100@@@fbxsdk_20100@@@fbxsdk_20100@@IBEHXZ
	?SetArrayCount@?$KBaseArray@V?$KBaseArraySizeType@PAVKFCurve@fbxsdk_20100@@@fbxsdk_20100@@@fbxsdk_20100@@IAEXH@Z
	?GetBlockCount@?$KBaseArray@V?$KBaseArraySizeType@PAVKFCurve@fbxsdk_20100@@@fbxsdk_20100@@@fbxsdk_20100@@IBEHXZ
	?SetBlockCount@?$KBaseArray@V?$KBaseArraySizeType@PAVKFCurve@fbxsdk_20100@@@fbxsdk_20100@@@fbxsdk_20100@@IAEXH@Z
	??0KKeyValuePair@?$KMap@V?$KPair@HH@fbxsdk_20100@@HVPointsToEdgeComparator@2@VKBaseAllocator@2@@fbxsdk_20100@@QAE@ABV?$KPair@HH@2@ABH@Z
	??1?$KBaseArray@V?$KBaseArraySizeType@V?$KPair@HH@fbxsdk_20100@@@fbxsdk_20100@@@fbxsdk_20100@@IAE@XZ
	?GetTypeSize@?$KBaseArray@V?$KBaseArraySizeType@V?$KPair@HH@fbxsdk_20100@@@fbxsdk_20100@@@fbxsdk_20100@@QBEHXZ
	?GetArrayCount@?$KBaseArray@V?$KBaseArraySizeType@V?$KPair@HH@fbxsdk_20100@@@fbxsdk_20100@@@fbxsdk_20100@@IBEHXZ
	?SetArrayCount@?$KBaseArray@V?$KBaseArraySizeType@V?$KPair@HH@fbxsdk_20100@@@fbxsdk_20100@@@fbxsdk_20100@@IAEXH@Z
	?GetBlockCount@?$KBaseArray@V?$KBaseArraySizeType@V?$KPair@HH@fbxsdk_20100@@@fbxsdk_20100@@@fbxsdk_20100@@IBEHXZ
	?SetBlockCount@?$KBaseArray@V?$KBaseArraySizeType@V?$KPair@HH@fbxsdk_20100@@@fbxsdk_20100@@@fbxsdk_20100@@IAEXH@Z
	?GetArray@?$KArrayTemplate@PAVKFbxMesh@fbxsdk_20100@@@fbxsdk_20100@@QBEPAPAVKFbxMesh@2@XZ
	??1?$KBaseArray@V?$KBaseArraySizeType@PAVKFbxMesh@fbxsdk_20100@@@fbxsdk_20100@@@fbxsdk_20100@@IAE@XZ
	?GetArrayCount@?$KBaseArray@V?$KBaseArraySizeType@PAVKFbxMesh@fbxsdk_20100@@@fbxsdk_20100@@@fbxsdk_20100@@IBEHXZ
	?SetArrayCount@?$KBaseArray@V?$KBaseArraySizeType@PAVKFbxMesh@fbxsdk_20100@@@fbxsdk_20100@@@fbxsdk_20100@@IAEXH@Z
	?GetArray@?$KArrayTemplate@PAV?$KMap@HHU?$KFbxLessCompare@H@fbxsdk_20100@@VKBaseAllocator@2@@fbxsdk_20100@@@fbxsdk_20100@@QBEPAPAV?$KMap@HHU?$KFbxLessCompare@H@fbxsdk_20100@@VKBaseAllocator@2@@2@XZ
	?GetArrayCount@?$KBaseArray@V?$KBaseArraySizeType@PAV?$KMap@HHU?$KFbxLessCompare@H@fbxsdk_20100@@VKBaseAllocator@2@@fbxsdk_20100@@@fbxsdk_20100@@@fbxsdk_20100@@IBEHXZ
	?SetArrayCount@?$KBaseArray@V?$KBaseArraySizeType@PAV?$KMap@HHU?$KFbxLessCompare@H@fbxsdk_20100@@VKBaseAllocator@2@@fbxsdk_20100@@@fbxsdk_20100@@@fbxsdk_20100@@IAEXH@Z
	??0KKeyValuePair@?$KMap@HHU?$KFbxLessCompare@H@fbxsdk_20100@@VKBaseAllocator@2@@fbxsdk_20100@@QAE@ABH0@Z
	?InsertAt@?$KBaseArray@V?$KBaseArraySizeType@H@fbxsdk_20100@@@fbxsdk_20100@@IAEHHPAX@Z
	?GetTypeSize@?$KBaseArray@V?$KBaseArraySizeType@N@fbxsdk_20100@@@fbxsdk_20100@@QBEHXZ
	?InsertAt@?$KBaseArray@V?$KBaseArraySizeType@PAVKFbxCluster@fbxsdk_20100@@@fbxsdk_20100@@@fbxsdk_20100@@IAEHHPAX@Z
	?GetTypeSize@?$KBaseArray@V?$KBaseArraySizeType@PAVKFbxMesh@fbxsdk_20100@@@fbxsdk_20100@@@fbxsdk_20100@@QBEHXZ
	?GetTypeSize@?$KBaseArray@V?$KBaseArraySizeType@PAV?$KMap@HHU?$KFbxLessCompare@H@fbxsdk_20100@@VKBaseAllocator@2@@fbxsdk_20100@@@fbxsdk_20100@@@fbxsdk_20100@@QBEHXZ
	?InsertAt@?$KBaseArray@V?$KBaseArraySizeType@VKFbxVector4@fbxsdk_20100@@@fbxsdk_20100@@@fbxsdk_20100@@IAEHHPAX@Z
	??$KFbxSetPolygon@H@fbxsdk_20100@@YAXPAV?$KFbxLayerElementTemplate@H@0@HH_N@Z
	??$KFbxSetPolygon@PAVKFbxTexture@fbxsdk_20100@@@fbxsdk_20100@@YAXPAV?$KFbxLayerElementTemplate@PAVKFbxTexture@fbxsdk_20100@@@0@HH_N@Z
	??$KFbxUpdatePolygon@VKFbxVector4@fbxsdk_20100@@@fbxsdk_20100@@YAXAAV?$KFbxLayerElementTemplate@VKFbxVector4@fbxsdk_20100@@@0@ABV10@HHHPAHHH@Z
	??$KFbxUpdatePolygon@H@fbxsdk_20100@@YAXAAV?$KFbxLayerElementTemplate@H@0@ABV10@HHHPAHHH@Z
	??$KFbxUpdatePolygon@VKFbxVector4@fbxsdk_20100@@@fbxsdk_20100@@YAXAAV?$KFbxLayerElementTemplate@VKFbxVector4@fbxsdk_20100@@@0@ABV10@HHHPAH2HH_N@Z
	??$KFbxUpdatePolygon@H@fbxsdk_20100@@YAXAAV?$KFbxLayerElementTemplate@H@0@ABV10@HHHPAH2HH_N@Z
	?GetCount@?$KBaseArray@V?$KBaseArraySizeType@PAVKFCurve@fbxsdk_20100@@@fbxsdk_20100@@@fbxsdk_20100@@QBEHXZ
	?SetAt@?$KFbxLayerElementArrayTemplate@VKFbxVector2@fbxsdk_20100@@@fbxsdk_20100@@QAEXHABVKFbxVector2@2@@Z
	?SetAt@?$KFbxLayerElementArrayTemplate@VKFbxColor@fbxsdk_20100@@@fbxsdk_20100@@QAEXHABVKFbxColor@2@@Z
	??$SetAt@PAVKFbxSurfaceMaterial@fbxsdk_20100@@@KFbxLayerElementArray@fbxsdk_20100@@QAEXHABQAVKFbxSurfaceMaterial@1@@Z
	??$GetAt@PAVKFbxSurfaceMaterial@fbxsdk_20100@@@KFbxLayerElementArray@fbxsdk_20100@@QBE_NHPAPAVKFbxSurfaceMaterial@1@@Z
	??$SetAt@PAVKFbxTexture@fbxsdk_20100@@@KFbxLayerElementArray@fbxsdk_20100@@QAEXHABQAVKFbxTexture@1@@Z
	??$GetAt@PAVKFbxTexture@fbxsdk_20100@@@KFbxLayerElementArray@fbxsdk_20100@@QBE_NHPAPAVKFbxTexture@1@@Z
	?GetDataCount@KFbxComponentMap@KFbxMesh@fbxsdk_20100@@QAEHH@Z
	?GetData@KFbxComponentMap@KFbxMesh@fbxsdk_20100@@QAEHHH@Z
	?GetFirstSetBitAbsoluteIndex@KBitSegment@KBitSet@fbxsdk_20100@@QBE_NAAH@Z
	?SetBit@KBitSegment@KBitSet@fbxsdk_20100@@QAEXHAAV23@@Z
	?GetFirstSetBitIndex@KBitSet@fbxsdk_20100@@QBEHXZ
	?SetBit@KBitSet@fbxsdk_20100@@QAEXH@Z
	?ResizePolygon@KFbxGeometryConverter@fbxsdk_20100@@IAEXPAVKFbxMesh@2@HH_N@Z
	?TriangulateContinuousSurface@KFbxGeometryConverter@fbxsdk_20100@@IAEXPAVKFbxMesh@2@PAVKFBXSurfaceEvaluator@2@II_N@Z
	??0KFbxComponentMap@KFbxMesh@fbxsdk_20100@@QAE@XZ
	??1KFbxComponentMap@KFbxMesh@fbxsdk_20100@@QAE@XZ
	?TestAndSet@fbxsdk_20100@@YA_NHPAHHAAUKFbxComponentMap@KFbxMesh@1@1PAV31@PAVKFbxLayerElementSmoothing@1@@Z
	?CreateAndCopyLayerElement@KFbxGeometryConverter@fbxsdk_20100@@QAE_NPAVKFbxMesh@2@0@Z
	?GetCount@?$KBaseArray@V?$KBaseArraySizeType@H@fbxsdk_20100@@@fbxsdk_20100@@QBEHXZ
	?Resize@?$KBaseArray@V?$KBaseArraySizeType@H@fbxsdk_20100@@@fbxsdk_20100@@QAEXH@Z
	??0?$KArrayTemplate@N@fbxsdk_20100@@QAE@XZ
	??1?$KArrayTemplate@N@fbxsdk_20100@@QAE@XZ
	??B?$KArrayTemplate@N@fbxsdk_20100@@QAEPANXZ
	?GetCount@?$KBaseArray@V?$KBaseArraySizeType@PAVKString@fbxsdk_20100@@@fbxsdk_20100@@@fbxsdk_20100@@QBEHXZ
	??1?$KArrayTemplate@VKFbxVector4@fbxsdk_20100@@@fbxsdk_20100@@QAE@XZ
	?SetAt@?$KArrayTemplate@VKFbxVector4@fbxsdk_20100@@@fbxsdk_20100@@QAEXHVKFbxVector4@2@@Z
	?GetCount@?$KBaseArray@V?$KBaseArraySizeType@VKFbxVector4@fbxsdk_20100@@@fbxsdk_20100@@@fbxsdk_20100@@QBEHXZ
	?Empty@?$KBaseArray@V?$KBaseArraySizeType@VKFbxVector4@fbxsdk_20100@@@fbxsdk_20100@@@fbxsdk_20100@@QAEXXZ
	?Resize@?$KBaseArray@V?$KBaseArraySizeType@VKFbxVector4@fbxsdk_20100@@@fbxsdk_20100@@@fbxsdk_20100@@QAEXH@Z
	?GetCount@?$KBaseArray@V?$KBaseArraySizeType@UKFbxPolygon@KFbxMesh@fbxsdk_20100@@@fbxsdk_20100@@@fbxsdk_20100@@QBEHXZ
	??0?$KArrayTemplate@PAVKFbxCluster@fbxsdk_20100@@@fbxsdk_20100@@QAE@XZ
	??1?$KArrayTemplate@PAVKFbxCluster@fbxsdk_20100@@@fbxsdk_20100@@QAE@XZ
	?SetAt@?$KArrayTemplate@PAVKFbxCluster@fbxsdk_20100@@@fbxsdk_20100@@QAEXHPAVKFbxCluster@2@@Z
	?GetCount@?$KBaseArray@V?$KBaseArraySizeType@PAVKFbxCluster@fbxsdk_20100@@@fbxsdk_20100@@@fbxsdk_20100@@QBEHXZ
	?Resize@?$KBaseArray@V?$KBaseArraySizeType@PAVKFbxCluster@fbxsdk_20100@@@fbxsdk_20100@@@fbxsdk_20100@@QAEXH@Z
	??0?$KArrayTemplate@PAVKFCurve@fbxsdk_20100@@@fbxsdk_20100@@QAE@XZ
	??1?$KArrayTemplate@PAVKFCurve@fbxsdk_20100@@@fbxsdk_20100@@QAE@XZ
	?SetAt@?$KArrayTemplate@PAVKFCurve@fbxsdk_20100@@@fbxsdk_20100@@QAEXHPAVKFCurve@2@@Z
	?Resize@?$KBaseArray@V?$KBaseArraySizeType@PAVKFCurve@fbxsdk_20100@@@fbxsdk_20100@@@fbxsdk_20100@@QAEXH@Z
	??0?$KArrayTemplate@V?$KPair@HH@fbxsdk_20100@@@fbxsdk_20100@@QAE@XZ
	??1?$KArrayTemplate@V?$KPair@HH@fbxsdk_20100@@@fbxsdk_20100@@QAE@XZ
	?Resize@?$KBaseArray@V?$KBaseArraySizeType@V?$KPair@HH@fbxsdk_20100@@@fbxsdk_20100@@@fbxsdk_20100@@QAEXH@Z
	??0?$KArrayTemplate@PAVKFbxMesh@fbxsdk_20100@@@fbxsdk_20100@@QAE@XZ
	??1?$KArrayTemplate@PAVKFbxMesh@fbxsdk_20100@@@fbxsdk_20100@@QAE@XZ
	?SetAt@?$KArrayTemplate@PAVKFbxMesh@fbxsdk_20100@@@fbxsdk_20100@@QAEXHPAVKFbxMesh@2@@Z
	?SetAt@?$KArrayTemplate@PAV?$KMap@HHU?$KFbxLessCompare@H@fbxsdk_20100@@VKBaseAllocator@2@@fbxsdk_20100@@@fbxsdk_20100@@QAEXHPAV?$KMap@HHU?$KFbxLessCompare@H@fbxsdk_20100@@VKBaseAllocator@2@@2@@Z
	?InsertAt@?$KArrayTemplate@H@fbxsdk_20100@@QAEHHH@Z
	?FindAfter@?$KArrayTemplate@H@fbxsdk_20100@@QBEHHH@Z
	?AddMultiple@?$KBaseArray@V?$KBaseArraySizeType@N@fbxsdk_20100@@@fbxsdk_20100@@QAEXH@Z
	?InsertAt@?$KArrayTemplate@PAVKFbxCluster@fbxsdk_20100@@@fbxsdk_20100@@QAEHHPAVKFbxCluster@2@@Z
	?Clear@?$KMap@V?$KPair@HH@fbxsdk_20100@@HVPointsToEdgeComparator@2@VKBaseAllocator@2@@fbxsdk_20100@@QAEXXZ
	?AddMultiple@?$KBaseArray@V?$KBaseArraySizeType@PAVKFbxMesh@fbxsdk_20100@@@fbxsdk_20100@@@fbxsdk_20100@@QAEXH@Z
	?AddMultiple@?$KBaseArray@V?$KBaseArraySizeType@PAV?$KMap@HHU?$KFbxLessCompare@H@fbxsdk_20100@@VKBaseAllocator@2@@fbxsdk_20100@@@fbxsdk_20100@@@fbxsdk_20100@@QAEXH@Z
	?InsertAt@?$KBaseArray@V?$KBaseArraySizeType@N@fbxsdk_20100@@@fbxsdk_20100@@IAEHHPAX@Z
	?InsertAt@?$KArrayTemplate@VKFbxVector4@fbxsdk_20100@@@fbxsdk_20100@@QAEHHVKFbxVector4@2@@Z
	??$KFbxUpdatePolygon@VKFbxColor@fbxsdk_20100@@@fbxsdk_20100@@YAXAAV?$KFbxLayerElementTemplate@VKFbxColor@fbxsdk_20100@@@0@ABV10@HHHPAHHH@Z
	??$KFbxUpdatePolygon@VKFbxVector2@fbxsdk_20100@@@fbxsdk_20100@@YAXAAV?$KFbxLayerElementTemplate@VKFbxVector2@fbxsdk_20100@@@0@ABV10@HHHPAHHH@Z
	??$KFbxUpdatePolygon@VKFbxColor@fbxsdk_20100@@@fbxsdk_20100@@YAXAAV?$KFbxLayerElementTemplate@VKFbxColor@fbxsdk_20100@@@0@ABV10@HHHPAH2HH_N@Z
	??$KFbxUpdatePolygon@VKFbxVector2@fbxsdk_20100@@@fbxsdk_20100@@YAXAAV?$KFbxLayerElementTemplate@VKFbxVector2@fbxsdk_20100@@@0@ABV10@HHHPAH2HH_N@Z
	??$DeleteAndClear@PAVKFCurve@fbxsdk_20100@@@fbxsdk_20100@@YAXAAV?$KArrayTemplate@PAVKFCurve@fbxsdk_20100@@@0@@Z
	??$DeleteAndClear@PAVKString@fbxsdk_20100@@@fbxsdk_20100@@YAXAAV?$KArrayTemplate@PAVKString@fbxsdk_20100@@@0@@Z
	?SetAt@?$KFbxLayerElementArrayTemplate@PAVKFbxSurfaceMaterial@fbxsdk_20100@@@fbxsdk_20100@@QAEXHABQAVKFbxSurfaceMaterial@2@@Z
	??A?$KFbxLayerElementArrayTemplate@PAVKFbxSurfaceMaterial@fbxsdk_20100@@@fbxsdk_20100@@QBEPAVKFbxSurfaceMaterial@1@H@Z
	?SetAt@?$KFbxLayerElementArrayTemplate@PAVKFbxTexture@fbxsdk_20100@@@fbxsdk_20100@@QAEXHABQAVKFbxTexture@2@@Z
	??A?$KFbxLayerElementArrayTemplate@PAVKFbxTexture@fbxsdk_20100@@@fbxsdk_20100@@QBEPAVKFbxTexture@1@H@Z
	?GetPolygonCount@KFbxMesh@fbxsdk_20100@@QBEHXZ
	?GetPolygonSize@KFbxMesh@fbxsdk_20100@@QBEHH@Z
	?GetPolygonVertex@KFbxMesh@fbxsdk_20100@@QBEHHH@Z
	?ConvertMaterialReferenceMode@KFbxGeometryConverter@fbxsdk_20100@@IBE_NPAVKFbxMesh@2@@Z
	?InitializeWeightInControlPoints@KFbxGeometryConverter@fbxsdk_20100@@IAEXPAVKFbxGeometryBase@2@@Z
	?CheckForZeroWeightInShape@KFbxGeometryConverter@fbxsdk_20100@@IAEXPAVKFbxGeometry@2@@Z
	?ConvertShapes@KFbxGeometryConverter@fbxsdk_20100@@IAEXPBVKFbxGeometry@2@PAV32@PAVKFbxWeightedMapping@2@@Z
	?ConvertShapes@KFbxGeometryConverter@fbxsdk_20100@@IAEXPBVKFbxGeometry@2@PAV32@PAVKFBXSurfaceEvaluator@2@HH@Z
	?BuildClusterToSourceMapping@KFbxGeometryConverter@fbxsdk_20100@@IAEXABV?$KArrayTemplate@PAVKFbxCluster@fbxsdk_20100@@@2@PAVKFbxWeightedMapping@2@@Z
	?CopyAnimationCurves@KFbxGeometryConverter@fbxsdk_20100@@IAE_NPAVKFbxNode@2@PAVKFbxGeometry@2@@Z
	?ComputeEdgeSmoothingFromPolygonSmoothing@KFbxGeometryConverter@fbxsdk_20100@@QBE_NPAVKFbxMesh@2@H@Z
	?ComputePolygonSmoothingFromEdgeSmoothing@KFbxGeometryConverter@fbxsdk_20100@@QBE_NPAVKFbxMesh@2@H@Z
	?SetLayerElements@KFbxGeometryConverter@fbxsdk_20100@@QAE_NPAVKFbxMesh@2@0HHH_N1@Z
	?Find@?$KArrayTemplate@H@fbxsdk_20100@@QBEHH@Z
	?Add@?$KArrayTemplate@H@fbxsdk_20100@@QAEHH@Z
	?SetCount@?$KBaseArray@V?$KBaseArraySizeType@N@fbxsdk_20100@@@fbxsdk_20100@@QAEXH@Z
	?Add@?$KArrayTemplate@PAVKFbxCluster@fbxsdk_20100@@@fbxsdk_20100@@QAEHPAVKFbxCluster@2@@Z
	??0?$KMap@V?$KPair@HH@fbxsdk_20100@@HVPointsToEdgeComparator@2@VKBaseAllocator@2@@fbxsdk_20100@@QAE@XZ
	??1?$KMap@V?$KPair@HH@fbxsdk_20100@@HVPointsToEdgeComparator@2@VKBaseAllocator@2@@fbxsdk_20100@@QAE@XZ
	?SetCount@?$KBaseArray@V?$KBaseArraySizeType@PAVKFbxMesh@fbxsdk_20100@@@fbxsdk_20100@@@fbxsdk_20100@@QAEXH@Z
	?SetCount@?$KBaseArray@V?$KBaseArraySizeType@PAV?$KMap@HHU?$KFbxLessCompare@H@fbxsdk_20100@@VKBaseAllocator@2@@fbxsdk_20100@@@fbxsdk_20100@@@fbxsdk_20100@@QAEXH@Z
	??0?$KMap@HHU?$KFbxLessCompare@H@fbxsdk_20100@@VKBaseAllocator@2@@fbxsdk_20100@@QAE@XZ
	?InsertAt@?$KArrayTemplate@N@fbxsdk_20100@@QAEHHN@Z
	?Add@?$KArrayTemplate@VKFbxVector4@fbxsdk_20100@@@fbxsdk_20100@@QAEHVKFbxVector4@2@@Z
	??$KFbxUpdatePolygon@PAVKFbxSurfaceMaterial@fbxsdk_20100@@@fbxsdk_20100@@YAXAAV?$KFbxLayerElementTemplate@PAVKFbxSurfaceMaterial@fbxsdk_20100@@@0@ABV10@HHHPAHHH@Z
	??$KFbxUpdatePolygon@PAVKFbxTexture@fbxsdk_20100@@@fbxsdk_20100@@YAXAAV?$KFbxLayerElementTemplate@PAVKFbxTexture@fbxsdk_20100@@@0@ABV10@HHHPAHHH@Z
	??$KFbxUpdatePolygon@PAVKFbxSurfaceMaterial@fbxsdk_20100@@@fbxsdk_20100@@YAXAAV?$KFbxLayerElementTemplate@PAVKFbxSurfaceMaterial@fbxsdk_20100@@@0@ABV10@HHHPAH2HH_N@Z
	??$KFbxUpdatePolygon@PAVKFbxTexture@fbxsdk_20100@@@fbxsdk_20100@@YAXAAV?$KFbxLayerElementTemplate@PAVKFbxTexture@fbxsdk_20100@@@0@ABV10@HHHPAH2HH_N@Z
	?UpdatePolygon@KFbxGeometryConverter@fbxsdk_20100@@IAEXPAVKFbxMesh@2@PBV32@HPAHAAH3@Z
	?UpdatePolygon@KFbxGeometryConverter@fbxsdk_20100@@IAEXPAVKFbxMesh@2@PBV32@HPAHAAH3_N@Z
	?ComputeNurbToMeshControlPointsWeightedMapping@KFbxGeometryConverter@fbxsdk_20100@@IAE_NPAVKFbxNurbsSurface@2@PAVKFbxMesh@2@PAVKFbxWeightedMapping@2@_N3@Z
	?ConvertClusters@KFbxGeometryConverter@fbxsdk_20100@@IAEXABV?$KArrayTemplate@PAVKFbxCluster@fbxsdk_20100@@@2@HAAV32@HPAVKFbxWeightedMapping@2@@Z
	?ConvertNurbToNurbsSurfaceInPlace@KFbxGeometryConverter@fbxsdk_20100@@QAE_NPAVKFbxNode@2@@Z
	?ConvertNurbsSurfaceToNurbInPlace@KFbxGeometryConverter@fbxsdk_20100@@QAE_NPAVKFbxNode@2@@Z
	?ComputeEdgeSmoothingFromNormals@KFbxGeometryConverter@fbxsdk_20100@@QBE_NPAVKFbxMesh@2@@Z
	?SplitMeshPerMaterial@KFbxGeometryConverter@fbxsdk_20100@@QAE_NPAVKFbxMesh@2@@Z
	?Add@?$KArrayTemplate@N@fbxsdk_20100@@QAEHN@Z
	??4?$KArrayTemplate@VKFbxVector4@fbxsdk_20100@@@fbxsdk_20100@@QAEAAV01@ABV01@@Z
	?TriangulateMesh@KFbxGeometryConverter@fbxsdk_20100@@QAEPAVKFbxMesh@2@PBV32@@Z
	?TriangulateMesh2@KFbxGeometryConverter@fbxsdk_20100@@QAEPAVKFbxMesh@2@PBV32@AA_N@Z
	?CreateNurbFromPatch@KFbxGeometryConverter@fbxsdk_20100@@IAEPAVKFbxNurb@2@PAVKFbxPatch@2@@Z
	?CreateNurbsSurfaceFromPatch@KFbxGeometryConverter@fbxsdk_20100@@IAEPAVKFbxNurbsSurface@2@PAVKFbxPatch@2@@Z
	?ComputeMeshToMeshControlPointsWeightedMapping@fbxsdk_20100@@YA_NPAVKFbxMesh@1@0PAVKFbxWeightedMapping@1@@Z
	?ComputePatchToMeshControlPointsWeightedMapping@KFbxGeometryConverter@fbxsdk_20100@@IAE_NPAVKFbxPatch@2@PAVKFbxMesh@2@PAVKFbxWeightedMapping@2@_N@Z
	?ConvertClusters@KFbxGeometryConverter@fbxsdk_20100@@IAEXPBVKFbxGeometry@2@PAV32@PAVKFbxWeightedMapping@2@@Z
	?SplitMeshesPerMaterial@KFbxGeometryConverter@fbxsdk_20100@@QAE_NPAVKFbxScene@2@@Z
	??0?$KArrayTemplate@VKFbxVector4@fbxsdk_20100@@@fbxsdk_20100@@QAE@ABV01@@Z
	?TriangulatePatch@KFbxGeometryConverter@fbxsdk_20100@@QAEPAVKFbxMesh@2@PBVKFbxPatch@2@@Z
	?TriangulateNurb@KFbxGeometryConverter@fbxsdk_20100@@QAEPAVKFbxMesh@2@PBVKFbxNurb@2@@Z
	?TriangulateInPlace@KFbxGeometryConverter@fbxsdk_20100@@QAE_NPAVKFbxNode@2@@Z
	?ConvertGeometryAnimation@KFbxGeometryConverter@fbxsdk_20100@@QAE_NPAVKFbxNode@2@PAVKFbxGeometry@2@1@Z
	?AddAlternateGeometry@KFbxGeometryConverter@fbxsdk_20100@@QAE_NPAVKFbxNode@2@PAVKFbxGeometry@2@1PAVKFbxWeightedMapping@2@_N@Z
	?AddTriangulatedMeshGeometry@KFbxGeometryConverter@fbxsdk_20100@@QAE_NPAVKFbxNode@2@H@Z
	?ConvertPatchToNurb@KFbxGeometryConverter@fbxsdk_20100@@QAEPAVKFbxNurb@2@PAVKFbxPatch@2@@Z
	?ConvertPatchToNurbsSurface@KFbxGeometryConverter@fbxsdk_20100@@QAEPAVKFbxNurbsSurface@2@PAVKFbxPatch@2@@Z
	?ConvertPatchToNurbInPlace@KFbxGeometryConverter@fbxsdk_20100@@QAE_NPAVKFbxNode@2@@Z
	?ConvertPatchToNurbsSurfaceInPlace@KFbxGeometryConverter@fbxsdk_20100@@QAE_NPAVKFbxNode@2@@Z
	?ComputeGeometryControlPointsWeightedMapping@KFbxGeometryConverter@fbxsdk_20100@@QAE_NPAVKFbxGeometry@2@0PAVKFbxWeightedMapping@2@_N@Z
	?DuplicateControlPoints@KFbxGeometryConverter@fbxsdk_20100@@IAEXAAV?$KArrayTemplate@VKFbxVector4@fbxsdk_20100@@@2@AAV?$KArrayTemplate@H@2@@Z
	?EmulateNormalsByPolygonVertex@KFbxGeometryConverter@fbxsdk_20100@@QAE_NPAVKFbxMesh@2@@Z
	?smMutex@?$KFbxEvent@VKFbxObjectPropertyChanged@fbxsdk_20100@@@kfbxevents@fbxsdk_20100@@0VKFbxMutex@kfbxmp@3@A
	?GetClassId@KFbxTakeNodeContainer@fbxsdk_20100@@UBE?AVkFbxClassId@2@XZ
	??_GKFbxTakeNodeContainer@fbxsdk_20100@@UAEPAXI@Z
	??1KFbxNodeAttribute@fbxsdk_20100@@UAE@XZ
	??_7KFbxNodeAttribute@fbxsdk_20100@@6B@
	??_R4KFbxNodeAttribute@fbxsdk_20100@@6B@
	??_R0?AVKFbxNodeAttribute@fbxsdk_20100@@@8
	??_R3KFbxNodeAttribute@fbxsdk_20100@@8
	??_R2KFbxNodeAttribute@fbxsdk_20100@@8
	??_R1A@?0A@EA@KFbxNodeAttribute@fbxsdk_20100@@8
	?GetClassId@KFbxNodeAttribute@fbxsdk_20100@@UBE?AVkFbxClassId@2@XZ
	?GetAttributeType@KFbxNodeAttribute@fbxsdk_20100@@UBE?AW4EAttributeType@12@XZ
	??_GKFbxNodeAttribute@fbxsdk_20100@@UAEPAXI@Z
	??1KFbxLayerContainer@fbxsdk_20100@@UAE@XZ
	??_7KFbxLayerContainer@fbxsdk_20100@@6B@
	??_R4KFbxLayerContainer@fbxsdk_20100@@6B@
	??_R0?AVKFbxLayerContainer@fbxsdk_20100@@@8
	??_R3KFbxLayerContainer@fbxsdk_20100@@8
	??_R2KFbxLayerContainer@fbxsdk_20100@@8
	??_R1A@?0A@EA@KFbxLayerContainer@fbxsdk_20100@@8
	?GetClassId@KFbxLayerContainer@fbxsdk_20100@@UBE?AVkFbxClassId@2@XZ
	?GetAttributeType@KFbxLayerContainer@fbxsdk_20100@@UBE?AW4EAttributeType@KFbxNodeAttribute@2@XZ
	??_GKFbxLayerContainer@fbxsdk_20100@@UAEPAXI@Z
	??0KFbxGeometryBase@fbxsdk_20100@@IAE@AAVKFbxSdkManager@1@PBD@Z
	??_7KFbxGeometryBase@fbxsdk_20100@@6B@
	??_R4KFbxGeometryBase@fbxsdk_20100@@6B@
	??_R0?AVKFbxGeometryBase@fbxsdk_20100@@@8
	??_R3KFbxGeometryBase@fbxsdk_20100@@8
	??_R2KFbxGeometryBase@fbxsdk_20100@@8
	??_R1A@?0A@EA@KFbxGeometryBase@fbxsdk_20100@@8
	?GetClassId@KFbxGeometryBase@fbxsdk_20100@@UBE?AVkFbxClassId@2@XZ
	??1KFbxGeometryBase@fbxsdk_20100@@UAE@XZ
	??_GKFbxGeometryBase@fbxsdk_20100@@UAEPAXI@Z
	?InitNormals@KFbxGeometryBase@fbxsdk_20100@@QAEXH@Z
	?InitTangents@KFbxGeometryBase@fbxsdk_20100@@QAEXH@Z
	?InitBinormals@KFbxGeometryBase@fbxsdk_20100@@QAEXH@Z
	?GetControlPointsCount@KFbxGeometryBase@fbxsdk_20100@@UBEHXZ
	?ComputeBBox@KFbxGeometryBase@fbxsdk_20100@@QAEXXZ
	?ConstructProperties@KFbxGeometryBase@fbxsdk_20100@@MAE_N_N@Z
	?MemoryUsage@KFbxGeometryBase@fbxsdk_20100@@UBEHXZ
	?ContentWriteTo@KFbxGeometryBase@fbxsdk_20100@@UBE_NAAVKFbxStream@2@@Z
	?ContentReadFrom@KFbxGeometryBase@fbxsdk_20100@@UAE_NABVKFbxStream@2@@Z
	??4?$KFbxLayerElementTemplate@VKFbxVector4@fbxsdk_20100@@@fbxsdk_20100@@QAEAAV01@ABV01@@Z
	?SetCount@?$KBaseArray@V?$KBaseArraySizeType@VKFbxVector4@fbxsdk_20100@@@fbxsdk_20100@@@fbxsdk_20100@@QAEXH@Z
	?Add@?$KArrayTemplate@VKFbxVector4@fbxsdk_20100@@@fbxsdk_20100@@QAEHVKFbxVector4@2@@Z
	?InitControlPoints@KFbxGeometryBase@fbxsdk_20100@@UAEXH@Z
	??4KFbxLayerElementNormal@fbxsdk_20100@@QAEAAV01@ABV01@@Z
	??4KFbxLayerElementTangent@fbxsdk_20100@@QAEAAV01@ABV01@@Z
	??4KFbxLayerElementBinormal@fbxsdk_20100@@QAEAAV01@ABV01@@Z
	?SetControlPointCount@KFbxGeometryBase@fbxsdk_20100@@UAEXH@Z
	?SetControlPointAt@KFbxGeometryBase@fbxsdk_20100@@UAEXAAVKFbxVector4@2@H@Z
	??4?$KArrayTemplate@VKFbxVector4@fbxsdk_20100@@@fbxsdk_20100@@QAEAAV01@ABV01@@Z
	?InitNormals@KFbxGeometryBase@fbxsdk_20100@@QAEXPAV12@@Z
	?InitTangents@KFbxGeometryBase@fbxsdk_20100@@QAEXPAV12@@Z
	?InitBinormals@KFbxGeometryBase@fbxsdk_20100@@QAEXPAV12@@Z
	??4KFbxGeometryBase@fbxsdk_20100@@IAEAAV01@ABV01@@Z
	?ClassId@KFbxGeometryBase@fbxsdk_20100@@2VkFbxClassId@2@A
	?smMutex@?$KFbxEvent@VKFbxObjectPropertyChanged@fbxsdk_20100@@@kfbxevents@fbxsdk_20100@@0VKFbxMutex@kfbxmp@3@A
	??$KFbxCast@VKFbxGeometry@fbxsdk_20100@@@fbxsdk_20100@@YAPAVKFbxGeometry@0@PAVKFbxPlug@0@@Z
	??$KFbxGetSrcCount@VKFbxDeformer@fbxsdk_20100@@@fbxsdk_20100@@YAHPBVKFbxObject@0@PBVKFbxDeformer@0@@Z
	??$KFbxGetSrc@VKFbxDeformer@fbxsdk_20100@@@fbxsdk_20100@@YAPAVKFbxDeformer@0@PBVKFbxObject@0@H@Z
	??$Set@N@KFbxProperty@fbxsdk_20100@@QAE_NABN@Z
	??$KFbxGetSrc@VKFbxGeometryWeightedMap@fbxsdk_20100@@@fbxsdk_20100@@YAPAVKFbxGeometryWeightedMap@0@PBVKFbxObject@0@H@Z
	??$KFbxGetDstCount@VKFbxGeometryWeightedMap@fbxsdk_20100@@@fbxsdk_20100@@YAHPBVKFbxObject@0@PBVKFbxGeometryWeightedMap@0@@Z
	??$KFbxGetDst@VKFbxGeometryWeightedMap@fbxsdk_20100@@@fbxsdk_20100@@YAPAVKFbxGeometryWeightedMap@0@PBVKFbxObject@0@H@Z
	??$GetLocked@VKFbxVector4@fbxsdk_20100@@@KFbxLayerElementArray@fbxsdk_20100@@QAEPAVKFbxVector4@1@PAV21@W4ELockMode@01@@Z
	??$Release@VKFbxVector4@fbxsdk_20100@@@KFbxLayerElementArray@fbxsdk_20100@@QAEXPAPAVKFbxVector4@1@PAV21@@Z
	?KmVlength@fbxsdk_20100@@YANQBN@Z
	?KmRtoVXYZ@fbxsdk_20100@@YAPANQANQAY03$$CBN@Z
	?KmRtoV@fbxsdk_20100@@YAPANQANQAY03$$CBN@Z
	?KmAtoVR@fbxsdk_20100@@YAPANPANPAY03$$CBN@Z
	?KgeSet@fbxsdk_20100@@YAAAVKgeRVector@1@AAV21@ABVKgeAMatrix@1@@Z
	??0KgeRVector@fbxsdk_20100@@QAE@ABVKgeAMatrix@1@@Z
	?TypedClone@KFbxGeometry@fbxsdk_20100@@QBEPAV12@PAVKFbxObject@2@W4ECloneType@32@@Z
	?GetDeformerCount@KFbxGeometry@fbxsdk_20100@@QBEHXZ
	?GetDeformer@KFbxGeometry@fbxsdk_20100@@QBEPAVKFbxDeformer@2@H@Z
	?GetDeformerCount@KFbxGeometry@fbxsdk_20100@@QBEHW4EDeformerType@KFbxDeformer@2@@Z
	?GetDeformer@KFbxGeometry@fbxsdk_20100@@QBEPAVKFbxDeformer@2@HW4EDeformerType@32@@Z
	?RemoveDeformer@KFbxGeometry@fbxsdk_20100@@IAEPAVKFbxDeformer@2@H@Z
	?SetDefaultShape@KFbxGeometry@fbxsdk_20100@@QAEXPBDN@Z
	?GetDefaultShape@KFbxGeometry@fbxsdk_20100@@QAENH@Z
	?GetSourceGeometryWeightedMap@KFbxGeometry@fbxsdk_20100@@QAEPAVKFbxGeometryWeightedMap@2@XZ
	?GetDestinationGeometryWeightedMapCount@KFbxGeometry@fbxsdk_20100@@QAEHXZ
	?GetDestinationGeometryWeightedMap@KFbxGeometry@fbxsdk_20100@@QAEPAVKFbxGeometryWeightedMap@2@H@Z
	?CleanShapeChannel@KFbxGeometry@fbxsdk_20100@@QAEXVKString@2@H@Z
	?CreateShapeChannelProperties@KFbxGeometry@fbxsdk_20100@@IAEXAAVKString@2@@Z
	??0?$KArrayTemplate@PAVKString@fbxsdk_20100@@@fbxsdk_20100@@QAE@XZ
	??1?$KArrayTemplate@PAVKString@fbxsdk_20100@@@fbxsdk_20100@@QAE@XZ
	??A?$KArrayTemplate@PAVKString@fbxsdk_20100@@@fbxsdk_20100@@QBEAAPAVKString@1@H@Z
	??0?$KArrayTemplate@PAVKFbxShape@fbxsdk_20100@@@fbxsdk_20100@@QAE@XZ
	??1?$KArrayTemplate@PAVKFbxShape@fbxsdk_20100@@@fbxsdk_20100@@QAE@XZ
	??A?$KArrayTemplate@PAVKFbxShape@fbxsdk_20100@@@fbxsdk_20100@@QBEAAPAVKFbxShape@1@H@Z
	?GetTypeSize@?$KBaseArray@V?$KBaseArraySizeType@PAVKString@fbxsdk_20100@@@fbxsdk_20100@@@fbxsdk_20100@@QBEHXZ
	?GetArrayCount@?$KBaseArray@V?$KBaseArraySizeType@PAVKString@fbxsdk_20100@@@fbxsdk_20100@@@fbxsdk_20100@@IBEHXZ
	?SetArrayCount@?$KBaseArray@V?$KBaseArraySizeType@PAVKString@fbxsdk_20100@@@fbxsdk_20100@@@fbxsdk_20100@@IAEXH@Z
	?GetBlockCount@?$KBaseArray@V?$KBaseArraySizeType@PAVKString@fbxsdk_20100@@@fbxsdk_20100@@@fbxsdk_20100@@IBEHXZ
	?SetBlockCount@?$KBaseArray@V?$KBaseArraySizeType@PAVKString@fbxsdk_20100@@@fbxsdk_20100@@@fbxsdk_20100@@IAEXH@Z
	??1?$KBaseArray@V?$KBaseArraySizeType@PAVKFbxTakeNode@fbxsdk_20100@@@fbxsdk_20100@@@fbxsdk_20100@@IAE@XZ
	??1?$KBaseArray@V?$KBaseArraySizeType@PAVKFbxDefaultTakeCallback@fbxsdk_20100@@@fbxsdk_20100@@@fbxsdk_20100@@IAE@XZ
	??1?$KBaseArray@V?$KBaseArraySizeType@PAVKFbxLayer@fbxsdk_20100@@@fbxsdk_20100@@@fbxsdk_20100@@IAE@XZ
	??1?$KBaseArray@V?$KBaseArraySizeType@PAVKFbxLayerElement@fbxsdk_20100@@@fbxsdk_20100@@@fbxsdk_20100@@IAE@XZ
	??1?$KBaseArray@V?$KBaseArraySizeType@VKFbxVector4@fbxsdk_20100@@@fbxsdk_20100@@@fbxsdk_20100@@IAE@XZ
	?GetArrayCount@?$KBaseArray@V?$KBaseArraySizeType@PAVKFbxShape@fbxsdk_20100@@@fbxsdk_20100@@@fbxsdk_20100@@IBEHXZ
	?InsertAt@?$KBaseArray@V?$KBaseArraySizeType@PAVKString@fbxsdk_20100@@@fbxsdk_20100@@@fbxsdk_20100@@IAEHHPAX@Z
	?GetTypeSize@?$KBaseArray@V?$KBaseArraySizeType@PAVKFbxShape@fbxsdk_20100@@@fbxsdk_20100@@@fbxsdk_20100@@QBEHXZ
	?SetArrayCount@?$KBaseArray@V?$KBaseArraySizeType@PAVKFbxShape@fbxsdk_20100@@@fbxsdk_20100@@@fbxsdk_20100@@IAEXH@Z
	?SetBlockCount@?$KBaseArray@V?$KBaseArraySizeType@PAVKFbxShape@fbxsdk_20100@@@fbxsdk_20100@@@fbxsdk_20100@@IAEXH@Z
	?KmXYZtoR@fbxsdk_20100@@YAPAY03NQAY03NNNN@Z
	?KmVXYZtoR@fbxsdk_20100@@YAPAY03NQAY03NQBN@Z
	??0KgeRMatrix@fbxsdk_20100@@QAE@ABVKgeRVector@1@@Z
	?AddDeformer@KFbxGeometry@fbxsdk_20100@@QAEHPAVKFbxDeformer@2@@Z
	?GetShape@KFbxGeometry@fbxsdk_20100@@UAEPAVKFbxShape@2@H@Z
	?GetShapeName@KFbxGeometry@fbxsdk_20100@@UBEPBDH@Z
	?SetDefaultShape@KFbxGeometry@fbxsdk_20100@@QAEXHN@Z
	?CleanShapeChannels@KFbxGeometry@fbxsdk_20100@@QAEXVKString@2@@Z
	?ApplyPivot@KFbxGeometry@fbxsdk_20100@@QAEXXZ
	?CopyDeformers@KFbxGeometry@fbxsdk_20100@@IAEXPBV12@@Z
	?GetCount@?$KBaseArray@V?$KBaseArraySizeType@PAVKString@fbxsdk_20100@@@fbxsdk_20100@@@fbxsdk_20100@@QBEHXZ
	??1?$KArrayTemplate@PAVKFbxTakeNode@fbxsdk_20100@@@fbxsdk_20100@@QAE@XZ
	??1?$KArrayTemplate@PAVKFbxDefaultTakeCallback@fbxsdk_20100@@@fbxsdk_20100@@QAE@XZ
	??1?$KArrayTemplate@PAVKFbxLayer@fbxsdk_20100@@@fbxsdk_20100@@QAE@XZ
	??1?$KArrayTemplate@PAVKFbxLayerElement@fbxsdk_20100@@@fbxsdk_20100@@QAE@XZ
	??1?$KArrayTemplate@VKFbxVector4@fbxsdk_20100@@@fbxsdk_20100@@QAE@XZ
	?GetCount@?$KBaseArray@V?$KBaseArraySizeType@PAVKFbxShape@fbxsdk_20100@@@fbxsdk_20100@@@fbxsdk_20100@@QBEHXZ
	?InsertAt@?$KArrayTemplate@PAVKString@fbxsdk_20100@@@fbxsdk_20100@@QAEHHPAVKString@2@@Z
	?FindAfter@?$KArrayTemplate@PAVKFbxShape@fbxsdk_20100@@@fbxsdk_20100@@QBEHHPAVKFbxShape@2@@Z
	?InsertAt@?$KBaseArray@V?$KBaseArraySizeType@PAVKFbxShape@fbxsdk_20100@@@fbxsdk_20100@@@fbxsdk_20100@@IAEHHPAX@Z
	??$DeleteAndClear@PAVKString@fbxsdk_20100@@@fbxsdk_20100@@YAXAAV?$KArrayTemplate@PAVKString@fbxsdk_20100@@@0@@Z
	??1KFbxTakeNodeContainer@fbxsdk_20100@@UAE@XZ
	??_7KFbxTakeNodeContainer@fbxsdk_20100@@6B@
	??_R4KFbxTakeNodeContainer@fbxsdk_20100@@6B@
	??_R0?AVKFbxTakeNodeContainer@fbxsdk_20100@@@8
	??_R3KFbxTakeNodeContainer@fbxsdk_20100@@8
	??_R2KFbxTakeNodeContainer@fbxsdk_20100@@8
	??_R1A@?0A@EA@KFbxTakeNodeContainer@fbxsdk_20100@@8
	?GetClassId@KFbxTakeNodeContainer@fbxsdk_20100@@UBE?AVkFbxClassId@2@XZ
	??_GKFbxTakeNodeContainer@fbxsdk_20100@@UAEPAXI@Z
	??1KFbxNodeAttribute@fbxsdk_20100@@UAE@XZ
	??_7KFbxNodeAttribute@fbxsdk_20100@@6B@
	??_R4KFbxNodeAttribute@fbxsdk_20100@@6B@
	??_R0?AVKFbxNodeAttribute@fbxsdk_20100@@@8
	??_R3KFbxNodeAttribute@fbxsdk_20100@@8
	??_R2KFbxNodeAttribute@fbxsdk_20100@@8
	??_R1A@?0A@EA@KFbxNodeAttribute@fbxsdk_20100@@8
	?GetClassId@KFbxNodeAttribute@fbxsdk_20100@@UBE?AVkFbxClassId@2@XZ
	?GetAttributeType@KFbxNodeAttribute@fbxsdk_20100@@UBE?AW4EAttributeType@12@XZ
	??_GKFbxNodeAttribute@fbxsdk_20100@@UAEPAXI@Z
	??1KFbxLayerContainer@fbxsdk_20100@@UAE@XZ
	??_7KFbxLayerContainer@fbxsdk_20100@@6B@
	??_R4KFbxLayerContainer@fbxsdk_20100@@6B@
	??_R0?AVKFbxLayerContainer@fbxsdk_20100@@@8
	??_R3KFbxLayerContainer@fbxsdk_20100@@8
	??_R2KFbxLayerContainer@fbxsdk_20100@@8
	??_R1A@?0A@EA@KFbxLayerContainer@fbxsdk_20100@@8
	?GetClassId@KFbxLayerContainer@fbxsdk_20100@@UBE?AVkFbxClassId@2@XZ
	?GetAttributeType@KFbxLayerContainer@fbxsdk_20100@@UBE?AW4EAttributeType@KFbxNodeAttribute@2@XZ
	??_GKFbxLayerContainer@fbxsdk_20100@@UAEPAXI@Z
	??1KFbxGeometryBase@fbxsdk_20100@@UAE@XZ
	??_7KFbxGeometryBase@fbxsdk_20100@@6B@
	??_R4KFbxGeometryBase@fbxsdk_20100@@6B@
	??_R0?AVKFbxGeometryBase@fbxsdk_20100@@@8
	??_R3KFbxGeometryBase@fbxsdk_20100@@8
	??_R2KFbxGeometryBase@fbxsdk_20100@@8
	??_R1A@?0A@EA@KFbxGeometryBase@fbxsdk_20100@@8
	?GetClassId@KFbxGeometryBase@fbxsdk_20100@@UBE?AVkFbxClassId@2@XZ
	??_GKFbxGeometryBase@fbxsdk_20100@@UAEPAXI@Z
	??0KFbxGeometry@fbxsdk_20100@@IAE@AAVKFbxSdkManager@1@PBD@Z
	??_7KFbxGeometry@fbxsdk_20100@@6B@
	??_R4KFbxGeometry@fbxsdk_20100@@6B@
	??_R0?AVKFbxGeometry@fbxsdk_20100@@@8
	??_R3KFbxGeometry@fbxsdk_20100@@8
	??_R2KFbxGeometry@fbxsdk_20100@@8
	??_R1A@?0A@EA@KFbxGeometry@fbxsdk_20100@@8
	?GetClassId@KFbxGeometry@fbxsdk_20100@@UBE?AVkFbxClassId@2@XZ
	??1KFbxGeometry@fbxsdk_20100@@UAE@XZ
	??_GKFbxGeometry@fbxsdk_20100@@UAEPAXI@Z
	?Destruct@KFbxGeometry@fbxsdk_20100@@MAEX_N0@Z
	?GetShapeCount@KFbxGeometry@fbxsdk_20100@@UBEHXZ
	?ClearShape@KFbxGeometry@fbxsdk_20100@@UAEXXZ
	?SetDocument@KFbxGeometry@fbxsdk_20100@@MAEXPAVKFbxDocument@2@@Z
	?SetNode@KFbxGeometry@fbxsdk_20100@@MAEXAAVKFbxNode@2@@Z
	?ClearTemporaryShapeNames@KFbxGeometry@fbxsdk_20100@@QAEXXZ
	?RevertShapeNamesToV6Format@KFbxGeometry@fbxsdk_20100@@QAEXVKString@2@H@Z
	??4KFbxGeometry@fbxsdk_20100@@IAEAAV01@ABV01@@Z
	?Add@?$KArrayTemplate@PAVKString@fbxsdk_20100@@@fbxsdk_20100@@QAEHPAVKString@2@@Z
	?Find@?$KArrayTemplate@PAVKFbxShape@fbxsdk_20100@@@fbxsdk_20100@@QBEHPAVKFbxShape@2@@Z
	?InsertAt@?$KArrayTemplate@PAVKFbxShape@fbxsdk_20100@@@fbxsdk_20100@@QAEHHPAVKFbxShape@2@@Z
	?Clone@KFbxGeometry@fbxsdk_20100@@UBEPAVKFbxObject@2@PAV32@W4ECloneType@32@@Z
	?RevertShapeNamesToV6Format@KFbxGeometry@fbxsdk_20100@@QAEXVKString@2@@Z
	?ConvertShapeNamesToV5Format@KFbxGeometry@fbxsdk_20100@@QAEXVKString@2@H@Z
	?Add@?$KArrayTemplate@PAVKFbxShape@fbxsdk_20100@@@fbxsdk_20100@@QAEHPAVKFbxShape@2@@Z
	?AddShape@KFbxGeometry@fbxsdk_20100@@UAEHPAVKFbxShape@2@PBD@Z
	?ConvertShapeNamesToV5Format@KFbxGeometry@fbxsdk_20100@@QAEXVKString@2@@Z
	?smMutex@?$KFbxEvent@VKFbxObjectPropertyChanged@fbxsdk_20100@@@kfbxevents@fbxsdk_20100@@0VKFbxMutex@kfbxmp@3@A
	?ClassId@KFbxGeometry@fbxsdk_20100@@2VkFbxClassId@2@A
	?GetClassId@KFbxLodGroup@fbxsdk_20100@@UBE?AVkFbxClassId@2@XZ
	??1KFbxLodGroup@fbxsdk_20100@@UAE@XZ
	??_GKFbxLodGroup@fbxsdk_20100@@UAEPAXI@Z
	?ConstructProperties@KFbxLodGroup@fbxsdk_20100@@MAE_N_N@Z
	?Add@?$KStringListTemplate@VKStringListItem@fbxsdk_20100@@@fbxsdk_20100@@QAEHPADI@Z
	?Clear@?$KStringListTemplate@VKStringListItem@fbxsdk_20100@@@fbxsdk_20100@@UAEXXZ
	??1?$KStringListTemplate@VKStringListItem@fbxsdk_20100@@@fbxsdk_20100@@UAE@XZ
	??_7?$KStringListTemplate@VKStringListItem@fbxsdk_20100@@@fbxsdk_20100@@6B@
	??_R4?$KStringListTemplate@VKStringListItem@fbxsdk_20100@@@fbxsdk_20100@@6B@
	??_R0?AV?$KStringListTemplate@VKStringListItem@fbxsdk_20100@@@fbxsdk_20100@@@8
	??_R3?$KStringListTemplate@VKStringListItem@fbxsdk_20100@@@fbxsdk_20100@@8
	??_R2?$KStringListTemplate@VKStringListItem@fbxsdk_20100@@@fbxsdk_20100@@8
	??_R1A@?0A@EA@?$KStringListTemplate@VKStringListItem@fbxsdk_20100@@@fbxsdk_20100@@8
	?Buffer@KString@fbxsdk_20100@@QAEPADXZ
	??0KStringListItem@fbxsdk_20100@@QAE@PBDI@Z
	?GetBlockCount@?$KBaseArray@V?$KBaseArraySizeType@PAVKStringListItem@fbxsdk_20100@@@fbxsdk_20100@@@fbxsdk_20100@@IBEHXZ
	?GetHeader@?$KBaseArray@V?$KBaseArraySizeType@PAVKStringListItem@fbxsdk_20100@@@fbxsdk_20100@@@fbxsdk_20100@@IAEPAUKHeader@12@XZ
	?GetTypeSize@?$KBaseArraySizeType@PAVKStringListItem@fbxsdk_20100@@@fbxsdk_20100@@QBEHXZ
	?GetAt@?$KArrayTemplate@PAVKStringListItem@fbxsdk_20100@@@fbxsdk_20100@@QBEPAVKStringListItem@2@H@Z
	?GetTypeSize@?$KBaseArray@V?$KBaseArraySizeType@PAVKStringListItem@fbxsdk_20100@@@fbxsdk_20100@@@fbxsdk_20100@@QBEHXZ
	?SetArrayCount@?$KBaseArray@V?$KBaseArraySizeType@PAVKStringListItem@fbxsdk_20100@@@fbxsdk_20100@@@fbxsdk_20100@@IAEXH@Z
	?SetBlockCount@?$KBaseArray@V?$KBaseArraySizeType@PAVKStringListItem@fbxsdk_20100@@@fbxsdk_20100@@@fbxsdk_20100@@IAEXH@Z
	?InsertAt@?$KBaseArray@V?$KBaseArraySizeType@PAVKStringListItem@fbxsdk_20100@@@fbxsdk_20100@@@fbxsdk_20100@@IAEHHPAX@Z
	?RemoveAt@?$KBaseArray@V?$KBaseArraySizeType@PAVKStringListItem@fbxsdk_20100@@@fbxsdk_20100@@@fbxsdk_20100@@IAEXH@Z
	?SetStringAt@?$KStringListTemplate@VKStringListItem@fbxsdk_20100@@@fbxsdk_20100@@UAE_NHPAD@Z
	?GetText@?$KStringListTemplate@VKStringListItem@fbxsdk_20100@@@fbxsdk_20100@@UAEXAAVKString@2@@Z
	?SetText@?$KStringListTemplate@VKStringListItem@fbxsdk_20100@@@fbxsdk_20100@@UAEHPAD@Z
	?InsertAt@?$KArrayTemplate@PAVKStringListItem@fbxsdk_20100@@@fbxsdk_20100@@QAEHHPAVKStringListItem@2@@Z
	?RemoveAt@?$KArrayTemplate@PAVKStringListItem@fbxsdk_20100@@@fbxsdk_20100@@QAEPAVKStringListItem@2@H@Z
	?InsertAt@?$KStringListTemplate@VKStringListItem@fbxsdk_20100@@@fbxsdk_20100@@UAEHHPADI@Z
	?RemoveAt@?$KStringListTemplate@VKStringListItem@fbxsdk_20100@@@fbxsdk_20100@@UAEXH@Z
	??_G?$KStringListTemplate@VKStringListItem@fbxsdk_20100@@@fbxsdk_20100@@UAEPAXI@Z
	??1KStringList@fbxsdk_20100@@UAE@XZ
	?GetTypeFlags@KFbxLodGroup@fbxsdk_20100@@UBE?AVKStringList@2@XZ
	?smMutex@?$KFbxEvent@VKFbxObjectPropertyChanged@fbxsdk_20100@@@kfbxevents@fbxsdk_20100@@0VKFbxMutex@kfbxmp@3@A
	?ClassId@KFbxLodGroup@fbxsdk_20100@@2VkFbxClassId@2@A
	?SetText@?$KStringListTemplate@VKStringListItem@fbxsdk_20100@@@fbxsdk_20100@@UAEHPAD@Z
	?InsertAt@?$KArrayTemplate@PAVKStringListItem@fbxsdk_20100@@@fbxsdk_20100@@QAEHHPAVKStringListItem@2@@Z
	?RemoveAt@?$KArrayTemplate@PAVKStringListItem@fbxsdk_20100@@@fbxsdk_20100@@QAEPAVKStringListItem@2@H@Z
	?InsertAt@?$KStringListTemplate@VKStringListItem@fbxsdk_20100@@@fbxsdk_20100@@UAEHHPADI@Z
	?RemoveAt@?$KStringListTemplate@VKStringListItem@fbxsdk_20100@@@fbxsdk_20100@@UAEXH@Z
	??_G?$KStringListTemplate@VKStringListItem@fbxsdk_20100@@@fbxsdk_20100@@UAEPAXI@Z
	??1KStringList@fbxsdk_20100@@UAE@XZ
	?GetTypeFlags@KFbxNull@fbxsdk_20100@@UBE?AVKStringList@2@XZ
	?smMutex@?$KFbxEvent@VKFbxObjectPropertyChanged@fbxsdk_20100@@@kfbxevents@fbxsdk_20100@@0VKFbxMutex@kfbxmp@3@A
	?ClassId@KFbxNull@fbxsdk_20100@@2VkFbxClassId@2@A
	?GetSize@KFbxMarker@fbxsdk_20100@@QBENXZ
	?SetShowLabel@KFbxMarker@fbxsdk_20100@@QAEX_N@Z
	?GetShowLabel@KFbxMarker@fbxsdk_20100@@QBE_NXZ
	?SetIKPivot@KFbxMarker@fbxsdk_20100@@QAEXAAVKFbxVector4@2@@Z
	?SetDefaultColor@KFbxMarker@fbxsdk_20100@@QAEXAAVKFbxColor@2@@Z
	??1?$KArrayTemplate@PAVKFbxTakeNode@fbxsdk_20100@@@fbxsdk_20100@@QAE@XZ
	??1?$KArrayTemplate@PAVKFbxDefaultTakeCallback@fbxsdk_20100@@@fbxsdk_20100@@QAE@XZ
	?StaticInit@?$KFbxTypedProperty@V?$fbxVectorTemplate3@N@fbxsdk_20100@@@fbxsdk_20100@@QAEABVKFbxProperty@2@PAVKFbxObject@2@PBDABVKFbxDataType@2@ABV?$fbxVectorTemplate3@N@2@_NW4eFbxPropertyFlags@FbxPropertyFlags@2@@Z
	?Get@?$KFbxTypedProperty@V?$fbxVectorTemplate3@N@fbxsdk_20100@@@fbxsdk_20100@@QBE?AV?$fbxVectorTemplate3@N@2@XZ
	?StaticInit@?$KFbxTypedProperty@W4ELook@KFbxMarker@fbxsdk_20100@@@fbxsdk_20100@@QAEABVKFbxProperty@2@PAVKFbxObject@2@PBDABVKFbxDataType@2@ABW4ELook@KFbxMarker@2@_NW4eFbxPropertyFlags@FbxPropertyFlags@2@@Z
	?StaticInit@?$KFbxTypedProperty@N@fbxsdk_20100@@QAEABVKFbxProperty@2@PAVKFbxObject@2@PBDABVKFbxDataType@2@ABN_NW4eFbxPropertyFlags@FbxPropertyFlags@2@@Z
	?StaticInit@?$KFbxTypedProperty@_N@fbxsdk_20100@@QAEABVKFbxProperty@2@PAVKFbxObject@2@PBDABVKFbxDataType@2@AB_N_NW4eFbxPropertyFlags@FbxPropertyFlags@2@@Z
	?GetCount@?$KBaseArray@V?$KBaseArraySizeType@PAVKStringListItem@fbxsdk_20100@@@fbxsdk_20100@@@fbxsdk_20100@@QBEHXZ
	??1KFbxTakeNodeContainer@fbxsdk_20100@@UAE@XZ
	??_7KFbxTakeNodeContainer@fbxsdk_20100@@6B@
	??_R4KFbxTakeNodeContainer@fbxsdk_20100@@6B@
	??_R0?AVKFbxTakeNodeContainer@fbxsdk_20100@@@8
	??_R3KFbxTakeNodeContainer@fbxsdk_20100@@8
	??_R2KFbxTakeNodeContainer@fbxsdk_20100@@8
	??_R1A@?0A@EA@KFbxTakeNodeContainer@fbxsdk_20100@@8
	?GetClassId@KFbxTakeNodeContainer@fbxsdk_20100@@UBE?AVkFbxClassId@2@XZ
	??_GKFbxTakeNodeContainer@fbxsdk_20100@@UAEPAXI@Z
	??1KFbxNodeAttribute@fbxsdk_20100@@UAE@XZ
	??_7KFbxNodeAttribute@fbxsdk_20100@@6B@
	??_R4KFbxNodeAttribute@fbxsdk_20100@@6B@
	??_R0?AVKFbxNodeAttribute@fbxsdk_20100@@@8
	??_R3KFbxNodeAttribute@fbxsdk_20100@@8
	??_R2KFbxNodeAttribute@fbxsdk_20100@@8
	??_R1A@?0A@EA@KFbxNodeAttribute@fbxsdk_20100@@8
	?GetClassId@KFbxNodeAttribute@fbxsdk_20100@@UBE?AVkFbxClassId@2@XZ
	?GetAttributeType@KFbxNodeAttribute@fbxsdk_20100@@UBE?AW4EAttributeType@12@XZ
	??_GKFbxNodeAttribute@fbxsdk_20100@@UAEPAXI@Z
	??0KFbxMarker@fbxsdk_20100@@IAE@AAVKFbxSdkManager@1@PBD@Z
	??_7KFbxMarker@fbxsdk_20100@@6B@
	??_R4KFbxMarker@fbxsdk_20100@@6B@
	??_R0?AVKFbxMarker@fbxsdk_20100@@@8
	??_R3KFbxMarker@fbxsdk_20100@@8
	??_R2KFbxMarker@fbxsdk_20100@@8
	??_R1A@?0A@EA@KFbxMarker@fbxsdk_20100@@8
	?GetClassId@KFbxMarker@fbxsdk_20100@@UBE?AVkFbxClassId@2@XZ
	??1KFbxMarker@fbxsdk_20100@@UAE@XZ
	??_GKFbxMarker@fbxsdk_20100@@UAEPAXI@Z
	?Construct@KFbxMarker@fbxsdk_20100@@MAEXPBV12@@Z
	?ConstructProperties@KFbxMarker@fbxsdk_20100@@MAE_N_N@Z
	?Reset@KFbxMarker@fbxsdk_20100@@QAEXXZ
	?GetIKPivot@KFbxMarker@fbxsdk_20100@@QBE?AVKFbxVector4@2@XZ
	?GetDefaultColor@KFbxMarker@fbxsdk_20100@@QBEAAVKFbxColor@2@AAV32@@Z
	?Add@?$KStringListTemplate@VKStringListItem@fbxsdk_20100@@@fbxsdk_20100@@QAEHPADI@Z
	?Clear@?$KStringListTemplate@VKStringListItem@fbxsdk_20100@@@fbxsdk_20100@@UAEXXZ
	??1?$KStringListTemplate@VKStringListItem@fbxsdk_20100@@@fbxsdk_20100@@UAE@XZ
	??_7?$KStringListTemplate@VKStringListItem@fbxsdk_20100@@@fbxsdk_20100@@6B@
	??_R4?$KStringListTemplate@VKStringListItem@fbxsdk_20100@@@fbxsdk_20100@@6B@
	??_R0?AV?$KStringListTemplate@VKStringListItem@fbxsdk_20100@@@fbxsdk_20100@@@8
	??_R3?$KStringListTemplate@VKStringListItem@fbxsdk_20100@@@fbxsdk_20100@@8
	??_R2?$KStringListTemplate@VKStringListItem@fbxsdk_20100@@@fbxsdk_20100@@8
	??_R1A@?0A@EA@?$KStringListTemplate@VKStringListItem@fbxsdk_20100@@@fbxsdk_20100@@8
	?Buffer@KString@fbxsdk_20100@@QAEPADXZ
	??0KStringListItem@fbxsdk_20100@@QAE@PBDI@Z
	?GetBlockCount@?$KBaseArray@V?$KBaseArraySizeType@PAVKStringListItem@fbxsdk_20100@@@fbxsdk_20100@@@fbxsdk_20100@@IBEHXZ
	?GetHeader@?$KBaseArray@V?$KBaseArraySizeType@PAVKStringListItem@fbxsdk_20100@@@fbxsdk_20100@@@fbxsdk_20100@@IAEPAUKHeader@12@XZ
	?GetTypeSize@?$KBaseArraySizeType@PAVKStringListItem@fbxsdk_20100@@@fbxsdk_20100@@QBEHXZ
	?GetAt@?$KArrayTemplate@PAVKStringListItem@fbxsdk_20100@@@fbxsdk_20100@@QBEPAVKStringListItem@2@H@Z
	?GetTypeSize@?$KBaseArray@V?$KBaseArraySizeType@PAVKStringListItem@fbxsdk_20100@@@fbxsdk_20100@@@fbxsdk_20100@@QBEHXZ
	?SetArrayCount@?$KBaseArray@V?$KBaseArraySizeType@PAVKStringListItem@fbxsdk_20100@@@fbxsdk_20100@@@fbxsdk_20100@@IAEXH@Z
	?SetBlockCount@?$KBaseArray@V?$KBaseArraySizeType@PAVKStringListItem@fbxsdk_20100@@@fbxsdk_20100@@@fbxsdk_20100@@IAEXH@Z
	?InsertAt@?$KBaseArray@V?$KBaseArraySizeType@PAVKStringListItem@fbxsdk_20100@@@fbxsdk_20100@@@fbxsdk_20100@@IAEHHPAX@Z
	?RemoveAt@?$KBaseArray@V?$KBaseArraySizeType@PAVKStringListItem@fbxsdk_20100@@@fbxsdk_20100@@@fbxsdk_20100@@IAEXH@Z
	?SetStringAt@?$KStringListTemplate@VKStringListItem@fbxsdk_20100@@@fbxsdk_20100@@UAE_NHPAD@Z
	?GetText@?$KStringListTemplate@VKStringListItem@fbxsdk_20100@@@fbxsdk_20100@@UAEXAAVKString@2@@Z
	?SetText@?$KStringListTemplate@VKStringListItem@fbxsdk_20100@@@fbxsdk_20100@@UAEHPAD@Z
	?InsertAt@?$KArrayTemplate@PAVKStringListItem@fbxsdk_20100@@@fbxsdk_20100@@QAEHHPAVKStringListItem@2@@Z
	?RemoveAt@?$KArrayTemplate@PAVKStringListItem@fbxsdk_20100@@@fbxsdk_20100@@QAEPAVKStringListItem@2@H@Z
	?InsertAt@?$KStringListTemplate@VKStringListItem@fbxsdk_20100@@@fbxsdk_20100@@UAEHHPADI@Z
	?RemoveAt@?$KStringListTemplate@VKStringListItem@fbxsdk_20100@@@fbxsdk_20100@@UAEXH@Z
	??_G?$KStringListTemplate@VKStringListItem@fbxsdk_20100@@@fbxsdk_20100@@UAEPAXI@Z
	??1KStringList@fbxsdk_20100@@UAE@XZ
	?GetTypeFlags@KFbxMarker@fbxsdk_20100@@MBE?AVKStringList@2@XZ
	?sDefaultIKPivot@KFbxMarker@fbxsdk_20100@@2V?$fbxVectorTemplate3@N@2@B
	?ClassId@KFbxMarker@fbxsdk_20100@@2VkFbxClassId@2@A
	?smMutex@?$KFbxEvent@VKFbxObjectPropertyChanged@fbxsdk_20100@@@kfbxevents@fbxsdk_20100@@0VKFbxMutex@kfbxmp@3@A
	?Set@?$KFbxTypedProperty@W4EDecayType@KFbxLight@fbxsdk_20100@@@fbxsdk_20100@@QAE_NABW4EDecayType@KFbxLight@2@_N@Z
	?Set@?$KFbxTypedProperty@VKString@fbxsdk_20100@@@fbxsdk_20100@@QAE_NABVKString@2@_N@Z
	?GetArrayCount@?$KBaseArray@V?$KBaseArraySizeType@PAVKStringListItem@fbxsdk_20100@@@fbxsdk_20100@@@fbxsdk_20100@@IBEHXZ
	?Init@KFbxLight@fbxsdk_20100@@MAEXXZ
	?GetCastLight@KFbxLight@fbxsdk_20100@@QBE_NXZ
	?SetCastLight@KFbxLight@fbxsdk_20100@@QAEX_N@Z
	?SetCastShadows@KFbxLight@fbxsdk_20100@@QAEX_N@Z
	?GetCastShadows@KFbxLight@fbxsdk_20100@@QBE_NXZ
	?SetShadowColor@KFbxLight@fbxsdk_20100@@QAEXAAVKFbxColor@2@@Z
	?GetShadowColor@KFbxLight@fbxsdk_20100@@QBE?AVKFbxColor@2@XZ
	?SetDecayType@KFbxLight@fbxsdk_20100@@QAEXW4EDecayType@12@@Z
	?GetDecayType@KFbxLight@fbxsdk_20100@@QBE?AW4EDecayType@12@XZ
	?SetDecayStart@KFbxLight@fbxsdk_20100@@QAEXN@Z
	?GetDecayStart@KFbxLight@fbxsdk_20100@@QBENXZ
	?SetFileName@KFbxLight@fbxsdk_20100@@QAE_NPBD@Z
	?GetFileName@KFbxLight@fbxsdk_20100@@QBEPBDXZ
	?SetGroundProjection@KFbxLight@fbxsdk_20100@@QAEX_N@Z
	?GetGroundProjection@KFbxLight@fbxsdk_20100@@QBE_NXZ
	?SetVolumetricProjection@KFbxLight@fbxsdk_20100@@QAEX_N@Z
	?GetVolumetricProjection@KFbxLight@fbxsdk_20100@@QBE_NXZ
	?SetFrontVolumetricProjection@KFbxLight@fbxsdk_20100@@QAEX_N@Z
	?GetFrontVolumetricProjection@KFbxLight@fbxsdk_20100@@QBE_NXZ
	?GetLightType@KFbxLight@fbxsdk_20100@@QBE?AW4ELightType@12@XZ
	?SetLightType@KFbxLight@fbxsdk_20100@@QAEXW4ELightType@12@@Z
	?GetDefaultColor@KFbxLight@fbxsdk_20100@@QBEAAVKFbxColor@2@AAV32@@Z
	?GetDefaultIntensity@KFbxLight@fbxsdk_20100@@QBENXZ
	?GetDefaultConeAngle@KFbxLight@fbxsdk_20100@@QBENXZ
	?GetDefaultFog@KFbxLight@fbxsdk_20100@@QBENXZ
	?SetDefaultColor@KFbxLight@fbxsdk_20100@@QAEXAAVKFbxColor@2@@Z
	?SetDefaultIntensity@KFbxLight@fbxsdk_20100@@QAEXN@Z
	?SetDefaultConeAngle@KFbxLight@fbxsdk_20100@@QAEXN@Z
	?SetDefaultFog@KFbxLight@fbxsdk_20100@@QAEXN@Z
	??1?$KArrayTemplate@PAVKFbxTakeNode@fbxsdk_20100@@@fbxsdk_20100@@QAE@XZ
	??1?$KArrayTemplate@PAVKFbxDefaultTakeCallback@fbxsdk_20100@@@fbxsdk_20100@@QAE@XZ
	?StaticInit@?$KFbxTypedProperty@V?$fbxVectorTemplate3@N@fbxsdk_20100@@@fbxsdk_20100@@QAEABVKFbxProperty@2@PAVKFbxObject@2@PBDABVKFbxDataType@2@ABV?$fbxVectorTemplate3@N@2@_NW4eFbxPropertyFlags@FbxPropertyFlags@2@@Z
	?StaticInit@?$KFbxTypedProperty@W4ELightType@KFbxLight@fbxsdk_20100@@@fbxsdk_20100@@QAEABVKFbxProperty@2@PAVKFbxObject@2@PBDABVKFbxDataType@2@ABW4ELightType@KFbxLight@2@_NW4eFbxPropertyFlags@FbxPropertyFlags@2@@Z
	?StaticInit@?$KFbxTypedProperty@_N@fbxsdk_20100@@QAEABVKFbxProperty@2@PAVKFbxObject@2@PBDABVKFbxDataType@2@AB_N_NW4eFbxPropertyFlags@FbxPropertyFlags@2@@Z
	?StaticInit@?$KFbxTypedProperty@N@fbxsdk_20100@@QAEABVKFbxProperty@2@PAVKFbxObject@2@PBDABVKFbxDataType@2@ABN_NW4eFbxPropertyFlags@FbxPropertyFlags@2@@Z
	?StaticInit@?$KFbxTypedProperty@W4EDecayType@KFbxLight@fbxsdk_20100@@@fbxsdk_20100@@QAEABVKFbxProperty@2@PAVKFbxObject@2@PBDABVKFbxDataType@2@ABW4EDecayType@KFbxLight@2@_NW4eFbxPropertyFlags@FbxPropertyFlags@2@@Z
	?StaticInit@?$KFbxTypedProperty@VKString@fbxsdk_20100@@@fbxsdk_20100@@QAEABVKFbxProperty@2@PAVKFbxObject@2@PBDABVKFbxDataType@2@ABVKString@2@_NW4eFbxPropertyFlags@FbxPropertyFlags@2@@Z
	?GetCount@?$KBaseArray@V?$KBaseArraySizeType@PAVKStringListItem@fbxsdk_20100@@@fbxsdk_20100@@@fbxsdk_20100@@QBEHXZ
	??1KFbxTakeNodeContainer@fbxsdk_20100@@UAE@XZ
	??_7KFbxTakeNodeContainer@fbxsdk_20100@@6B@
	??_R4KFbxTakeNodeContainer@fbxsdk_20100@@6B@
	??_R0?AVKFbxTakeNodeContainer@fbxsdk_20100@@@8
	??_R3KFbxTakeNodeContainer@fbxsdk_20100@@8
	??_R2KFbxTakeNodeContainer@fbxsdk_20100@@8
	??_R1A@?0A@EA@KFbxTakeNodeContainer@fbxsdk_20100@@8
	?GetClassId@KFbxTakeNodeContainer@fbxsdk_20100@@UBE?AVkFbxClassId@2@XZ
	??_GKFbxTakeNodeContainer@fbxsdk_20100@@UAEPAXI@Z
	??1KFbxNodeAttribute@fbxsdk_20100@@UAE@XZ
	??_7KFbxNodeAttribute@fbxsdk_20100@@6B@
	??_R4KFbxNodeAttribute@fbxsdk_20100@@6B@
	??_R0?AVKFbxNodeAttribute@fbxsdk_20100@@@8
	??_R3KFbxNodeAttribute@fbxsdk_20100@@8
	??_R2KFbxNodeAttribute@fbxsdk_20100@@8
	??_R1A@?0A@EA@KFbxNodeAttribute@fbxsdk_20100@@8
	?GetClassId@KFbxNodeAttribute@fbxsdk_20100@@UBE?AVkFbxClassId@2@XZ
	?GetAttributeType@KFbxNodeAttribute@fbxsdk_20100@@UBE?AW4EAttributeType@12@XZ
	??_GKFbxNodeAttribute@fbxsdk_20100@@UAEPAXI@Z
	??0KFbxLight@fbxsdk_20100@@IAE@AAVKFbxSdkManager@1@PBD@Z
	??_7KFbxLight@fbxsdk_20100@@6B@
	??_R4KFbxLight@fbxsdk_20100@@6B@
	??_R0?AVKFbxLight@fbxsdk_20100@@@8
	??_R3KFbxLight@fbxsdk_20100@@8
	??_R2KFbxLight@fbxsdk_20100@@8
	??_R1A@?0A@EA@KFbxLight@fbxsdk_20100@@8
	?GetClassId@KFbxLight@fbxsdk_20100@@UBE?AVkFbxClassId@2@XZ
	??1KFbxLight@fbxsdk_20100@@UAE@XZ
	??_GKFbxLight@fbxsdk_20100@@UAEPAXI@Z
	?ConstructProperties@KFbxLight@fbxsdk_20100@@MAE_N_N@Z
	?Add@?$KStringListTemplate@VKStringListItem@fbxsdk_20100@@@fbxsdk_20100@@QAEHPADI@Z
	?Clear@?$KStringListTemplate@VKStringListItem@fbxsdk_20100@@@fbxsdk_20100@@UAEXXZ
	??1?$KStringListTemplate@VKStringListItem@fbxsdk_20100@@@fbxsdk_20100@@UAE@XZ
	??_7?$KStringListTemplate@VKStringListItem@fbxsdk_20100@@@fbxsdk_20100@@6B@
	??_R4?$KStringListTemplate@VKStringListItem@fbxsdk_20100@@@fbxsdk_20100@@6B@
	??_R0?AV?$KStringListTemplate@VKStringListItem@fbxsdk_20100@@@fbxsdk_20100@@@8
	??_R3?$KStringListTemplate@VKStringListItem@fbxsdk_20100@@@fbxsdk_20100@@8
	??_R2?$KStringListTemplate@VKStringListItem@fbxsdk_20100@@@fbxsdk_20100@@8
	??_R1A@?0A@EA@?$KStringListTemplate@VKStringListItem@fbxsdk_20100@@@fbxsdk_20100@@8
	??0KStringListItem@fbxsdk_20100@@QAE@PBDI@Z
	?GetBlockCount@?$KBaseArray@V?$KBaseArraySizeType@PAVKStringListItem@fbxsdk_20100@@@fbxsdk_20100@@@fbxsdk_20100@@IBEHXZ
	?GetHeader@?$KBaseArray@V?$KBaseArraySizeType@PAVKStringListItem@fbxsdk_20100@@@fbxsdk_20100@@@fbxsdk_20100@@IAEPAUKHeader@12@XZ
	?GetTypeSize@?$KBaseArraySizeType@PAVKStringListItem@fbxsdk_20100@@@fbxsdk_20100@@QBEHXZ
	?GetAt@?$KArrayTemplate@PAVKStringListItem@fbxsdk_20100@@@fbxsdk_20100@@QBEPAVKStringListItem@2@H@Z
	?GetTypeSize@?$KBaseArray@V?$KBaseArraySizeType@PAVKStringListItem@fbxsdk_20100@@@fbxsdk_20100@@@fbxsdk_20100@@QBEHXZ
	?SetArrayCount@?$KBaseArray@V?$KBaseArraySizeType@PAVKStringListItem@fbxsdk_20100@@@fbxsdk_20100@@@fbxsdk_20100@@IAEXH@Z
	?SetBlockCount@?$KBaseArray@V?$KBaseArraySizeType@PAVKStringListItem@fbxsdk_20100@@@fbxsdk_20100@@@fbxsdk_20100@@IAEXH@Z
	?InsertAt@?$KBaseArray@V?$KBaseArraySizeType@PAVKStringListItem@fbxsdk_20100@@@fbxsdk_20100@@@fbxsdk_20100@@IAEHHPAX@Z
	?RemoveAt@?$KBaseArray@V?$KBaseArraySizeType@PAVKStringListItem@fbxsdk_20100@@@fbxsdk_20100@@@fbxsdk_20100@@IAEXH@Z
	?SetStringAt@?$KStringListTemplate@VKStringListItem@fbxsdk_20100@@@fbxsdk_20100@@UAE_NHPAD@Z
	?GetText@?$KStringListTemplate@VKStringListItem@fbxsdk_20100@@@fbxsdk_20100@@UAEXAAVKString@2@@Z
	?SetText@?$KStringListTemplate@VKStringListItem@fbxsdk_20100@@@fbxsdk_20100@@UAEHPAD@Z
	?InsertAt@?$KArrayTemplate@PAVKStringListItem@fbxsdk_20100@@@fbxsdk_20100@@QAEHHPAVKStringListItem@2@@Z
	?RemoveAt@?$KArrayTemplate@PAVKStringListItem@fbxsdk_20100@@@fbxsdk_20100@@QAEPAVKStringListItem@2@H@Z
	?InsertAt@?$KStringListTemplate@VKStringListItem@fbxsdk_20100@@@fbxsdk_20100@@UAEHHPADI@Z
	?RemoveAt@?$KStringListTemplate@VKStringListItem@fbxsdk_20100@@@fbxsdk_20100@@UAEXH@Z
	??_G?$KStringListTemplate@VKStringListItem@fbxsdk_20100@@@fbxsdk_20100@@UAEPAXI@Z
	??1KStringList@fbxsdk_20100@@UAE@XZ
	?GetTypeFlags@KFbxLight@fbxsdk_20100@@MBE?AVKStringList@2@XZ
	?sDefaultShadowColor@KFbxLight@fbxsdk_20100@@2V?$fbxVectorTemplate3@N@2@B
	?sDefaultFileName@KFbxLight@fbxsdk_20100@@2VKString@2@B
	?smMutex@?$KFbxEvent@VKFbxObjectPropertyChanged@fbxsdk_20100@@@kfbxevents@fbxsdk_20100@@0VKFbxMutex@kfbxmp@3@A
	?ClassId@KFbxLight@fbxsdk_20100@@2VkFbxClassId@2@A
	?GetBlockCount@?$KBaseArray@V?$KBaseArraySizeType@PAVKStringListItem@fbxsdk_20100@@@fbxsdk_20100@@@fbxsdk_20100@@IBEHXZ
	?GetHeader@?$KBaseArray@V?$KBaseArraySizeType@PAVKStringListItem@fbxsdk_20100@@@fbxsdk_20100@@@fbxsdk_20100@@IAEPAUKHeader@12@XZ
	?GetTypeSize@?$KBaseArraySizeType@PAVKStringListItem@fbxsdk_20100@@@fbxsdk_20100@@QBEHXZ
	?GetAt@?$KArrayTemplate@PAVKStringListItem@fbxsdk_20100@@@fbxsdk_20100@@QBEPAVKStringListItem@2@H@Z
	?GetTypeSize@?$KBaseArray@V?$KBaseArraySizeType@PAVKStringListItem@fbxsdk_20100@@@fbxsdk_20100@@@fbxsdk_20100@@QBEHXZ
	?SetArrayCount@?$KBaseArray@V?$KBaseArraySizeType@PAVKStringListItem@fbxsdk_20100@@@fbxsdk_20100@@@fbxsdk_20100@@IAEXH@Z
	?SetBlockCount@?$KBaseArray@V?$KBaseArraySizeType@PAVKStringListItem@fbxsdk_20100@@@fbxsdk_20100@@@fbxsdk_20100@@IAEXH@Z
	?InsertAt@?$KBaseArray@V?$KBaseArraySizeType@PAVKStringListItem@fbxsdk_20100@@@fbxsdk_20100@@@fbxsdk_20100@@IAEHHPAX@Z
	?RemoveAt@?$KBaseArray@V?$KBaseArraySizeType@PAVKStringListItem@fbxsdk_20100@@@fbxsdk_20100@@@fbxsdk_20100@@IAEXH@Z
	?SetStringAt@?$KStringListTemplate@VKStringListItem@fbxsdk_20100@@@fbxsdk_20100@@UAE_NHPAD@Z
	?GetText@?$KStringListTemplate@VKStringListItem@fbxsdk_20100@@@fbxsdk_20100@@UAEXAAVKString@2@@Z
	?Add@?$KStringListTemplate@VKStringListItem@fbxsdk_20100@@@fbxsdk_20100@@QAEHPADI@Z
	?InsertAt@?$KArrayTemplate@PAVKStringListItem@fbxsdk_20100@@@fbxsdk_20100@@QAEHHPAVKStringListItem@2@@Z
	?RemoveAt@?$KArrayTemplate@PAVKStringListItem@fbxsdk_20100@@@fbxsdk_20100@@QAEPAVKStringListItem@2@H@Z
	?InsertAt@?$KStringListTemplate@VKStringListItem@fbxsdk_20100@@@fbxsdk_20100@@UAEHHPADI@Z
	?RemoveAt@?$KStringListTemplate@VKStringListItem@fbxsdk_20100@@@fbxsdk_20100@@UAEXH@Z
	?SetText@?$KStringListTemplate@VKStringListItem@fbxsdk_20100@@@fbxsdk_20100@@UAEHPAD@Z
	??_G?$KStringListTemplate@VKStringListItem@fbxsdk_20100@@@fbxsdk_20100@@UAEPAXI@Z
	??1KStringList@fbxsdk_20100@@UAE@XZ
	?GetTypeFlags@KFbxCameraSwitcher@fbxsdk_20100@@UBE?AVKStringList@2@XZ
	?smMutex@?$KFbxEvent@VKFbxObjectPropertyChanged@fbxsdk_20100@@@kfbxevents@fbxsdk_20100@@0VKFbxMutex@kfbxmp@3@A
	?ClassId@KFbxCameraSwitcher@fbxsdk_20100@@2VkFbxClassId@2@A
	??0?$KFbxTypedProperty@W4ECameraGateFit@KFbxCamera@fbxsdk_20100@@@fbxsdk_20100@@QAE@ABVKFbxProperty@1@@Z
	??0?$KFbxTypedProperty@W4ECameraFormat@KFbxCamera@fbxsdk_20100@@@fbxsdk_20100@@QAE@ABVKFbxProperty@1@@Z
	??0?$KFbxTypedProperty@W4ECameraApertureFormat@KFbxCamera@fbxsdk_20100@@@fbxsdk_20100@@QAE@ABVKFbxProperty@1@@Z
	??0?$KFbxTypedProperty@V?$fbxVectorTemplate2@N@fbxsdk_20100@@@fbxsdk_20100@@QAE@ABVKFbxProperty@1@@Z
	??0?$KFbxTypedProperty@W4ECameraFrontBackPlaneDisplayMode@KFbxCamera@fbxsdk_20100@@@fbxsdk_20100@@QAE@ABVKFbxProperty@1@@Z
	??0?$KFbxTypedProperty@W4ECameraFrontBackPlaneDistanceMode@KFbxCamera@fbxsdk_20100@@@fbxsdk_20100@@QAE@ABVKFbxProperty@1@@Z
	??0?$KFbxTypedProperty@VfbxReference@fbxsdk_20100@@@fbxsdk_20100@@QAE@ABVKFbxProperty@1@@Z
	??0?$KFbxTypedProperty@W4ECameraSafeAreaStyle@KFbxCamera@fbxsdk_20100@@@fbxsdk_20100@@QAE@ABVKFbxProperty@1@@Z
	??0?$KFbxTypedProperty@W4ECameraProjectionType@KFbxCamera@fbxsdk_20100@@@fbxsdk_20100@@QAE@ABVKFbxProperty@1@@Z
	??0?$KFbxTypedProperty@W4ECameraFocusDistanceSource@KFbxCamera@fbxsdk_20100@@@fbxsdk_20100@@QAE@ABVKFbxProperty@1@@Z
	??0?$KFbxTypedProperty@W4ECameraAntialiasingMethod@KFbxCamera@fbxsdk_20100@@@fbxsdk_20100@@QAE@ABVKFbxProperty@1@@Z
	??0?$KFbxTypedProperty@H@fbxsdk_20100@@QAE@ABVKFbxProperty@1@@Z
	??0?$KFbxTypedProperty@W4ECameraSamplingType@KFbxCamera@fbxsdk_20100@@@fbxsdk_20100@@QAE@ABVKFbxProperty@1@@Z
	??1?$KBaseArray@V?$KBaseArraySizeType@PAVKStringListItem@fbxsdk_20100@@@fbxsdk_20100@@@fbxsdk_20100@@IAE@XZ
	?GetHeaderOffset@?$KBaseArray@V?$KBaseArraySizeType@PAVKStringListItem@fbxsdk_20100@@@fbxsdk_20100@@@fbxsdk_20100@@IBEHXZ
	?Clear@?$KBaseArray@V?$KBaseArraySizeType@PAVKFbxTakeNode@fbxsdk_20100@@@fbxsdk_20100@@@fbxsdk_20100@@QAEXXZ
	?Clear@?$KBaseArray@V?$KBaseArraySizeType@PAVKFbxDefaultTakeCallback@fbxsdk_20100@@@fbxsdk_20100@@@fbxsdk_20100@@QAEXXZ
	?GetHeader@?$KBaseArray@V?$KBaseArraySizeType@PAVKStringListItem@fbxsdk_20100@@@fbxsdk_20100@@@fbxsdk_20100@@IBEQAUKHeader@12@XZ
	??$KFbxCast@VKFbxCamera@fbxsdk_20100@@@fbxsdk_20100@@YAPAVKFbxCamera@0@PAVKFbxPlug@0@@Z
	??$GetSrcObject@VKFbxTexture@fbxsdk_20100@@@KFbxProperty@fbxsdk_20100@@QBEPAVKFbxTexture@1@PBV21@H@Z
	??$KFbxSet@V?$fbxVectorTemplate3@N@fbxsdk_20100@@@fbxsdk_20100@@YA_NAAVKFbxProperty@0@ABV?$fbxVectorTemplate3@N@0@_N@Z
	??$KFbxSet@N@fbxsdk_20100@@YA_NAAVKFbxProperty@0@ABN_N@Z
	??$KFbxGet@N@fbxsdk_20100@@YA_NABVKFbxProperty@0@AAN@Z
	??$KFbxSet@_N@fbxsdk_20100@@YA_NAAVKFbxProperty@0@AB_N_N@Z
	??$KFbxGet@_N@fbxsdk_20100@@YA_NABVKFbxProperty@0@AA_N@Z
	??$KFbxSet@W4ECameraAspectRatioMode@KFbxCamera@fbxsdk_20100@@@fbxsdk_20100@@YA_NAAVKFbxProperty@0@ABW4ECameraAspectRatioMode@KFbxCamera@0@_N@Z
	??$KFbxGet@W4ECameraAspectRatioMode@KFbxCamera@fbxsdk_20100@@@fbxsdk_20100@@YA_NABVKFbxProperty@0@AAW4ECameraAspectRatioMode@KFbxCamera@0@@Z
	??$KFbxSet@W4ECameraApertureMode@KFbxCamera@fbxsdk_20100@@@fbxsdk_20100@@YA_NAAVKFbxProperty@0@ABW4ECameraApertureMode@KFbxCamera@0@_N@Z
	??$KFbxGet@W4ECameraApertureMode@KFbxCamera@fbxsdk_20100@@@fbxsdk_20100@@YA_NABVKFbxProperty@0@AAW4ECameraApertureMode@KFbxCamera@0@@Z
	??$KFbxSet@W4ECameraFormat@KFbxCamera@fbxsdk_20100@@@fbxsdk_20100@@YA_NAAVKFbxProperty@0@ABW4ECameraFormat@KFbxCamera@0@_N@Z
	??$KFbxGet@W4ECameraFormat@KFbxCamera@fbxsdk_20100@@@fbxsdk_20100@@YA_NABVKFbxProperty@0@AAW4ECameraFormat@KFbxCamera@0@@Z
	??$KFbxSet@W4ECameraApertureFormat@KFbxCamera@fbxsdk_20100@@@fbxsdk_20100@@YA_NAAVKFbxProperty@0@ABW4ECameraApertureFormat@KFbxCamera@0@_N@Z
	??$KFbxGet@W4ECameraApertureFormat@KFbxCamera@fbxsdk_20100@@@fbxsdk_20100@@YA_NABVKFbxProperty@0@AAW4ECameraApertureFormat@KFbxCamera@0@@Z
	??$KFbxGet@V?$fbxVectorTemplate2@N@fbxsdk_20100@@@fbxsdk_20100@@YA_NABVKFbxProperty@0@AAV?$fbxVectorTemplate2@N@0@@Z
	??$KFbxSet@W4ECameraFrontBackPlaneDisplayMode@KFbxCamera@fbxsdk_20100@@@fbxsdk_20100@@YA_NAAVKFbxProperty@0@ABW4ECameraFrontBackPlaneDisplayMode@KFbxCamera@0@_N@Z
	??$KFbxGet@W4ECameraFrontBackPlaneDisplayMode@KFbxCamera@fbxsdk_20100@@@fbxsdk_20100@@YA_NABVKFbxProperty@0@AAW4ECameraFrontBackPlaneDisplayMode@KFbxCamera@0@@Z
	??$KFbxSet@W4ECameraFrontBackPlaneDistanceMode@KFbxCamera@fbxsdk_20100@@@fbxsdk_20100@@YA_NAAVKFbxProperty@0@ABW4ECameraFrontBackPlaneDistanceMode@KFbxCamera@0@_N@Z
	??$KFbxGet@W4ECameraFrontBackPlaneDistanceMode@KFbxCamera@fbxsdk_20100@@@fbxsdk_20100@@YA_NABVKFbxProperty@0@AAW4ECameraFrontBackPlaneDistanceMode@KFbxCamera@0@@Z
	??$KFbxGet@W4ECameraProjectionType@KFbxCamera@fbxsdk_20100@@@fbxsdk_20100@@YA_NABVKFbxProperty@0@AAW4ECameraProjectionType@KFbxCamera@0@@Z
	??$KFbxSet@W4ECameraGateFit@KFbxCamera@fbxsdk_20100@@@fbxsdk_20100@@YA_NAAVKFbxProperty@0@ABW4ECameraGateFit@KFbxCamera@0@_N@Z
	??$KFbxSet@V?$fbxVectorTemplate2@N@fbxsdk_20100@@@fbxsdk_20100@@YA_NAAVKFbxProperty@0@ABV?$fbxVectorTemplate2@N@0@_N@Z
	??$KFbxSet@W4ECameraSafeAreaStyle@KFbxCamera@fbxsdk_20100@@@fbxsdk_20100@@YA_NAAVKFbxProperty@0@ABW4ECameraSafeAreaStyle@KFbxCamera@0@_N@Z
	??$KFbxSet@W4ECameraProjectionType@KFbxCamera@fbxsdk_20100@@@fbxsdk_20100@@YA_NAAVKFbxProperty@0@ABW4ECameraProjectionType@KFbxCamera@0@_N@Z
	??$KFbxSet@W4ECameraFocusDistanceSource@KFbxCamera@fbxsdk_20100@@@fbxsdk_20100@@YA_NAAVKFbxProperty@0@ABW4ECameraFocusDistanceSource@KFbxCamera@0@_N@Z
	??$KFbxSet@W4ECameraAntialiasingMethod@KFbxCamera@fbxsdk_20100@@@fbxsdk_20100@@YA_NAAVKFbxProperty@0@ABW4ECameraAntialiasingMethod@KFbxCamera@0@_N@Z
	??$KFbxSet@H@fbxsdk_20100@@YA_NAAVKFbxProperty@0@ABH_N@Z
	??$KFbxSet@W4ECameraSamplingType@KFbxCamera@fbxsdk_20100@@@fbxsdk_20100@@YA_NAAVKFbxProperty@0@ABW4ECameraSamplingType@KFbxCamera@0@_N@Z
	?TypedClone@KFbxCamera@fbxsdk_20100@@QBEPAV12@PAVKFbxObject@2@W4ECloneType@32@@Z
	?GetForegroundTexture@KFbxCamera@fbxsdk_20100@@QBEPAVKFbxTexture@2@XZ
	??4KFbxCamera@fbxsdk_20100@@IAEAAV01@ABV01@@Z
	?Clone@KFbxCamera@fbxsdk_20100@@UBEPAVKFbxObject@2@PAV32@W4ECloneType@32@@Z
	??4?$KFbxTypedProperty@N@fbxsdk_20100@@QAEAAV01@ABN@Z
	?Set@?$KFbxTypedProperty@N@fbxsdk_20100@@QAE_NABN@Z
	?Get@?$KFbxTypedProperty@N@fbxsdk_20100@@QBENXZ
	??4?$KFbxTypedProperty@_N@fbxsdk_20100@@QAEAAV01@AB_N@Z
	?Get@?$KFbxTypedProperty@_N@fbxsdk_20100@@QBE_NXZ
	??4?$KFbxTypedProperty@W4ECameraAspectRatioMode@KFbxCamera@fbxsdk_20100@@@fbxsdk_20100@@QAEAAV01@ABW4ECameraAspectRatioMode@KFbxCamera@1@@Z
	?Get@?$KFbxTypedProperty@W4ECameraAspectRatioMode@KFbxCamera@fbxsdk_20100@@@fbxsdk_20100@@QBE?AW4ECameraAspectRatioMode@KFbxCamera@2@XZ
	??4?$KFbxTypedProperty@W4ECameraApertureMode@KFbxCamera@fbxsdk_20100@@@fbxsdk_20100@@QAEAAV01@ABW4ECameraApertureMode@KFbxCamera@1@@Z
	?Get@?$KFbxTypedProperty@W4ECameraApertureMode@KFbxCamera@fbxsdk_20100@@@fbxsdk_20100@@QBE?AW4ECameraApertureMode@KFbxCamera@2@XZ
	??4?$KFbxTypedProperty@W4ECameraFormat@KFbxCamera@fbxsdk_20100@@@fbxsdk_20100@@QAEAAV01@ABW4ECameraFormat@KFbxCamera@1@@Z
	?Get@?$KFbxTypedProperty@W4ECameraFormat@KFbxCamera@fbxsdk_20100@@@fbxsdk_20100@@QBE?AW4ECameraFormat@KFbxCamera@2@XZ
	??4?$KFbxTypedProperty@W4ECameraApertureFormat@KFbxCamera@fbxsdk_20100@@@fbxsdk_20100@@QAEAAV01@ABW4ECameraApertureFormat@KFbxCamera@1@@Z
	?Get@?$KFbxTypedProperty@W4ECameraApertureFormat@KFbxCamera@fbxsdk_20100@@@fbxsdk_20100@@QBE?AW4ECameraApertureFormat@KFbxCamera@2@XZ
	?Get@?$KFbxTypedProperty@V?$fbxVectorTemplate2@N@fbxsdk_20100@@@fbxsdk_20100@@QBE?AV?$fbxVectorTemplate2@N@2@XZ
	??4?$KFbxTypedProperty@W4ECameraFrontBackPlaneDisplayMode@KFbxCamera@fbxsdk_20100@@@fbxsdk_20100@@QAEAAV01@ABW4ECameraFrontBackPlaneDisplayMode@KFbxCamera@1@@Z
	?Get@?$KFbxTypedProperty@W4ECameraFrontBackPlaneDisplayMode@KFbxCamera@fbxsdk_20100@@@fbxsdk_20100@@QBE?AW4ECameraFrontBackPlaneDisplayMode@KFbxCamera@2@XZ
	??4?$KFbxTypedProperty@W4ECameraFrontBackPlaneDistanceMode@KFbxCamera@fbxsdk_20100@@@fbxsdk_20100@@QAEAAV01@ABW4ECameraFrontBackPlaneDistanceMode@KFbxCamera@1@@Z
	?Get@?$KFbxTypedProperty@W4ECameraFrontBackPlaneDistanceMode@KFbxCamera@fbxsdk_20100@@@fbxsdk_20100@@QBE?AW4ECameraFrontBackPlaneDistanceMode@KFbxCamera@2@XZ
	?StaticInit@?$KFbxTypedProperty@VfbxReference@fbxsdk_20100@@@fbxsdk_20100@@QAEABVKFbxProperty@2@PAVKFbxObject@2@PBDABVKFbxDataType@2@W4eFbxPropertyFlags@FbxPropertyFlags@2@@Z
	?Get@?$KFbxTypedProperty@W4ECameraProjectionType@KFbxCamera@fbxsdk_20100@@@fbxsdk_20100@@QBE?AW4ECameraProjectionType@KFbxCamera@2@XZ
	??1?$KArrayTemplate@PAVKStringListItem@fbxsdk_20100@@@fbxsdk_20100@@QAE@XZ
	??A?$KArrayTemplate@PAVKStringListItem@fbxsdk_20100@@@fbxsdk_20100@@QBEAAPAVKStringListItem@1@H@Z
	??1?$KBaseArray@V?$KBaseArraySizeType@PAVKFbxTakeNode@fbxsdk_20100@@@fbxsdk_20100@@@fbxsdk_20100@@IAE@XZ
	??1?$KBaseArray@V?$KBaseArraySizeType@PAVKFbxDefaultTakeCallback@fbxsdk_20100@@@fbxsdk_20100@@@fbxsdk_20100@@IAE@XZ
	?Set@?$KFbxTypedProperty@V?$fbxVectorTemplate3@N@fbxsdk_20100@@@fbxsdk_20100@@QAE_NABV?$fbxVectorTemplate3@N@2@_N@Z
	?Set@?$KFbxTypedProperty@N@fbxsdk_20100@@QAE_NABN_N@Z
	?Set@?$KFbxTypedProperty@_N@fbxsdk_20100@@QAE_NAB_N_N@Z
	?Set@?$KFbxTypedProperty@W4ECameraAspectRatioMode@KFbxCamera@fbxsdk_20100@@@fbxsdk_20100@@QAE_NABW4ECameraAspectRatioMode@KFbxCamera@2@_N@Z
	?Set@?$KFbxTypedProperty@W4ECameraApertureMode@KFbxCamera@fbxsdk_20100@@@fbxsdk_20100@@QAE_NABW4ECameraApertureMode@KFbxCamera@2@_N@Z
	?Set@?$KFbxTypedProperty@W4ECameraGateFit@KFbxCamera@fbxsdk_20100@@@fbxsdk_20100@@QAE_NABW4ECameraGateFit@KFbxCamera@2@_N@Z
	?Set@?$KFbxTypedProperty@W4ECameraFormat@KFbxCamera@fbxsdk_20100@@@fbxsdk_20100@@QAE_NABW4ECameraFormat@KFbxCamera@2@_N@Z
	?Set@?$KFbxTypedProperty@W4ECameraApertureFormat@KFbxCamera@fbxsdk_20100@@@fbxsdk_20100@@QAE_NABW4ECameraApertureFormat@KFbxCamera@2@_N@Z
	?Set@?$KFbxTypedProperty@V?$fbxVectorTemplate2@N@fbxsdk_20100@@@fbxsdk_20100@@QAE_NABV?$fbxVectorTemplate2@N@2@_N@Z
	?Set@?$KFbxTypedProperty@W4ECameraFrontBackPlaneDisplayMode@KFbxCamera@fbxsdk_20100@@@fbxsdk_20100@@QAE_NABW4ECameraFrontBackPlaneDisplayMode@KFbxCamera@2@_N@Z
	?Set@?$KFbxTypedProperty@W4ECameraFrontBackPlaneDistanceMode@KFbxCamera@fbxsdk_20100@@@fbxsdk_20100@@QAE_NABW4ECameraFrontBackPlaneDistanceMode@KFbxCamera@2@_N@Z
	?Set@?$KFbxTypedProperty@W4ECameraSafeAreaStyle@KFbxCamera@fbxsdk_20100@@@fbxsdk_20100@@QAE_NABW4ECameraSafeAreaStyle@KFbxCamera@2@_N@Z
	?Set@?$KFbxTypedProperty@W4ECameraProjectionType@KFbxCamera@fbxsdk_20100@@@fbxsdk_20100@@QAE_NABW4ECameraProjectionType@KFbxCamera@2@_N@Z
	?Set@?$KFbxTypedProperty@W4ECameraFocusDistanceSource@KFbxCamera@fbxsdk_20100@@@fbxsdk_20100@@QAE_NABW4ECameraFocusDistanceSource@KFbxCamera@2@_N@Z
	?Set@?$KFbxTypedProperty@W4ECameraAntialiasingMethod@KFbxCamera@fbxsdk_20100@@@fbxsdk_20100@@QAE_NABW4ECameraAntialiasingMethod@KFbxCamera@2@_N@Z
	?Set@?$KFbxTypedProperty@H@fbxsdk_20100@@QAE_NABH_N@Z
	?Set@?$KFbxTypedProperty@W4ECameraSamplingType@KFbxCamera@fbxsdk_20100@@@fbxsdk_20100@@QAE_NABW4ECameraSamplingType@KFbxCamera@2@_N@Z
	?GetArrayCount@?$KBaseArray@V?$KBaseArraySizeType@PAVKStringListItem@fbxsdk_20100@@@fbxsdk_20100@@@fbxsdk_20100@@IBEHXZ
	?GetFormat@KFbxCamera@fbxsdk_20100@@QBE?AW4ECameraFormat@12@XZ
	?SetAspect@KFbxCamera@fbxsdk_20100@@QAEXW4ECameraAspectRatioMode@12@NN@Z
	?GetAspectRatioMode@KFbxCamera@fbxsdk_20100@@QBE?AW4ECameraAspectRatioMode@12@XZ
	?GetPixelRatio@KFbxCamera@fbxsdk_20100@@QBENXZ
	?SetNearPlane@KFbxCamera@fbxsdk_20100@@QAEXN@Z
	?GetNearPlane@KFbxCamera@fbxsdk_20100@@QBENXZ
	?SetFarPlane@KFbxCamera@fbxsdk_20100@@QAEXN@Z
	?GetFarPlane@KFbxCamera@fbxsdk_20100@@QBENXZ
	?SetApertureFormat@KFbxCamera@fbxsdk_20100@@QAEXW4ECameraApertureFormat@12@@Z
	?GetApertureFormat@KFbxCamera@fbxsdk_20100@@QBE?AW4ECameraApertureFormat@12@XZ
	?GetApertureMode@KFbxCamera@fbxsdk_20100@@QBE?AW4ECameraApertureMode@12@XZ
	?SetApertureMode@KFbxCamera@fbxsdk_20100@@QAEXW4ECameraApertureMode@12@@Z
	?GetApertureWidth@KFbxCamera@fbxsdk_20100@@QBENXZ
	?SetApertureWidth@KFbxCamera@fbxsdk_20100@@QAEXN@Z
	?GetApertureHeight@KFbxCamera@fbxsdk_20100@@QBENXZ
	?SetApertureHeight@KFbxCamera@fbxsdk_20100@@QAEXN@Z
	?GetSqueezeRatio@KFbxCamera@fbxsdk_20100@@QBENXZ
	?SetSqueezeRatio@KFbxCamera@fbxsdk_20100@@QAEXN@Z
	?ComputeFieldOfView@KFbxCamera@fbxsdk_20100@@QBENN@Z
	?ComputeFocalLength@KFbxCamera@fbxsdk_20100@@QAENN@Z
	?SetShowFrontPlate@KFbxCamera@fbxsdk_20100@@QAEX_N@Z
	?GetShowFrontPlate@KFbxCamera@fbxsdk_20100@@QBE_NXZ
	?SetViewFrustumFrontPlaneMode@KFbxCamera@fbxsdk_20100@@QAEXW4ECameraFrontBackPlaneDisplayMode@12@@Z
	?GetViewFrustumFrontPlaneMode@KFbxCamera@fbxsdk_20100@@QBE?AW4ECameraFrontBackPlaneDisplayMode@12@XZ
	?SetFrontPlaneDistance@KFbxCamera@fbxsdk_20100@@QAEXN@Z
	?GetFrontPlaneDistance@KFbxCamera@fbxsdk_20100@@QBENXZ
	?SetFrontPlaneDistanceMode@KFbxCamera@fbxsdk_20100@@QAEXW4ECameraFrontBackPlaneDistanceMode@12@@Z
	?GetFrontPlaneDistanceMode@KFbxCamera@fbxsdk_20100@@QBE?AW4ECameraFrontBackPlaneDistanceMode@12@XZ
	?SetForegroundOpacity@KFbxCamera@fbxsdk_20100@@QAEXN@Z
	?GetForegroundOpacity@KFbxCamera@fbxsdk_20100@@QBENXZ
	?SetBackgroundAlphaTreshold@KFbxCamera@fbxsdk_20100@@QAEXN@Z
	?GetBackgroundAlphaTreshold@KFbxCamera@fbxsdk_20100@@QBENXZ
	?GetBackgroundPlacementOptions@KFbxCamera@fbxsdk_20100@@QBEIXZ
	?SetBackPlaneDistanceMode@KFbxCamera@fbxsdk_20100@@QAEXW4ECameraFrontBackPlaneDistanceMode@12@@Z
	?GetBackPlaneDistanceMode@KFbxCamera@fbxsdk_20100@@QBE?AW4ECameraFrontBackPlaneDistanceMode@12@XZ
	?SetViewCameraInterest@KFbxCamera@fbxsdk_20100@@QAEX_N@Z
	?GetViewCameraInterest@KFbxCamera@fbxsdk_20100@@QBE_NXZ
	?SetFitImage@KFbxCamera@fbxsdk_20100@@QAEX_N@Z
	?GetFitImage@KFbxCamera@fbxsdk_20100@@QBE_NXZ
	?SetCrop@KFbxCamera@fbxsdk_20100@@QAEX_N@Z
	?GetCrop@KFbxCamera@fbxsdk_20100@@QBE_NXZ
	?SetCenter@KFbxCamera@fbxsdk_20100@@QAEX_N@Z
	?GetCenter@KFbxCamera@fbxsdk_20100@@QBE_NXZ
	?SetKeepRatio@KFbxCamera@fbxsdk_20100@@QAEX_N@Z
	?GetKeepRatio@KFbxCamera@fbxsdk_20100@@QBE_NXZ
	?SetFrontPlateFitImage@KFbxCamera@fbxsdk_20100@@QAEX_N@Z
	?GetFrontPlateFitImage@KFbxCamera@fbxsdk_20100@@QBE_NXZ
	?SetFrontPlateCrop@KFbxCamera@fbxsdk_20100@@QAEX_N@Z
	?GetFrontPlateCrop@KFbxCamera@fbxsdk_20100@@QBE_NXZ
	?SetFrontPlateCenter@KFbxCamera@fbxsdk_20100@@QAEX_N@Z
	?GetFrontPlateCenter@KFbxCamera@fbxsdk_20100@@QBE_NXZ
	?SetFrontPlateKeepRatio@KFbxCamera@fbxsdk_20100@@QAEX_N@Z
	?GetFrontPlateKeepRatio@KFbxCamera@fbxsdk_20100@@QBE_NXZ
	?SetViewNearFarPlanes@KFbxCamera@fbxsdk_20100@@QAEX_N@Z
	?GetViewNearFarPlanes@KFbxCamera@fbxsdk_20100@@QBE_NXZ
	?SetViewFrustum@KFbxCamera@fbxsdk_20100@@QAEX_N@Z
	?GetViewFrustum@KFbxCamera@fbxsdk_20100@@QBE_NXZ
	?SetViewFrustumBackPlaneMode@KFbxCamera@fbxsdk_20100@@QAEXW4ECameraFrontBackPlaneDisplayMode@12@@Z
	?GetViewFrustumBackPlaneMode@KFbxCamera@fbxsdk_20100@@QBE?AW4ECameraFrontBackPlaneDisplayMode@12@XZ
	?ComputePerspective@KFbxCamera@fbxsdk_20100@@QBE?AVKFbxMatrix@2@HH_N@Z
	?ComputeWorldToScreen@KFbxCamera@fbxsdk_20100@@QBE?AVKFbxMatrix@2@HHABVKFbxXMatrix@2@@Z
	?IsBoundingBoxInView@KFbxCamera@fbxsdk_20100@@QBE_NABVKFbxMatrix@2@0QBVKFbxVector4@2@@Z
	?IsPointInView@KFbxCamera@fbxsdk_20100@@QBE_NABVKFbxMatrix@2@0ABVKFbxVector4@2@@Z
	??1?$KArrayTemplate@PAVKFbxTakeNode@fbxsdk_20100@@@fbxsdk_20100@@QAE@XZ
	??1?$KArrayTemplate@PAVKFbxDefaultTakeCallback@fbxsdk_20100@@@fbxsdk_20100@@QAE@XZ
	?StaticInit@?$KFbxTypedProperty@V?$fbxVectorTemplate3@N@fbxsdk_20100@@@fbxsdk_20100@@QAEABVKFbxProperty@2@PAVKFbxObject@2@PBDABVKFbxDataType@2@ABV?$fbxVectorTemplate3@N@2@_NW4eFbxPropertyFlags@FbxPropertyFlags@2@@Z
	?StaticInit@?$KFbxTypedProperty@N@fbxsdk_20100@@QAEABVKFbxProperty@2@PAVKFbxObject@2@PBDABVKFbxDataType@2@ABN_NW4eFbxPropertyFlags@FbxPropertyFlags@2@@Z
	?StaticInit@?$KFbxTypedProperty@_N@fbxsdk_20100@@QAEABVKFbxProperty@2@PAVKFbxObject@2@PBDABVKFbxDataType@2@AB_N_NW4eFbxPropertyFlags@FbxPropertyFlags@2@@Z
	?StaticInit@?$KFbxTypedProperty@W4ECameraAspectRatioMode@KFbxCamera@fbxsdk_20100@@@fbxsdk_20100@@QAEABVKFbxProperty@2@PAVKFbxObject@2@PBDABVKFbxDataType@2@ABW4ECameraAspectRatioMode@KFbxCamera@2@_NW4eFbxPropertyFlags@FbxPropertyFlags@2@@Z
	?StaticInit@?$KFbxTypedProperty@W4ECameraApertureMode@KFbxCamera@fbxsdk_20100@@@fbxsdk_20100@@QAEABVKFbxProperty@2@PAVKFbxObject@2@PBDABVKFbxDataType@2@ABW4ECameraApertureMode@KFbxCamera@2@_NW4eFbxPropertyFlags@FbxPropertyFlags@2@@Z
	?StaticInit@?$KFbxTypedProperty@W4ECameraGateFit@KFbxCamera@fbxsdk_20100@@@fbxsdk_20100@@QAEABVKFbxProperty@2@PAVKFbxObject@2@PBDABVKFbxDataType@2@ABW4ECameraGateFit@KFbxCamera@2@_NW4eFbxPropertyFlags@FbxPropertyFlags@2@@Z
	?StaticInit@?$KFbxTypedProperty@W4ECameraFormat@KFbxCamera@fbxsdk_20100@@@fbxsdk_20100@@QAEABVKFbxProperty@2@PAVKFbxObject@2@PBDABVKFbxDataType@2@ABW4ECameraFormat@KFbxCamera@2@_NW4eFbxPropertyFlags@FbxPropertyFlags@2@@Z
	?StaticInit@?$KFbxTypedProperty@W4ECameraApertureFormat@KFbxCamera@fbxsdk_20100@@@fbxsdk_20100@@QAEABVKFbxProperty@2@PAVKFbxObject@2@PBDABVKFbxDataType@2@ABW4ECameraApertureFormat@KFbxCamera@2@_NW4eFbxPropertyFlags@FbxPropertyFlags@2@@Z
	?StaticInit@?$KFbxTypedProperty@V?$fbxVectorTemplate2@N@fbxsdk_20100@@@fbxsdk_20100@@QAEABVKFbxProperty@2@PAVKFbxObject@2@PBDABVKFbxDataType@2@ABV?$fbxVectorTemplate2@N@2@_NW4eFbxPropertyFlags@FbxPropertyFlags@2@@Z
	?StaticInit@?$KFbxTypedProperty@W4ECameraFrontBackPlaneDisplayMode@KFbxCamera@fbxsdk_20100@@@fbxsdk_20100@@QAEABVKFbxProperty@2@PAVKFbxObject@2@PBDABVKFbxDataType@2@ABW4ECameraFrontBackPlaneDisplayMode@KFbxCamera@2@_NW4eFbxPropertyFlags@FbxPropertyFlags@2@@Z
	?StaticInit@?$KFbxTypedProperty@W4ECameraFrontBackPlaneDistanceMode@KFbxCamera@fbxsdk_20100@@@fbxsdk_20100@@QAEABVKFbxProperty@2@PAVKFbxObject@2@PBDABVKFbxDataType@2@ABW4ECameraFrontBackPlaneDistanceMode@KFbxCamera@2@_NW4eFbxPropertyFlags@FbxPropertyFlags@2@@Z
	?StaticInit@?$KFbxTypedProperty@W4ECameraSafeAreaStyle@KFbxCamera@fbxsdk_20100@@@fbxsdk_20100@@QAEABVKFbxProperty@2@PAVKFbxObject@2@PBDABVKFbxDataType@2@ABW4ECameraSafeAreaStyle@KFbxCamera@2@_NW4eFbxPropertyFlags@FbxPropertyFlags@2@@Z
	?StaticInit@?$KFbxTypedProperty@W4ECameraProjectionType@KFbxCamera@fbxsdk_20100@@@fbxsdk_20100@@QAEABVKFbxProperty@2@PAVKFbxObject@2@PBDABVKFbxDataType@2@ABW4ECameraProjectionType@KFbxCamera@2@_NW4eFbxPropertyFlags@FbxPropertyFlags@2@@Z
	?StaticInit@?$KFbxTypedProperty@W4ECameraFocusDistanceSource@KFbxCamera@fbxsdk_20100@@@fbxsdk_20100@@QAEABVKFbxProperty@2@PAVKFbxObject@2@PBDABVKFbxDataType@2@ABW4ECameraFocusDistanceSource@KFbxCamera@2@_NW4eFbxPropertyFlags@FbxPropertyFlags@2@@Z
	?StaticInit@?$KFbxTypedProperty@W4ECameraAntialiasingMethod@KFbxCamera@fbxsdk_20100@@@fbxsdk_20100@@QAEABVKFbxProperty@2@PAVKFbxObject@2@PBDABVKFbxDataType@2@ABW4ECameraAntialiasingMethod@KFbxCamera@2@_NW4eFbxPropertyFlags@FbxPropertyFlags@2@@Z
	?StaticInit@?$KFbxTypedProperty@H@fbxsdk_20100@@QAEABVKFbxProperty@2@PAVKFbxObject@2@PBDABVKFbxDataType@2@ABH_NW4eFbxPropertyFlags@FbxPropertyFlags@2@@Z
	?StaticInit@?$KFbxTypedProperty@W4ECameraSamplingType@KFbxCamera@fbxsdk_20100@@@fbxsdk_20100@@QAEABVKFbxProperty@2@PAVKFbxObject@2@PBDABVKFbxDataType@2@ABW4ECameraSamplingType@KFbxCamera@2@_NW4eFbxPropertyFlags@FbxPropertyFlags@2@@Z
	?GetCount@?$KBaseArray@V?$KBaseArraySizeType@PAVKStringListItem@fbxsdk_20100@@@fbxsdk_20100@@@fbxsdk_20100@@QBEHXZ
	??1KFbxTakeNodeContainer@fbxsdk_20100@@UAE@XZ
	??_7KFbxTakeNodeContainer@fbxsdk_20100@@6B@
	??_R4KFbxTakeNodeContainer@fbxsdk_20100@@6B@
	??_R0?AVKFbxTakeNodeContainer@fbxsdk_20100@@@8
	??_R3KFbxTakeNodeContainer@fbxsdk_20100@@8
	??_R2KFbxTakeNodeContainer@fbxsdk_20100@@8
	??_R1A@?0A@EA@KFbxTakeNodeContainer@fbxsdk_20100@@8
	?GetClassId@KFbxTakeNodeContainer@fbxsdk_20100@@UBE?AVkFbxClassId@2@XZ
	??_GKFbxTakeNodeContainer@fbxsdk_20100@@UAEPAXI@Z
	??1KFbxNodeAttribute@fbxsdk_20100@@UAE@XZ
	??_7KFbxNodeAttribute@fbxsdk_20100@@6B@
	??_R4KFbxNodeAttribute@fbxsdk_20100@@6B@
	??_R0?AVKFbxNodeAttribute@fbxsdk_20100@@@8
	??_R3KFbxNodeAttribute@fbxsdk_20100@@8
	??_R2KFbxNodeAttribute@fbxsdk_20100@@8
	??_R1A@?0A@EA@KFbxNodeAttribute@fbxsdk_20100@@8
	?GetClassId@KFbxNodeAttribute@fbxsdk_20100@@UBE?AVkFbxClassId@2@XZ
	?GetAttributeType@KFbxNodeAttribute@fbxsdk_20100@@UBE?AW4EAttributeType@12@XZ
	??_GKFbxNodeAttribute@fbxsdk_20100@@UAEPAXI@Z
	??0KFbxCamera@fbxsdk_20100@@IAE@AAVKFbxSdkManager@1@PBD@Z
	??_7KFbxCamera@fbxsdk_20100@@6B@
	??_R4KFbxCamera@fbxsdk_20100@@6B@
	??_R0?AVKFbxCamera@fbxsdk_20100@@@8
	??_R3KFbxCamera@fbxsdk_20100@@8
	??_R2KFbxCamera@fbxsdk_20100@@8
	??_R1A@?0A@EA@KFbxCamera@fbxsdk_20100@@8
	?GetClassId@KFbxCamera@fbxsdk_20100@@UBE?AVkFbxClassId@2@XZ
	??1KFbxCamera@fbxsdk_20100@@UAE@XZ
	??_GKFbxCamera@fbxsdk_20100@@UAEPAXI@Z
	?ConstructProperties@KFbxCamera@fbxsdk_20100@@MAE_N_N@Z
	?SetFormat@KFbxCamera@fbxsdk_20100@@QAEXW4ECameraFormat@12@@Z
	?SetPixelRatio@KFbxCamera@fbxsdk_20100@@QAEXN@Z
	?Add@?$KStringListTemplate@VKStringListItem@fbxsdk_20100@@@fbxsdk_20100@@QAEHPADI@Z
	?Clear@?$KStringListTemplate@VKStringListItem@fbxsdk_20100@@@fbxsdk_20100@@UAEXXZ
	??1?$KStringListTemplate@VKStringListItem@fbxsdk_20100@@@fbxsdk_20100@@UAE@XZ
	??_7?$KStringListTemplate@VKStringListItem@fbxsdk_20100@@@fbxsdk_20100@@6B@
	??_R4?$KStringListTemplate@VKStringListItem@fbxsdk_20100@@@fbxsdk_20100@@6B@
	??_R0?AV?$KStringListTemplate@VKStringListItem@fbxsdk_20100@@@fbxsdk_20100@@@8
	??_R3?$KStringListTemplate@VKStringListItem@fbxsdk_20100@@@fbxsdk_20100@@8
	??_R2?$KStringListTemplate@VKStringListItem@fbxsdk_20100@@@fbxsdk_20100@@8
	??_R1A@?0A@EA@?$KStringListTemplate@VKStringListItem@fbxsdk_20100@@@fbxsdk_20100@@8
	?Buffer@KString@fbxsdk_20100@@QAEPADXZ
	??0KStringListItem@fbxsdk_20100@@QAE@PBDI@Z
	?GetBlockCount@?$KBaseArray@V?$KBaseArraySizeType@PAVKStringListItem@fbxsdk_20100@@@fbxsdk_20100@@@fbxsdk_20100@@IBEHXZ
	?GetHeader@?$KBaseArray@V?$KBaseArraySizeType@PAVKStringListItem@fbxsdk_20100@@@fbxsdk_20100@@@fbxsdk_20100@@IAEPAUKHeader@12@XZ
	?GetTypeSize@?$KBaseArraySizeType@PAVKStringListItem@fbxsdk_20100@@@fbxsdk_20100@@QBEHXZ
	?GetAt@?$KArrayTemplate@PAVKStringListItem@fbxsdk_20100@@@fbxsdk_20100@@QBEPAVKStringListItem@2@H@Z
	?GetTypeSize@?$KBaseArray@V?$KBaseArraySizeType@PAVKStringListItem@fbxsdk_20100@@@fbxsdk_20100@@@fbxsdk_20100@@QBEHXZ
	?SetArrayCount@?$KBaseArray@V?$KBaseArraySizeType@PAVKStringListItem@fbxsdk_20100@@@fbxsdk_20100@@@fbxsdk_20100@@IAEXH@Z
	?SetBlockCount@?$KBaseArray@V?$KBaseArraySizeType@PAVKStringListItem@fbxsdk_20100@@@fbxsdk_20100@@@fbxsdk_20100@@IAEXH@Z
	?InsertAt@?$KBaseArray@V?$KBaseArraySizeType@PAVKStringListItem@fbxsdk_20100@@@fbxsdk_20100@@@fbxsdk_20100@@IAEHHPAX@Z
	?RemoveAt@?$KBaseArray@V?$KBaseArraySizeType@PAVKStringListItem@fbxsdk_20100@@@fbxsdk_20100@@@fbxsdk_20100@@IAEXH@Z
	?SetStringAt@?$KStringListTemplate@VKStringListItem@fbxsdk_20100@@@fbxsdk_20100@@UAE_NHPAD@Z
	?GetText@?$KStringListTemplate@VKStringListItem@fbxsdk_20100@@@fbxsdk_20100@@UAEXAAVKString@2@@Z
	?SetText@?$KStringListTemplate@VKStringListItem@fbxsdk_20100@@@fbxsdk_20100@@UAEHPAD@Z
	?InsertAt@?$KArrayTemplate@PAVKStringListItem@fbxsdk_20100@@@fbxsdk_20100@@QAEHHPAVKStringListItem@2@@Z
	?RemoveAt@?$KArrayTemplate@PAVKStringListItem@fbxsdk_20100@@@fbxsdk_20100@@QAEPAVKStringListItem@2@H@Z
	?InsertAt@?$KStringListTemplate@VKStringListItem@fbxsdk_20100@@@fbxsdk_20100@@UAEHHPADI@Z
	?RemoveAt@?$KStringListTemplate@VKStringListItem@fbxsdk_20100@@@fbxsdk_20100@@UAEXH@Z
	??_G?$KStringListTemplate@VKStringListItem@fbxsdk_20100@@@fbxsdk_20100@@UAEPAXI@Z
	??1KStringList@fbxsdk_20100@@UAE@XZ
	?GetTypeFlags@KFbxCamera@fbxsdk_20100@@MBE?AVKStringList@2@XZ
	?ClassId@KFbxCamera@fbxsdk_20100@@2VkFbxClassId@2@A
	?smMutex@?$KFbxEvent@VKFbxObjectPropertyChanged@fbxsdk_20100@@@kfbxevents@fbxsdk_20100@@0VKFbxMutex@kfbxmp@3@A
	?InsertAt@?$KStringListTemplate@VKStringListItem@fbxsdk_20100@@@fbxsdk_20100@@UAEHHPADI@Z
	?RemoveAt@?$KStringListTemplate@VKStringListItem@fbxsdk_20100@@@fbxsdk_20100@@UAEXH@Z
	?SetText@?$KStringListTemplate@VKStringListItem@fbxsdk_20100@@@fbxsdk_20100@@UAEHPAD@Z
	??_G?$KStringListTemplate@VKStringListItem@fbxsdk_20100@@@fbxsdk_20100@@UAEPAXI@Z
	??1KStringList@fbxsdk_20100@@UAE@XZ
	?GetTypeFlags@KFbxNodeAttribute@fbxsdk_20100@@MBE?AVKStringList@2@XZ
	?smMutex@?$KFbxEvent@VKFbxObjectPropertyChanged@fbxsdk_20100@@@kfbxevents@fbxsdk_20100@@0VKFbxMutex@kfbxmp@3@A
	?ClassId@KFbxNodeAttribute@fbxsdk_20100@@2VkFbxClassId@2@A
	??_R0?AV?$KStringListTemplate@VKStringListItem@fbxsdk_20100@@@fbxsdk_20100@@@8
	??_R3?$KStringListTemplate@VKStringListItem@fbxsdk_20100@@@fbxsdk_20100@@8
	??_R2?$KStringListTemplate@VKStringListItem@fbxsdk_20100@@@fbxsdk_20100@@8
	??_R1A@?0A@EA@?$KStringListTemplate@VKStringListItem@fbxsdk_20100@@@fbxsdk_20100@@8
	?Buffer@KString@fbxsdk_20100@@QAEPADXZ
	??0KStringListItem@fbxsdk_20100@@QAE@PBDI@Z
	?GetBlockCount@?$KBaseArray@V?$KBaseArraySizeType@PAVKStringListItem@fbxsdk_20100@@@fbxsdk_20100@@@fbxsdk_20100@@IBEHXZ
	?GetHeader@?$KBaseArray@V?$KBaseArraySizeType@PAVKStringListItem@fbxsdk_20100@@@fbxsdk_20100@@@fbxsdk_20100@@IAEPAUKHeader@12@XZ
	?GetTypeSize@?$KBaseArraySizeType@PAVKStringListItem@fbxsdk_20100@@@fbxsdk_20100@@QBEHXZ
	?GetAt@?$KArrayTemplate@PAVKStringListItem@fbxsdk_20100@@@fbxsdk_20100@@QBEPAVKStringListItem@2@H@Z
	?GetTypeSize@?$KBaseArray@V?$KBaseArraySizeType@PAVKStringListItem@fbxsdk_20100@@@fbxsdk_20100@@@fbxsdk_20100@@QBEHXZ
	?SetArrayCount@?$KBaseArray@V?$KBaseArraySizeType@PAVKStringListItem@fbxsdk_20100@@@fbxsdk_20100@@@fbxsdk_20100@@IAEXH@Z
	?SetBlockCount@?$KBaseArray@V?$KBaseArraySizeType@PAVKStringListItem@fbxsdk_20100@@@fbxsdk_20100@@@fbxsdk_20100@@IAEXH@Z
	?InsertAt@?$KBaseArray@V?$KBaseArraySizeType@PAVKStringListItem@fbxsdk_20100@@@fbxsdk_20100@@@fbxsdk_20100@@IAEHHPAX@Z
	?RemoveAt@?$KBaseArray@V?$KBaseArraySizeType@PAVKStringListItem@fbxsdk_20100@@@fbxsdk_20100@@@fbxsdk_20100@@IAEXH@Z
	?SetStringAt@?$KStringListTemplate@VKStringListItem@fbxsdk_20100@@@fbxsdk_20100@@UAE_NHPAD@Z
	?GetText@?$KStringListTemplate@VKStringListItem@fbxsdk_20100@@@fbxsdk_20100@@UAEXAAVKString@2@@Z
	?SetText@?$KStringListTemplate@VKStringListItem@fbxsdk_20100@@@fbxsdk_20100@@UAEHPAD@Z
	?InsertAt@?$KArrayTemplate@PAVKStringListItem@fbxsdk_20100@@@fbxsdk_20100@@QAEHHPAVKStringListItem@2@@Z
	?RemoveAt@?$KArrayTemplate@PAVKStringListItem@fbxsdk_20100@@@fbxsdk_20100@@QAEPAVKStringListItem@2@H@Z
	?InsertAt@?$KStringListTemplate@VKStringListItem@fbxsdk_20100@@@fbxsdk_20100@@UAEHHPADI@Z
	?RemoveAt@?$KStringListTemplate@VKStringListItem@fbxsdk_20100@@@fbxsdk_20100@@UAEXH@Z
	??_G?$KStringListTemplate@VKStringListItem@fbxsdk_20100@@@fbxsdk_20100@@UAEPAXI@Z
	??1KStringList@fbxsdk_20100@@UAE@XZ
	?GetTypeFlags@KFbxSkeleton@fbxsdk_20100@@MBE?AVKStringList@2@XZ
	?smMutex@?$KFbxEvent@VKFbxObjectPropertyChanged@fbxsdk_20100@@@kfbxevents@fbxsdk_20100@@0VKFbxMutex@kfbxmp@3@A
	?ClassId@KFbxSkeleton@fbxsdk_20100@@2VkFbxClassId@2@A
	?Set@?$KFbxTypedProperty@W4ETextureUse6@KFbxTexture@fbxsdk_20100@@@fbxsdk_20100@@QAE_NABW4ETextureUse6@KFbxTexture@2@@Z
	?Get@?$KFbxTypedProperty@W4ETextureUse6@KFbxTexture@fbxsdk_20100@@@fbxsdk_20100@@QBE?AW4ETextureUse6@KFbxTexture@2@XZ
	?Set@?$KFbxTypedProperty@N@fbxsdk_20100@@QAE_NABN@Z
	?Get@?$KFbxTypedProperty@N@fbxsdk_20100@@QBENXZ
	?Set@?$KFbxTypedProperty@W4EUnifiedMappingType@KFbxTexture@fbxsdk_20100@@@fbxsdk_20100@@QAE_NABW4EUnifiedMappingType@KFbxTexture@2@@Z
	?Set@?$KFbxTypedProperty@W4EWrapMode@KFbxTexture@fbxsdk_20100@@@fbxsdk_20100@@QAE_NABW4EWrapMode@KFbxTexture@2@@Z
	?Get@?$KFbxTypedProperty@W4EWrapMode@KFbxTexture@fbxsdk_20100@@@fbxsdk_20100@@QBE?AW4EWrapMode@KFbxTexture@2@XZ
	?Set@?$KFbxTypedProperty@_N@fbxsdk_20100@@QAE_NAB_N@Z
	?Get@?$KFbxTypedProperty@_N@fbxsdk_20100@@QBE_NXZ
	?Set@?$KFbxTypedProperty@V?$fbxVectorTemplate3@N@fbxsdk_20100@@@fbxsdk_20100@@QAE_NABV?$fbxVectorTemplate3@N@2@@Z
	?Set@?$KFbxTypedProperty@W4EBlendMode@KFbxTexture@fbxsdk_20100@@@fbxsdk_20100@@QAE_NABW4EBlendMode@KFbxTexture@2@@Z
	?Get@?$KFbxTypedProperty@W4EBlendMode@KFbxTexture@fbxsdk_20100@@@fbxsdk_20100@@QBE?AW4EBlendMode@KFbxTexture@2@XZ
	??0?$fbxVectorTemplate3@N@fbxsdk_20100@@QAE@XZ
	??1?$KArrayTemplate@PAVKStringListItem@fbxsdk_20100@@@fbxsdk_20100@@QAE@XZ
	??A?$KArrayTemplate@PAVKStringListItem@fbxsdk_20100@@@fbxsdk_20100@@QBEAAPAVKStringListItem@1@H@Z
	??1?$KBaseArray@V?$KBaseArraySizeType@PAVKFbxTakeNode@fbxsdk_20100@@@fbxsdk_20100@@@fbxsdk_20100@@IAE@XZ
	??1?$KBaseArray@V?$KBaseArraySizeType@PAVKFbxDefaultTakeCallback@fbxsdk_20100@@@fbxsdk_20100@@@fbxsdk_20100@@IAE@XZ
	?Set@?$KFbxTypedProperty@W4ETextureUse6@KFbxTexture@fbxsdk_20100@@@fbxsdk_20100@@QAE_NABW4ETextureUse6@KFbxTexture@2@_N@Z
	?Set@?$KFbxTypedProperty@N@fbxsdk_20100@@QAE_NABN_N@Z
	?Set@?$KFbxTypedProperty@W4EUnifiedMappingType@KFbxTexture@fbxsdk_20100@@@fbxsdk_20100@@QAE_NABW4EUnifiedMappingType@KFbxTexture@2@_N@Z
	?Set@?$KFbxTypedProperty@W4EWrapMode@KFbxTexture@fbxsdk_20100@@@fbxsdk_20100@@QAE_NABW4EWrapMode@KFbxTexture@2@_N@Z
	?Set@?$KFbxTypedProperty@_N@fbxsdk_20100@@QAE_NAB_N_N@Z
	?Set@?$KFbxTypedProperty@V?$fbxVectorTemplate3@N@fbxsdk_20100@@@fbxsdk_20100@@QAE_NABV?$fbxVectorTemplate3@N@2@_N@Z
	?Set@?$KFbxTypedProperty@W4EBlendMode@KFbxTexture@fbxsdk_20100@@@fbxsdk_20100@@QAE_NABW4EBlendMode@KFbxTexture@2@_N@Z
	?Set@?$KFbxTypedProperty@VKString@fbxsdk_20100@@@fbxsdk_20100@@QAE_NABVKString@2@_N@Z
	?GetArrayCount@?$KBaseArray@V?$KBaseArraySizeType@PAVKStringListItem@fbxsdk_20100@@@fbxsdk_20100@@@fbxsdk_20100@@IBEHXZ
	?SetDefaultT@KFbxTexture@fbxsdk_20100@@QAEXABVKFbxVector4@2@@Z
	?SetDefaultR@KFbxTexture@fbxsdk_20100@@QAEXABVKFbxVector4@2@@Z
	?SetDefaultS@KFbxTexture@fbxsdk_20100@@QAEXABVKFbxVector4@2@@Z
	?SetSwapUV@KFbxTexture@fbxsdk_20100@@QAEX_N@Z
	?GetSwapUV@KFbxTexture@fbxsdk_20100@@QBE_NXZ
	?SetMappingType@KFbxTexture@fbxsdk_20100@@QAEXW4EMappingType@12@@Z
	?SetPlanarMappingNormal@KFbxTexture@fbxsdk_20100@@QAEXW4EPlanarMappingNormal@12@@Z
	?SetMaterialUse@KFbxTexture@fbxsdk_20100@@QAEXW4EMaterialUse@12@@Z
	?GetMaterialUse@KFbxTexture@fbxsdk_20100@@QBE?AW4EMaterialUse@12@XZ
	?SetTextureUse@KFbxTexture@fbxsdk_20100@@QAEXW4ETextureUse@12@@Z
	?GetTextureUse@KFbxTexture@fbxsdk_20100@@QBE?AW4ETextureUse@12@XZ
	?SetWrapMode@KFbxTexture@fbxsdk_20100@@QAEXW4EWrapMode@12@0@Z
	?GetWrapModeU@KFbxTexture@fbxsdk_20100@@QBE?AW4EWrapMode@12@XZ
	?GetWrapModeV@KFbxTexture@fbxsdk_20100@@QBE?AW4EWrapMode@12@XZ
	?SetBlendMode@KFbxTexture@fbxsdk_20100@@QAEXW4EBlendMode@12@@Z
	?GetBlendMode@KFbxTexture@fbxsdk_20100@@QBE?AW4EBlendMode@12@XZ
	?SetDefaultAlpha@KFbxTexture@fbxsdk_20100@@QAEXN@Z
	?GetDefaultAlpha@KFbxTexture@fbxsdk_20100@@QBENXZ
	?SetTranslation@KFbxTexture@fbxsdk_20100@@QAEXNN@Z
	?SetRotation@KFbxTexture@fbxsdk_20100@@QAEXNNN@Z
	?SetScale@KFbxTexture@fbxsdk_20100@@QAEXNN@Z
	??1?$KArrayTemplate@PAVKFbxTakeNode@fbxsdk_20100@@@fbxsdk_20100@@QAE@XZ
	??1?$KArrayTemplate@PAVKFbxDefaultTakeCallback@fbxsdk_20100@@@fbxsdk_20100@@QAE@XZ
	?StaticInit@?$KFbxTypedProperty@W4ETextureUse6@KFbxTexture@fbxsdk_20100@@@fbxsdk_20100@@QAEABVKFbxProperty@2@PAVKFbxObject@2@PBDABVKFbxDataType@2@ABW4ETextureUse6@KFbxTexture@2@_NW4eFbxPropertyFlags@FbxPropertyFlags@2@@Z
	?StaticInit@?$KFbxTypedProperty@N@fbxsdk_20100@@QAEABVKFbxProperty@2@PAVKFbxObject@2@PBDABVKFbxDataType@2@ABN_NW4eFbxPropertyFlags@FbxPropertyFlags@2@@Z
	?StaticInit@?$KFbxTypedProperty@W4EUnifiedMappingType@KFbxTexture@fbxsdk_20100@@@fbxsdk_20100@@QAEABVKFbxProperty@2@PAVKFbxObject@2@PBDABVKFbxDataType@2@ABW4EUnifiedMappingType@KFbxTexture@2@_NW4eFbxPropertyFlags@FbxPropertyFlags@2@@Z
	?StaticInit@?$KFbxTypedProperty@W4EWrapMode@KFbxTexture@fbxsdk_20100@@@fbxsdk_20100@@QAEABVKFbxProperty@2@PAVKFbxObject@2@PBDABVKFbxDataType@2@ABW4EWrapMode@KFbxTexture@2@_NW4eFbxPropertyFlags@FbxPropertyFlags@2@@Z
	?StaticInit@?$KFbxTypedProperty@_N@fbxsdk_20100@@QAEABVKFbxProperty@2@PAVKFbxObject@2@PBDABVKFbxDataType@2@AB_N_NW4eFbxPropertyFlags@FbxPropertyFlags@2@@Z
	?StaticInit@?$KFbxTypedProperty@V?$fbxVectorTemplate3@N@fbxsdk_20100@@@fbxsdk_20100@@QAEABVKFbxProperty@2@PAVKFbxObject@2@PBDABVKFbxDataType@2@ABV?$fbxVectorTemplate3@N@2@_NW4eFbxPropertyFlags@FbxPropertyFlags@2@@Z
	?Get@?$KFbxTypedProperty@V?$fbxVectorTemplate3@N@fbxsdk_20100@@@fbxsdk_20100@@QBE?AV?$fbxVectorTemplate3@N@2@XZ
	?StaticInit@?$KFbxTypedProperty@W4EBlendMode@KFbxTexture@fbxsdk_20100@@@fbxsdk_20100@@QAEABVKFbxProperty@2@PAVKFbxObject@2@PBDABVKFbxDataType@2@ABW4EBlendMode@KFbxTexture@2@_NW4eFbxPropertyFlags@FbxPropertyFlags@2@@Z
	?StaticInit@?$KFbxTypedProperty@VKString@fbxsdk_20100@@@fbxsdk_20100@@QAEABVKFbxProperty@2@PAVKFbxObject@2@PBDABVKFbxDataType@2@ABVKString@2@_NW4eFbxPropertyFlags@FbxPropertyFlags@2@@Z
	?GetCount@?$KBaseArray@V?$KBaseArraySizeType@PAVKStringListItem@fbxsdk_20100@@@fbxsdk_20100@@@fbxsdk_20100@@QBEHXZ
	??1KFbxTakeNodeContainer@fbxsdk_20100@@UAE@XZ
	??_7KFbxTakeNodeContainer@fbxsdk_20100@@6B@
	??_R4KFbxTakeNodeContainer@fbxsdk_20100@@6B@
	??_R0?AVKFbxTakeNodeContainer@fbxsdk_20100@@@8
	??_R3KFbxTakeNodeContainer@fbxsdk_20100@@8
	??_R2KFbxTakeNodeContainer@fbxsdk_20100@@8
	??_R1A@?0A@EA@KFbxTakeNodeContainer@fbxsdk_20100@@8
	?GetClassId@KFbxTakeNodeContainer@fbxsdk_20100@@UBE?AVkFbxClassId@2@XZ
	??_GKFbxTakeNodeContainer@fbxsdk_20100@@UAEPAXI@Z
	??1KFbxShadingObject@fbxsdk_20100@@UAE@XZ
	??_7KFbxShadingObject@fbxsdk_20100@@6B@
	??_R4KFbxShadingObject@fbxsdk_20100@@6B@
	??_R0?AVKFbxShadingObject@fbxsdk_20100@@@8
	??_R3KFbxShadingObject@fbxsdk_20100@@8
	??_R2KFbxShadingObject@fbxsdk_20100@@8
	??_R1A@?0A@EA@KFbxShadingObject@fbxsdk_20100@@8
	?GetClassId@KFbxShadingObject@fbxsdk_20100@@UBE?AVkFbxClassId@2@XZ
	??_GKFbxShadingObject@fbxsdk_20100@@UAEPAXI@Z
	??1KFbxShadingNode@fbxsdk_20100@@UAE@XZ
	??0KFbxTexture@fbxsdk_20100@@IAE@AAVKFbxSdkManager@1@PBD@Z
	??_7KFbxTexture@fbxsdk_20100@@6B@
	??_R4KFbxTexture@fbxsdk_20100@@6B@
	??_R0?AVKFbxTexture@fbxsdk_20100@@@8
	??_R3KFbxTexture@fbxsdk_20100@@8
	??_R2KFbxTexture@fbxsdk_20100@@8
	??_R1A@?0A@EA@KFbxTexture@fbxsdk_20100@@8
	??_R1A@?0A@EA@KFbxShadingNode@fbxsdk_20100@@8
	??_R0?AVKFbxShadingNode@fbxsdk_20100@@@8
	??_R3KFbxShadingNode@fbxsdk_20100@@8
	??_R2KFbxShadingNode@fbxsdk_20100@@8
	?GetClassId@KFbxTexture@fbxsdk_20100@@UBE?AVkFbxClassId@2@XZ
	??1KFbxTexture@fbxsdk_20100@@UAE@XZ
	??_GKFbxTexture@fbxsdk_20100@@UAEPAXI@Z
	?ConstructProperties@KFbxTexture@fbxsdk_20100@@MAE_N_N@Z
	?GetDefaultT@KFbxTexture@fbxsdk_20100@@QBEAAVKFbxVector4@2@AAV32@@Z
	?GetDefaultR@KFbxTexture@fbxsdk_20100@@QBEAAVKFbxVector4@2@AAV32@@Z
	?GetDefaultS@KFbxTexture@fbxsdk_20100@@QBEAAVKFbxVector4@2@AAV32@@Z
	?GetTranslationU@KFbxTexture@fbxsdk_20100@@QBENXZ
	?GetTranslationV@KFbxTexture@fbxsdk_20100@@QBENXZ
	?GetRotationU@KFbxTexture@fbxsdk_20100@@QBENXZ
	?GetRotationV@KFbxTexture@fbxsdk_20100@@QBENXZ
	?GetRotationW@KFbxTexture@fbxsdk_20100@@QBENXZ
	?GetScaleU@KFbxTexture@fbxsdk_20100@@QBENXZ
	?GetScaleV@KFbxTexture@fbxsdk_20100@@QBENXZ
	??8KFbxTexture@fbxsdk_20100@@QBE_NABV01@@Z
	?Clear@?$KStringListTemplate@VKStringListItem@fbxsdk_20100@@@fbxsdk_20100@@UAEXXZ
	??1?$KStringListTemplate@VKStringListItem@fbxsdk_20100@@@fbxsdk_20100@@UAE@XZ
	??_7?$KStringListTemplate@VKStringListItem@fbxsdk_20100@@@fbxsdk_20100@@6B@
	??_R4?$KStringListTemplate@VKStringListItem@fbxsdk_20100@@@fbxsdk_20100@@6B@
	??_R0?AV?$KStringListTemplate@VKStringListItem@fbxsdk_20100@@@fbxsdk_20100@@@8
	??_R3?$KStringListTemplate@VKStringListItem@fbxsdk_20100@@@fbxsdk_20100@@8
	??_R2?$KStringListTemplate@VKStringListItem@fbxsdk_20100@@@fbxsdk_20100@@8
	??_R1A@?0A@EA@?$KStringListTemplate@VKStringListItem@fbxsdk_20100@@@fbxsdk_20100@@8
	?Buffer@KString@fbxsdk_20100@@QAEPADXZ
	??0KStringListItem@fbxsdk_20100@@QAE@PBDI@Z
	?GetBlockCount@?$KBaseArray@V?$KBaseArraySizeType@PAVKStringListItem@fbxsdk_20100@@@fbxsdk_20100@@@fbxsdk_20100@@IBEHXZ
	?GetHeader@?$KBaseArray@V?$KBaseArraySizeType@PAVKStringListItem@fbxsdk_20100@@@fbxsdk_20100@@@fbxsdk_20100@@IAEPAUKHeader@12@XZ
	?GetTypeSize@?$KBaseArraySizeType@PAVKStringListItem@fbxsdk_20100@@@fbxsdk_20100@@QBEHXZ
	?GetAt@?$KArrayTemplate@PAVKStringListItem@fbxsdk_20100@@@fbxsdk_20100@@QBEPAVKStringListItem@2@H@Z
	?GetTypeSize@?$KBaseArray@V?$KBaseArraySizeType@PAVKStringListItem@fbxsdk_20100@@@fbxsdk_20100@@@fbxsdk_20100@@QBEHXZ
	?SetArrayCount@?$KBaseArray@V?$KBaseArraySizeType@PAVKStringListItem@fbxsdk_20100@@@fbxsdk_20100@@@fbxsdk_20100@@IAEXH@Z
	?SetBlockCount@?$KBaseArray@V?$KBaseArraySizeType@PAVKStringListItem@fbxsdk_20100@@@fbxsdk_20100@@@fbxsdk_20100@@IAEXH@Z
	?InsertAt@?$KBaseArray@V?$KBaseArraySizeType@PAVKStringListItem@fbxsdk_20100@@@fbxsdk_20100@@@fbxsdk_20100@@IAEHHPAX@Z
	?RemoveAt@?$KBaseArray@V?$KBaseArraySizeType@PAVKStringListItem@fbxsdk_20100@@@fbxsdk_20100@@@fbxsdk_20100@@IAEXH@Z
	?SetStringAt@?$KStringListTemplate@VKStringListItem@fbxsdk_20100@@@fbxsdk_20100@@UAE_NHPAD@Z
	?GetText@?$KStringListTemplate@VKStringListItem@fbxsdk_20100@@@fbxsdk_20100@@UAEXAAVKString@2@@Z
	?Add@?$KStringListTemplate@VKStringListItem@fbxsdk_20100@@@fbxsdk_20100@@QAEHPADI@Z
	?InsertAt@?$KArrayTemplate@PAVKStringListItem@fbxsdk_20100@@@fbxsdk_20100@@QAEHHPAVKStringListItem@2@@Z
	?RemoveAt@?$KArrayTemplate@PAVKStringListItem@fbxsdk_20100@@@fbxsdk_20100@@QAEPAVKStringListItem@2@H@Z
	?InsertAt@?$KStringListTemplate@VKStringListItem@fbxsdk_20100@@@fbxsdk_20100@@UAEHHPADI@Z
	?RemoveAt@?$KStringListTemplate@VKStringListItem@fbxsdk_20100@@@fbxsdk_20100@@UAEXH@Z
	?SetText@?$KStringListTemplate@VKStringListItem@fbxsdk_20100@@@fbxsdk_20100@@UAEHPAD@Z
	??_G?$KStringListTemplate@VKStringListItem@fbxsdk_20100@@@fbxsdk_20100@@UAEPAXI@Z
	??1KStringList@fbxsdk_20100@@UAE@XZ
	?GetTypeFlags@KFbxTexture@fbxsdk_20100@@MBE?AVKStringList@2@XZ
	?smMutex@?$KFbxEvent@VKFbxObjectPropertyChanged@fbxsdk_20100@@@kfbxevents@fbxsdk_20100@@0VKFbxMutex@kfbxmp@3@A
	?ClassId@KFbxTexture@fbxsdk_20100@@2VkFbxClassId@2@A
	?Clear@?$KStringListTemplate@VKStringListItem@fbxsdk_20100@@@fbxsdk_20100@@UAEXXZ
	??1?$KStringListTemplate@VKStringListItem@fbxsdk_20100@@@fbxsdk_20100@@UAE@XZ
	??_7?$KStringListTemplate@VKStringListItem@fbxsdk_20100@@@fbxsdk_20100@@6B@
	??_R4?$KStringListTemplate@VKStringListItem@fbxsdk_20100@@@fbxsdk_20100@@6B@
	??_R0?AV?$KStringListTemplate@VKStringListItem@fbxsdk_20100@@@fbxsdk_20100@@@8
	??_R3?$KStringListTemplate@VKStringListItem@fbxsdk_20100@@@fbxsdk_20100@@8
	??_R2?$KStringListTemplate@VKStringListItem@fbxsdk_20100@@@fbxsdk_20100@@8
	??_R1A@?0A@EA@?$KStringListTemplate@VKStringListItem@fbxsdk_20100@@@fbxsdk_20100@@8
	?Buffer@KString@fbxsdk_20100@@QAEPADXZ
	??0KStringListItem@fbxsdk_20100@@QAE@PBDI@Z
	?GetBlockCount@?$KBaseArray@V?$KBaseArraySizeType@PAVKStringListItem@fbxsdk_20100@@@fbxsdk_20100@@@fbxsdk_20100@@IBEHXZ
	?GetHeader@?$KBaseArray@V?$KBaseArraySizeType@PAVKStringListItem@fbxsdk_20100@@@fbxsdk_20100@@@fbxsdk_20100@@IAEPAUKHeader@12@XZ
	?GetTypeSize@?$KBaseArraySizeType@PAVKStringListItem@fbxsdk_20100@@@fbxsdk_20100@@QBEHXZ
	?GetAt@?$KArrayTemplate@PAVKStringListItem@fbxsdk_20100@@@fbxsdk_20100@@QBEPAVKStringListItem@2@H@Z
	?GetTypeSize@?$KBaseArray@V?$KBaseArraySizeType@PAVKStringListItem@fbxsdk_20100@@@fbxsdk_20100@@@fbxsdk_20100@@QBEHXZ
	?SetArrayCount@?$KBaseArray@V?$KBaseArraySizeType@PAVKStringListItem@fbxsdk_20100@@@fbxsdk_20100@@@fbxsdk_20100@@IAEXH@Z
	?SetBlockCount@?$KBaseArray@V?$KBaseArraySizeType@PAVKStringListItem@fbxsdk_20100@@@fbxsdk_20100@@@fbxsdk_20100@@IAEXH@Z
	?InsertAt@?$KBaseArray@V?$KBaseArraySizeType@PAVKStringListItem@fbxsdk_20100@@@fbxsdk_20100@@@fbxsdk_20100@@IAEHHPAX@Z
	?RemoveAt@?$KBaseArray@V?$KBaseArraySizeType@PAVKStringListItem@fbxsdk_20100@@@fbxsdk_20100@@@fbxsdk_20100@@IAEXH@Z
	?SetStringAt@?$KStringListTemplate@VKStringListItem@fbxsdk_20100@@@fbxsdk_20100@@UAE_NHPAD@Z
	?GetText@?$KStringListTemplate@VKStringListItem@fbxsdk_20100@@@fbxsdk_20100@@UAEXAAVKString@2@@Z
	?Add@?$KStringListTemplate@VKStringListItem@fbxsdk_20100@@@fbxsdk_20100@@QAEHPADI@Z
	?InsertAt@?$KArrayTemplate@PAVKStringListItem@fbxsdk_20100@@@fbxsdk_20100@@QAEHHPAVKStringListItem@2@@Z
	?RemoveAt@?$KArrayTemplate@PAVKStringListItem@fbxsdk_20100@@@fbxsdk_20100@@QAEPAVKStringListItem@2@H@Z
	?InsertAt@?$KStringListTemplate@VKStringListItem@fbxsdk_20100@@@fbxsdk_20100@@UAEHHPADI@Z
	?RemoveAt@?$KStringListTemplate@VKStringListItem@fbxsdk_20100@@@fbxsdk_20100@@UAEXH@Z
	?SetText@?$KStringListTemplate@VKStringListItem@fbxsdk_20100@@@fbxsdk_20100@@UAEHPAD@Z
	??_G?$KStringListTemplate@VKStringListItem@fbxsdk_20100@@@fbxsdk_20100@@UAEPAXI@Z
	??1KStringList@fbxsdk_20100@@UAE@XZ
	?GetTypeFlags@KFbxSurfacePhong@fbxsdk_20100@@MBE?AVKStringList@2@XZ
	?sReflectionDefault@KFbxSurfacePhong@fbxsdk_20100@@2V?$fbxVectorTemplate3@N@2@A
	?smMutex@?$KFbxEvent@VKFbxObjectPropertyChanged@fbxsdk_20100@@@kfbxevents@fbxsdk_20100@@0VKFbxMutex@kfbxmp@3@A
	?ClassId@KFbxSurfacePhong@fbxsdk_20100@@2VkFbxClassId@2@A
	??_R4KFbxShadingObject@fbxsdk_20100@@6B@
	??_R0?AVKFbxShadingObject@fbxsdk_20100@@@8
	??_R3KFbxShadingObject@fbxsdk_20100@@8
	??_R2KFbxShadingObject@fbxsdk_20100@@8
	??_R1A@?0A@EA@KFbxShadingObject@fbxsdk_20100@@8
	?GetClassId@KFbxShadingObject@fbxsdk_20100@@UBE?AVkFbxClassId@2@XZ
	??_GKFbxShadingObject@fbxsdk_20100@@UAEPAXI@Z
	??0KFbxSurfaceMaterial@fbxsdk_20100@@IAE@AAVKFbxSdkManager@1@PBD@Z
	??_7KFbxSurfaceMaterial@fbxsdk_20100@@6B@
	??_R4KFbxSurfaceMaterial@fbxsdk_20100@@6B@
	??_R0?AVKFbxSurfaceMaterial@fbxsdk_20100@@@8
	??_R3KFbxSurfaceMaterial@fbxsdk_20100@@8
	??_R2KFbxSurfaceMaterial@fbxsdk_20100@@8
	??_R1A@?0A@EA@KFbxSurfaceMaterial@fbxsdk_20100@@8
	?GetClassId@KFbxSurfaceMaterial@fbxsdk_20100@@UBE?AVkFbxClassId@2@XZ
	??1KFbxSurfaceMaterial@fbxsdk_20100@@UAE@XZ
	??_GKFbxSurfaceMaterial@fbxsdk_20100@@UAEPAXI@Z
	?ConstructProperties@KFbxSurfaceMaterial@fbxsdk_20100@@MAE_N_N@Z
	?GetColorParameter@KFbxSurfaceMaterial@fbxsdk_20100@@IBE_NVKFbxProperty@2@AAVKFbxColor@2@@Z
	?Clear@?$KStringListTemplate@VKStringListItem@fbxsdk_20100@@@fbxsdk_20100@@UAEXXZ
	??1?$KStringListTemplate@VKStringListItem@fbxsdk_20100@@@fbxsdk_20100@@UAE@XZ
	??_7?$KStringListTemplate@VKStringListItem@fbxsdk_20100@@@fbxsdk_20100@@6B@
	??_R4?$KStringListTemplate@VKStringListItem@fbxsdk_20100@@@fbxsdk_20100@@6B@
	??_R0?AV?$KStringListTemplate@VKStringListItem@fbxsdk_20100@@@fbxsdk_20100@@@8
	??_R3?$KStringListTemplate@VKStringListItem@fbxsdk_20100@@@fbxsdk_20100@@8
	??_R2?$KStringListTemplate@VKStringListItem@fbxsdk_20100@@@fbxsdk_20100@@8
	??_R1A@?0A@EA@?$KStringListTemplate@VKStringListItem@fbxsdk_20100@@@fbxsdk_20100@@8
	?Buffer@KString@fbxsdk_20100@@QAEPADXZ
	??0KStringListItem@fbxsdk_20100@@QAE@PBDI@Z
	?GetBlockCount@?$KBaseArray@V?$KBaseArraySizeType@PAVKStringListItem@fbxsdk_20100@@@fbxsdk_20100@@@fbxsdk_20100@@IBEHXZ
	?GetHeader@?$KBaseArray@V?$KBaseArraySizeType@PAVKStringListItem@fbxsdk_20100@@@fbxsdk_20100@@@fbxsdk_20100@@IAEPAUKHeader@12@XZ
	?GetTypeSize@?$KBaseArraySizeType@PAVKStringListItem@fbxsdk_20100@@@fbxsdk_20100@@QBEHXZ
	?GetAt@?$KArrayTemplate@PAVKStringListItem@fbxsdk_20100@@@fbxsdk_20100@@QBEPAVKStringListItem@2@H@Z
	?GetTypeSize@?$KBaseArray@V?$KBaseArraySizeType@PAVKStringListItem@fbxsdk_20100@@@fbxsdk_20100@@@fbxsdk_20100@@QBEHXZ
	?SetArrayCount@?$KBaseArray@V?$KBaseArraySizeType@PAVKStringListItem@fbxsdk_20100@@@fbxsdk_20100@@@fbxsdk_20100@@IAEXH@Z
	?SetBlockCount@?$KBaseArray@V?$KBaseArraySizeType@PAVKStringListItem@fbxsdk_20100@@@fbxsdk_20100@@@fbxsdk_20100@@IAEXH@Z
	?InsertAt@?$KBaseArray@V?$KBaseArraySizeType@PAVKStringListItem@fbxsdk_20100@@@fbxsdk_20100@@@fbxsdk_20100@@IAEHHPAX@Z
	?RemoveAt@?$KBaseArray@V?$KBaseArraySizeType@PAVKStringListItem@fbxsdk_20100@@@fbxsdk_20100@@@fbxsdk_20100@@IAEXH@Z
	?SetStringAt@?$KStringListTemplate@VKStringListItem@fbxsdk_20100@@@fbxsdk_20100@@UAE_NHPAD@Z
	?GetText@?$KStringListTemplate@VKStringListItem@fbxsdk_20100@@@fbxsdk_20100@@UAEXAAVKString@2@@Z
	?Add@?$KStringListTemplate@VKStringListItem@fbxsdk_20100@@@fbxsdk_20100@@QAEHPADI@Z
	?InsertAt@?$KArrayTemplate@PAVKStringListItem@fbxsdk_20100@@@fbxsdk_20100@@QAEHHPAVKStringListItem@2@@Z
	?RemoveAt@?$KArrayTemplate@PAVKStringListItem@fbxsdk_20100@@@fbxsdk_20100@@QAEPAVKStringListItem@2@H@Z
	?InsertAt@?$KStringListTemplate@VKStringListItem@fbxsdk_20100@@@fbxsdk_20100@@UAEHHPADI@Z
	?RemoveAt@?$KStringListTemplate@VKStringListItem@fbxsdk_20100@@@fbxsdk_20100@@UAEXH@Z
	?SetText@?$KStringListTemplate@VKStringListItem@fbxsdk_20100@@@fbxsdk_20100@@UAEHPAD@Z
	??_G?$KStringListTemplate@VKStringListItem@fbxsdk_20100@@@fbxsdk_20100@@UAEPAXI@Z
	??1KStringList@fbxsdk_20100@@UAE@XZ
	?GetTypeFlags@KFbxSurfaceMaterial@fbxsdk_20100@@UBE?AVKStringList@2@XZ
	?smMutex@?$KFbxEvent@VKFbxObjectPropertyChanged@fbxsdk_20100@@@kfbxevents@fbxsdk_20100@@0VKFbxMutex@kfbxmp@3@A
	?GetClassId@KFbxSurfaceLambert@fbxsdk_20100@@UBE?AVkFbxClassId@2@XZ
	??1KFbxSurfaceLambert@fbxsdk_20100@@UAE@XZ
	??_GKFbxSurfaceLambert@fbxsdk_20100@@UAEPAXI@Z
	?ConstructProperties@KFbxSurfaceLambert@fbxsdk_20100@@MAE_N_N@Z
	??4KFbxSurfaceLambert@fbxsdk_20100@@IAEAAV01@ABV01@@Z
	?Clone@KFbxSurfaceLambert@fbxsdk_20100@@UBEPAVKFbxObject@2@PAV32@W4ECloneType@32@@Z
	?Clear@?$KStringListTemplate@VKStringListItem@fbxsdk_20100@@@fbxsdk_20100@@UAEXXZ
	??1?$KStringListTemplate@VKStringListItem@fbxsdk_20100@@@fbxsdk_20100@@UAE@XZ
	??_7?$KStringListTemplate@VKStringListItem@fbxsdk_20100@@@fbxsdk_20100@@6B@
	??_R4?$KStringListTemplate@VKStringListItem@fbxsdk_20100@@@fbxsdk_20100@@6B@
	??_R0?AV?$KStringListTemplate@VKStringListItem@fbxsdk_20100@@@fbxsdk_20100@@@8
	??_R3?$KStringListTemplate@VKStringListItem@fbxsdk_20100@@@fbxsdk_20100@@8
	??_R2?$KStringListTemplate@VKStringListItem@fbxsdk_20100@@@fbxsdk_20100@@8
	??_R1A@?0A@EA@?$KStringListTemplate@VKStringListItem@fbxsdk_20100@@@fbxsdk_20100@@8
	?Buffer@KString@fbxsdk_20100@@QAEPADXZ
	??0KStringListItem@fbxsdk_20100@@QAE@PBDI@Z
	?GetBlockCount@?$KBaseArray@V?$KBaseArraySizeType@PAVKStringListItem@fbxsdk_20100@@@fbxsdk_20100@@@fbxsdk_20100@@IBEHXZ
	?GetHeader@?$KBaseArray@V?$KBaseArraySizeType@PAVKStringListItem@fbxsdk_20100@@@fbxsdk_20100@@@fbxsdk_20100@@IAEPAUKHeader@12@XZ
	?GetTypeSize@?$KBaseArraySizeType@PAVKStringListItem@fbxsdk_20100@@@fbxsdk_20100@@QBEHXZ
	?GetAt@?$KArrayTemplate@PAVKStringListItem@fbxsdk_20100@@@fbxsdk_20100@@QBEPAVKStringListItem@2@H@Z
	?GetTypeSize@?$KBaseArray@V?$KBaseArraySizeType@PAVKStringListItem@fbxsdk_20100@@@fbxsdk_20100@@@fbxsdk_20100@@QBEHXZ
	?SetArrayCount@?$KBaseArray@V?$KBaseArraySizeType@PAVKStringListItem@fbxsdk_20100@@@fbxsdk_20100@@@fbxsdk_20100@@IAEXH@Z
	?SetBlockCount@?$KBaseArray@V?$KBaseArraySizeType@PAVKStringListItem@fbxsdk_20100@@@fbxsdk_20100@@@fbxsdk_20100@@IAEXH@Z
	?InsertAt@?$KBaseArray@V?$KBaseArraySizeType@PAVKStringListItem@fbxsdk_20100@@@fbxsdk_20100@@@fbxsdk_20100@@IAEHHPAX@Z
	?RemoveAt@?$KBaseArray@V?$KBaseArraySizeType@PAVKStringListItem@fbxsdk_20100@@@fbxsdk_20100@@@fbxsdk_20100@@IAEXH@Z
	?SetStringAt@?$KStringListTemplate@VKStringListItem@fbxsdk_20100@@@fbxsdk_20100@@UAE_NHPAD@Z
	?GetText@?$KStringListTemplate@VKStringListItem@fbxsdk_20100@@@fbxsdk_20100@@UAEXAAVKString@2@@Z
	?Add@?$KStringListTemplate@VKStringListItem@fbxsdk_20100@@@fbxsdk_20100@@QAEHPADI@Z
	?InsertAt@?$KArrayTemplate@PAVKStringListItem@fbxsdk_20100@@@fbxsdk_20100@@QAEHHPAVKStringListItem@2@@Z
	?RemoveAt@?$KArrayTemplate@PAVKStringListItem@fbxsdk_20100@@@fbxsdk_20100@@QAEPAVKStringListItem@2@H@Z
	?InsertAt@?$KStringListTemplate@VKStringListItem@fbxsdk_20100@@@fbxsdk_20100@@UAEHHPADI@Z
	?RemoveAt@?$KStringListTemplate@VKStringListItem@fbxsdk_20100@@@fbxsdk_20100@@UAEXH@Z
	?SetText@?$KStringListTemplate@VKStringListItem@fbxsdk_20100@@@fbxsdk_20100@@UAEHPAD@Z
	??_G?$KStringListTemplate@VKStringListItem@fbxsdk_20100@@@fbxsdk_20100@@UAEPAXI@Z
	??1KStringList@fbxsdk_20100@@UAE@XZ
	?GetTypeFlags@KFbxSurfaceLambert@fbxsdk_20100@@MBE?AVKStringList@2@XZ
	?smMutex@?$KFbxEvent@VKFbxObjectPropertyChanged@fbxsdk_20100@@@kfbxevents@fbxsdk_20100@@0VKFbxMutex@kfbxmp@3@A
	??0PropertyConverter_DivideBy100@?A0x7d033af9@fbxsdk_20100@@QAE@XZ
	??_7PropertyConverter_DivideBy100@?A0x7d033af9@fbxsdk_20100@@6B@
	??_R4PropertyConverter_DivideBy100@?A0x7d033af9@fbxsdk_20100@@6B@
	??_R0?AVPropertyConverter_DivideBy100@?A0x7d033af9@fbxsdk_20100@@@8
	??_R3PropertyConverter_DivideBy100@?A0x7d033af9@fbxsdk_20100@@8
	??_R2PropertyConverter_DivideBy100@?A0x7d033af9@fbxsdk_20100@@8
	??_R1A@?0A@EA@PropertyConverter_DivideBy100@?A0x7d033af9@fbxsdk_20100@@8
	?ConvertValue@PropertyConverter_DivideBy100@?A0x7d033af9@fbxsdk_20100@@MBEXABNAAN@Z
	?Is3dsmaxDaylightPortal@KFbxMaxLightConverter@fbxsdk_20100@@ABE_NABVKFbxObject@2@@Z
	?CopyAssetImplementation@KFbxMaxLightConverter@fbxsdk_20100@@ABEXABVKFbxObject@2@AAV32@AAVKFbxScene@2@@Z
	?Is3dsmaxDaylightSystem@KFbxMaxLightConverter@fbxsdk_20100@@ABE_NABVKFbxObject@2@@Z
	?DeleteDaylightSystem@KFbxMaxLightConverter@fbxsdk_20100@@ABEXPAVKFbxObject@2@@Z
	?GetAt@?$KArrayTemplate@PAVKFbxDocument@fbxsdk_20100@@@fbxsdk_20100@@QBEPAVKFbxDocument@2@H@Z
	??R?$PropertyConverter@NN@?A0x7d033af9@fbxsdk_20100@@QBEXPBVKFbxObject@2@PAV32@PBD2@Z
	??R?$PropertyConverter@HH@?A0x7d033af9@fbxsdk_20100@@QBEXPBVKFbxObject@2@PAV32@PBD2@Z
	??R?$PropertyConverter@_N_N@?A0x7d033af9@fbxsdk_20100@@QBEXPBVKFbxObject@2@PAV32@PBD2@Z
	??0?$fbxVectorTemplate3@N@fbxsdk_20100@@QAE@XZ
	??0?$fbxVectorTemplate4@N@fbxsdk_20100@@QAE@XZ
	?GetArrayCount@?$KBaseArray@V?$KBaseArraySizeType@PAVKFbxDocument@fbxsdk_20100@@@fbxsdk_20100@@@fbxsdk_20100@@IBEHXZ
	??$GetSrcObjectCount@VKFbxEnvironment@fbxsdk_20100@@@KFbxObject@fbxsdk_20100@@QBEHPBVKFbxEnvironment@1@@Z
	??$GetSrcObject@VKFbxEnvironment@fbxsdk_20100@@@KFbxObject@fbxsdk_20100@@QBEPAVKFbxEnvironment@1@PBV21@H@Z
	?GetSrcObject@KFbxSdkManager@fbxsdk_20100@@QAEPAVKFbxDocument@2@PBV32@H@Z
	??0?$fbxVectorTemplate4@V?$fbxVectorTemplate4@N@fbxsdk_20100@@@fbxsdk_20100@@QAE@V?$fbxVectorTemplate4@N@1@000@Z
	?GetCount@?$KBaseArray@V?$KBaseArraySizeType@PAVKFbxDocument@fbxsdk_20100@@@fbxsdk_20100@@@fbxsdk_20100@@QBEHXZ
	??R?$PropertyConverter@V?$fbxVectorTemplate4@N@fbxsdk_20100@@V?$fbxVectorTemplate3@N@2@@?A0x7d033af9@fbxsdk_20100@@QBEXPBVKFbxObject@2@PAV32@PBD2@Z
	??R?$PropertyConverter@V?$fbxVectorTemplate4@N@fbxsdk_20100@@V12@@?A0x7d033af9@fbxsdk_20100@@QBEXPBVKFbxObject@2@PAV32@PBD2@Z
	?GetSrcObjectCount@KFbxSdkManager@fbxsdk_20100@@QAEHPBVKFbxDocument@2@@Z
	?PhotometricTransferPropertyValues@KFbxMaxLightConverter@fbxsdk_20100@@ABEXPAVKFbxObject@2@0@Z
	?CopyDaylightPortalPropertyValues@KFbxMaxLightConverter@fbxsdk_20100@@ABEXABVKFbxObject@2@AAV32@@Z
	??$FindAssetByName@VKFbxLight@fbxsdk_20100@@@KFbxMaxLightConverter@fbxsdk_20100@@ABEPBVKFbxObject@1@PBDPBVKFbxLight@1@@Z
	??$FindAssetByName@VKFbxEnvironment@fbxsdk_20100@@@KFbxMaxLightConverter@fbxsdk_20100@@ABEPBVKFbxObject@1@PBDPBVKFbxEnvironment@1@@Z
	?ConvertSceneElementRecursive@KFbxMaxLightConverter@fbxsdk_20100@@ABEXPAVKFbxObject@2@AAVKFbxScene@2@@Z
	?Convert@KFbxMaxLightConverter@fbxsdk_20100@@QBEXPAVKFbxScene@2@@Z
	?smMutex@?$KFbxEvent@VKFbxEventUpdateSystemLibrary@fbxsdk_20100@@@kfbxevents@fbxsdk_20100@@0VKFbxMutex@kfbxmp@3@A
	?smMutex@?$KFbxEvent@VKFbxObjectPropertyChanged@fbxsdk_20100@@@kfbxevents@fbxsdk_20100@@0VKFbxMutex@kfbxmp@3@A
	?smMutex@?$KFbxEvent@VKFbxEventWriteLocalization@fbxsdk_20100@@@kfbxevents@fbxsdk_20100@@0VKFbxMutex@kfbxmp@3@A
	?smMutex@?$KFbxEvent@VKFbxEventMapAssetFileToAssetObject@fbxsdk_20100@@@kfbxevents@fbxsdk_20100@@0VKFbxMutex@kfbxmp@3@A
	?smMutex@?$KFbxEvent@VKFbxEventPopulateSystemLibrary@fbxsdk_20100@@@kfbxevents@fbxsdk_20100@@0VKFbxMutex@kfbxmp@3@A
	?GetHeader@?$KBaseArray@V?$KBaseArraySizeType@PAVListItem@?$KHashMap@VLayerConfig@fbxsdk_20100@@HVLayerConfigHash@2@V?$NoOpDestruct@H@2@V?$DefaultComparator@VLayerConfig@fbxsdk_20100@@@2@@fbxsdk_20100@@@fbxsdk_20100@@@fbxsdk_20100@@IBEQAUKHeader@12@XZ
	?GetHeader@?$KBaseArray@V?$KBaseArraySizeType@PAVListItem@?$KHashMap@VLayerConfig@fbxsdk_20100@@HVLayerConfigHash@2@V?$NoOpDestruct@H@2@V?$DefaultComparator@VLayerConfig@fbxsdk_20100@@@2@@fbxsdk_20100@@@fbxsdk_20100@@@fbxsdk_20100@@IAEPAUKHeader@12@XZ
	?GetTypeSize@?$KBaseArraySizeType@PAVListItem@?$KHashMap@VLayerConfig@fbxsdk_20100@@HVLayerConfigHash@2@V?$NoOpDestruct@H@2@V?$DefaultComparator@VLayerConfig@fbxsdk_20100@@@2@@fbxsdk_20100@@@fbxsdk_20100@@QBEHXZ
	?GetBlockCount@?$KBaseArray@V?$KBaseArraySizeType@VLayerConfig@fbxsdk_20100@@@fbxsdk_20100@@@fbxsdk_20100@@IBEHXZ
	?GetBlockCount@?$KBaseArray@V?$KBaseArraySizeType@PAVKFbxLayeredTexture@fbxsdk_20100@@@fbxsdk_20100@@@fbxsdk_20100@@IBEHXZ
	?GetBlockCount@?$KBaseArray@V?$KBaseArraySizeType@V?$KPair@PAVKFbxTexture@fbxsdk_20100@@W4EBlendMode@KFbxLayerElementTexture@2@@fbxsdk_20100@@@fbxsdk_20100@@@fbxsdk_20100@@IBEHXZ
	?GetHeader@?$KBaseArray@V?$KBaseArraySizeType@VLayerConfig@fbxsdk_20100@@@fbxsdk_20100@@@fbxsdk_20100@@IAEPAUKHeader@12@XZ
	?GetTypeSize@?$KBaseArraySizeType@VLayerConfig@fbxsdk_20100@@@fbxsdk_20100@@QBEHXZ
	?GetHeader@?$KBaseArray@V?$KBaseArraySizeType@PAVKFbxLayeredTexture@fbxsdk_20100@@@fbxsdk_20100@@@fbxsdk_20100@@IAEPAUKHeader@12@XZ
	?GetTypeSize@?$KBaseArraySizeType@PAVKFbxLayeredTexture@fbxsdk_20100@@@fbxsdk_20100@@QBEHXZ
	?GetHeader@?$KBaseArray@V?$KBaseArraySizeType@V?$KPair@PAVKFbxTexture@fbxsdk_20100@@W4EBlendMode@KFbxLayerElementTexture@2@@fbxsdk_20100@@@fbxsdk_20100@@@fbxsdk_20100@@IAEPAUKHeader@12@XZ
	?GetTypeSize@?$KBaseArraySizeType@V?$KPair@PAVKFbxTexture@fbxsdk_20100@@W4EBlendMode@KFbxLayerElementTexture@2@@fbxsdk_20100@@@fbxsdk_20100@@QBEHXZ
	??$KFbxGetSrc@VKFbxNode@fbxsdk_20100@@@fbxsdk_20100@@YAPAVKFbxNode@0@PBVKFbxObject@0@H@Z
	??$KFbxCast@VKFbxMesh@fbxsdk_20100@@@fbxsdk_20100@@YAPAVKFbxMesh@0@PAVKFbxPlug@0@@Z
	??$KFbxCast@VKFbxSurfaceMaterial@fbxsdk_20100@@@fbxsdk_20100@@YAPAVKFbxSurfaceMaterial@0@PAVKFbxPlug@0@@Z
	??$KFbxCast@VKFbxLayeredTexture@fbxsdk_20100@@@fbxsdk_20100@@YAPAVKFbxLayeredTexture@0@PAVKFbxPlug@0@@Z
	??$KFbxCast@VKFbxTexture@fbxsdk_20100@@@fbxsdk_20100@@YAPAVKFbxTexture@0@PAVKFbxPlug@0@@Z
	??$KFbxGetSrc@VKFbxSurfaceMaterial@fbxsdk_20100@@@fbxsdk_20100@@YAPAVKFbxSurfaceMaterial@0@PBVKFbxObject@0@H@Z
	??$KFbxGetSrc@VKFbxTexture@fbxsdk_20100@@@fbxsdk_20100@@YAPAVKFbxTexture@0@PBVKFbxObject@0@H@Z
	??$Is@$$CBVKFbxLayeredTexture@fbxsdk_20100@@@KFbxPlug@fbxsdk_20100@@QBE_NPBVKFbxLayeredTexture@1@@Z
	??$Add@H@KFbxLayerElementArray@fbxsdk_20100@@QAEHABH@Z
	??$SetAt@H@KFbxLayerElementArray@fbxsdk_20100@@QAEXHABH@Z
	??$GetAt@H@KFbxLayerElementArray@fbxsdk_20100@@QBE_NHPAH@Z
	??$KFbxSet@VKString@fbxsdk_20100@@@fbxsdk_20100@@YA_NAAVKFbxProperty@0@ABVKString@0@_N@Z
	??$KFbxGet@VKString@fbxsdk_20100@@@fbxsdk_20100@@YA_NABVKFbxProperty@0@AAVKString@0@@Z
	??$SetAt@VKFbxVector2@fbxsdk_20100@@@KFbxLayerElementArray@fbxsdk_20100@@QAEXHABVKFbxVector2@1@@Z
	??$GetAt@VKFbxVector2@fbxsdk_20100@@@KFbxLayerElementArray@fbxsdk_20100@@QBE_NHPAVKFbxVector2@1@@Z
	??$GetSrcObjectCount@VKFbxTexture@fbxsdk_20100@@@KFbxProperty@fbxsdk_20100@@QBEHPBVKFbxTexture@1@@Z
	??$GetSrcObject@VKFbxTexture@fbxsdk_20100@@@KFbxProperty@fbxsdk_20100@@QBEPAVKFbxTexture@1@PBV21@H@Z
	??$GetSrcObjectCount@VKFbxNode@fbxsdk_20100@@@KFbxProperty@fbxsdk_20100@@QBEHPBVKFbxNode@1@@Z
	??$DisconnectAllSrcObject@VKFbxTexture@fbxsdk_20100@@@KFbxProperty@fbxsdk_20100@@QAE_NPBVKFbxTexture@1@@Z
	??$_FbxTypeOf@VKFbxSurfaceMaterial@fbxsdk_20100@@@fbxsdk_20100@@YA?AW4EFbxType@0@ABQAVKFbxSurfaceMaterial@0@@Z
	??$_FbxTypeOf@VKFbxTexture@fbxsdk_20100@@@fbxsdk_20100@@YA?AW4EFbxType@0@ABQAVKFbxTexture@0@@Z
	??8?$KFbxLayerElementTemplate@VKFbxVector2@fbxsdk_20100@@@fbxsdk_20100@@QBE_NABV01@@Z
	?Add@?$KFbxLayerElementArrayTemplate@H@fbxsdk_20100@@QAEHABH@Z
	?SetAt@?$KFbxLayerElementArrayTemplate@H@fbxsdk_20100@@QAEXHABH@Z
	?GetAt@?$KFbxLayerElementArrayTemplate@H@fbxsdk_20100@@QBEHH@Z
	??4?$KFbxLayerElementArrayTemplate@H@fbxsdk_20100@@QAEAAV01@ABV01@@Z
	??A?$KArrayTemplate@H@fbxsdk_20100@@QBEAAHH@Z
	?GetArray@?$KArrayTemplate@PAVKFbxTexture@fbxsdk_20100@@@fbxsdk_20100@@QBEPAPAVKFbxTexture@2@XZ
	??A?$KArrayTemplate@PAVKFbxSurfaceMaterial@fbxsdk_20100@@@fbxsdk_20100@@QBEAAPAVKFbxSurfaceMaterial@1@H@Z
	??4?$KFbxTypedProperty@VKString@fbxsdk_20100@@@fbxsdk_20100@@QAEAAV01@ABVKString@1@@Z
	?Get@?$KFbxTypedProperty@VKString@fbxsdk_20100@@@fbxsdk_20100@@QBE?AVKString@2@XZ
	??A?$KArrayTemplate@V?$KPair@PAVKFbxLayerElementUV@fbxsdk_20100@@_N@fbxsdk_20100@@@fbxsdk_20100@@QBEAAV?$KPair@PAVKFbxLayerElementUV@fbxsdk_20100@@_N@1@H@Z
	?End@?$KHashMap@VLayerConfig@fbxsdk_20100@@PAVKFbxSurfaceMaterial@2@VLayerConfigHash@2@V?$NoOpDestruct@PAVKFbxSurfaceMaterial@fbxsdk_20100@@@2@V?$DefaultComparator@VLayerConfig@fbxsdk_20100@@@2@@fbxsdk_20100@@QBE?AVIterator@12@XZ
	?End@?$KHashMap@PAVKFbxLayeredTexture@fbxsdk_20100@@HVLayeredTextureHash@2@V?$NoOpDestruct@H@2@VLayeredTexPtrComparator@KFbxMaterialConverterImpl@2@@fbxsdk_20100@@QBE?AVIterator@12@XZ
	??A?$KArrayTemplate@W4ELayerElementType@KFbxLayerElement@fbxsdk_20100@@@fbxsdk_20100@@QBEAAW4ELayerElementType@KFbxLayerElement@1@H@Z
	?End@?$KHashMap@VLayerConfig@fbxsdk_20100@@HVLayerConfigHash@2@V?$NoOpDestruct@H@2@V?$DefaultComparator@VLayerConfig@fbxsdk_20100@@@2@@fbxsdk_20100@@QBE?AVIterator@12@XZ
	??A?$KArrayTemplate@VLayerConfig@fbxsdk_20100@@@fbxsdk_20100@@QBEAAVLayerConfig@1@H@Z
	??A?$KArrayTemplate@PAVKFbxLayeredTexture@fbxsdk_20100@@@fbxsdk_20100@@QBEAAPAVKFbxLayeredTexture@1@H@Z
	??DIterator@?$KHashMap@PAVKFbxLayeredTexture@fbxsdk_20100@@HVLayeredTextureHash@2@V?$NoOpDestruct@H@2@VLayeredTexPtrComparator@KFbxMaterialConverterImpl@2@@fbxsdk_20100@@QBE?AV?$KPair@PAVKFbxLayeredTexture@fbxsdk_20100@@H@2@XZ
	??DIterator@?$KHashMap@VLayerConfig@fbxsdk_20100@@HVLayerConfigHash@2@V?$NoOpDestruct@H@2@V?$DefaultComparator@VLayerConfig@fbxsdk_20100@@@2@@fbxsdk_20100@@QBE?AV?$KPair@VLayerConfig@fbxsdk_20100@@H@2@XZ
	??DIterator@?$KHashMap@VLayerConfig@fbxsdk_20100@@PAVKFbxSurfaceMaterial@2@VLayerConfigHash@2@V?$NoOpDestruct@PAVKFbxSurfaceMaterial@fbxsdk_20100@@@2@V?$DefaultComparator@VLayerConfig@fbxsdk_20100@@@2@@fbxsdk_20100@@QBE?AV?$KPair@VLayerConfig@fbxsdk_20100@@PAVKFbxSurfaceMaterial@2@@2@XZ
	??9Iterator@?$KHashMap@VLayerConfig@fbxsdk_20100@@PAVKFbxSurfaceMaterial@2@VLayerConfigHash@2@V?$NoOpDestruct@PAVKFbxSurfaceMaterial@fbxsdk_20100@@@2@V?$DefaultComparator@VLayerConfig@fbxsdk_20100@@@2@@fbxsdk_20100@@QBE_NABV012@@Z
	??A?$KArrayTemplate@V?$KPair@PAVKFbxTexture@fbxsdk_20100@@W4EBlendMode@KFbxLayerElementTexture@2@@fbxsdk_20100@@@fbxsdk_20100@@QBEAAV?$KPair@PAVKFbxTexture@fbxsdk_20100@@W4EBlendMode@KFbxLayerElementTexture@2@@1@H@Z
	??1?$KBaseArray@V?$KBaseArraySizeType@H@fbxsdk_20100@@@fbxsdk_20100@@IAE@XZ
	?GetTypeSize@?$KBaseArray@V?$KBaseArraySizeType@H@fbxsdk_20100@@@fbxsdk_20100@@QBEHXZ
	?GetArrayCount@?$KBaseArray@V?$KBaseArraySizeType@H@fbxsdk_20100@@@fbxsdk_20100@@IBEHXZ
	?SetArrayCount@?$KBaseArray@V?$KBaseArraySizeType@H@fbxsdk_20100@@@fbxsdk_20100@@IAEXH@Z
	?GetBlockCount@?$KBaseArray@V?$KBaseArraySizeType@H@fbxsdk_20100@@@fbxsdk_20100@@IBEHXZ
	?SetBlockCount@?$KBaseArray@V?$KBaseArraySizeType@H@fbxsdk_20100@@@fbxsdk_20100@@IAEXH@Z
	??1?$KBaseArray@V?$KBaseArraySizeType@PAVKFbxTexture@fbxsdk_20100@@@fbxsdk_20100@@@fbxsdk_20100@@IAE@XZ
	?GetTypeSize@?$KBaseArray@V?$KBaseArraySizeType@PAVKFbxTexture@fbxsdk_20100@@@fbxsdk_20100@@@fbxsdk_20100@@QBEHXZ
	?GetArrayCount@?$KBaseArray@V?$KBaseArraySizeType@PAVKFbxTexture@fbxsdk_20100@@@fbxsdk_20100@@@fbxsdk_20100@@IBEHXZ
	?SetArrayCount@?$KBaseArray@V?$KBaseArraySizeType@PAVKFbxTexture@fbxsdk_20100@@@fbxsdk_20100@@@fbxsdk_20100@@IAEXH@Z
	?GetBlockCount@?$KBaseArray@V?$KBaseArraySizeType@PAVKFbxTexture@fbxsdk_20100@@@fbxsdk_20100@@@fbxsdk_20100@@IBEHXZ
	?SetBlockCount@?$KBaseArray@V?$KBaseArraySizeType@PAVKFbxTexture@fbxsdk_20100@@@fbxsdk_20100@@@fbxsdk_20100@@IAEXH@Z
	?GetArray@?$KArrayTemplate@PAVKFbxSurfaceMaterial@fbxsdk_20100@@@fbxsdk_20100@@QBEPAPAVKFbxSurfaceMaterial@2@XZ
	??1?$KBaseArray@V?$KBaseArraySizeType@PAVKFbxSurfaceMaterial@fbxsdk_20100@@@fbxsdk_20100@@@fbxsdk_20100@@IAE@XZ
	?GetTypeSize@?$KBaseArray@V?$KBaseArraySizeType@PAVKFbxSurfaceMaterial@fbxsdk_20100@@@fbxsdk_20100@@@fbxsdk_20100@@QBEHXZ
	?GetArrayCount@?$KBaseArray@V?$KBaseArraySizeType@PAVKFbxSurfaceMaterial@fbxsdk_20100@@@fbxsdk_20100@@@fbxsdk_20100@@IBEHXZ
	?SetArrayCount@?$KBaseArray@V?$KBaseArraySizeType@PAVKFbxSurfaceMaterial@fbxsdk_20100@@@fbxsdk_20100@@@fbxsdk_20100@@IAEXH@Z
	?GetBlockCount@?$KBaseArray@V?$KBaseArraySizeType@PAVKFbxSurfaceMaterial@fbxsdk_20100@@@fbxsdk_20100@@@fbxsdk_20100@@IBEHXZ
	?SetBlockCount@?$KBaseArray@V?$KBaseArraySizeType@PAVKFbxSurfaceMaterial@fbxsdk_20100@@@fbxsdk_20100@@@fbxsdk_20100@@IAEXH@Z
	?GetArrayCount@?$KBaseArray@V?$KBaseArraySizeType@UKFbxPolygon@KFbxMesh@fbxsdk_20100@@@fbxsdk_20100@@@fbxsdk_20100@@IBEHXZ
	??1?$KBaseArray@V?$KBaseArraySizeType@V?$KPair@PAVKFbxLayerElementUV@fbxsdk_20100@@_N@fbxsdk_20100@@@fbxsdk_20100@@@fbxsdk_20100@@IAE@XZ
	?GetTypeSize@?$KBaseArray@V?$KBaseArraySizeType@V?$KPair@PAVKFbxLayerElementUV@fbxsdk_20100@@_N@fbxsdk_20100@@@fbxsdk_20100@@@fbxsdk_20100@@QBEHXZ
	?GetArrayCount@?$KBaseArray@V?$KBaseArraySizeType@V?$KPair@PAVKFbxLayerElementUV@fbxsdk_20100@@_N@fbxsdk_20100@@@fbxsdk_20100@@@fbxsdk_20100@@IBEHXZ
	?SetArrayCount@?$KBaseArray@V?$KBaseArraySizeType@V?$KPair@PAVKFbxLayerElementUV@fbxsdk_20100@@_N@fbxsdk_20100@@@fbxsdk_20100@@@fbxsdk_20100@@IAEXH@Z
	?GetBlockCount@?$KBaseArray@V?$KBaseArraySizeType@V?$KPair@PAVKFbxLayerElementUV@fbxsdk_20100@@_N@fbxsdk_20100@@@fbxsdk_20100@@@fbxsdk_20100@@IBEHXZ
	?SetBlockCount@?$KBaseArray@V?$KBaseArraySizeType@V?$KPair@PAVKFbxLayerElementUV@fbxsdk_20100@@_N@fbxsdk_20100@@@fbxsdk_20100@@@fbxsdk_20100@@IAEXH@Z
	??A?$KArrayTemplate@PAVListItem@?$KHashMap@VLayerConfig@fbxsdk_20100@@PAVKFbxSurfaceMaterial@2@VLayerConfigHash@2@V?$NoOpDestruct@PAVKFbxSurfaceMaterial@fbxsdk_20100@@@2@V?$DefaultComparator@VLayerConfig@fbxsdk_20100@@@2@@fbxsdk_20100@@@fbxsdk_20100@@QBEAAPAVListItem@?$KHashMap@VLayerConfig@fbxsdk_20100@@PAVKFbxSurfaceMaterial@2@VLayerConfigHash@2@V?$NoOpDestruct@PAVKFbxSurfaceMaterial@fbxsdk_20100@@@2@V?$DefaultComparator@VLayerConfig@fbxsdk_20100@@@2@@1@H@Z
	?GetAt@?$KArrayTemplate@PAVListItem@?$KHashMap@VLayerConfig@fbxsdk_20100@@PAVKFbxSurfaceMaterial@2@VLayerConfigHash@2@V?$NoOpDestruct@PAVKFbxSurfaceMaterial@fbxsdk_20100@@@2@V?$DefaultComparator@VLayerConfig@fbxsdk_20100@@@2@@fbxsdk_20100@@@fbxsdk_20100@@QBEPAVListItem@?$KHashMap@VLayerConfig@fbxsdk_20100@@PAVKFbxSurfaceMaterial@2@VLayerConfigHash@2@V?$NoOpDestruct@PAVKFbxSurfaceMaterial@fbxsdk_20100@@@2@V?$DefaultComparator@VLayerConfig@fbxsdk_20100@@@2@@2@H@Z
	??A?$KArrayTemplate@PAVListItem@?$KHashMap@PAVKFbxLayeredTexture@fbxsdk_20100@@HVLayeredTextureHash@2@V?$NoOpDestruct@H@2@VLayeredTexPtrComparator@KFbxMaterialConverterImpl@2@@fbxsdk_20100@@@fbxsdk_20100@@QBEAAPAVListItem@?$KHashMap@PAVKFbxLayeredTexture@fbxsdk_20100@@HVLayeredTextureHash@2@V?$NoOpDestruct@H@2@VLayeredTexPtrComparator@KFbxMaterialConverterImpl@2@@1@H@Z
	?GetAt@?$KArrayTemplate@PAVListItem@?$KHashMap@PAVKFbxLayeredTexture@fbxsdk_20100@@HVLayeredTextureHash@2@V?$NoOpDestruct@H@2@VLayeredTexPtrComparator@KFbxMaterialConverterImpl@2@@fbxsdk_20100@@@fbxsdk_20100@@QBEPAVListItem@?$KHashMap@PAVKFbxLayeredTexture@fbxsdk_20100@@HVLayeredTextureHash@2@V?$NoOpDestruct@H@2@VLayeredTexPtrComparator@KFbxMaterialConverterImpl@2@@2@H@Z
	??1?$KBaseArray@V?$KBaseArraySizeType@W4ELayerElementType@KFbxLayerElement@fbxsdk_20100@@@fbxsdk_20100@@@fbxsdk_20100@@IAE@XZ
	?GetArrayCount@?$KBaseArray@V?$KBaseArraySizeType@W4ELayerElementType@KFbxLayerElement@fbxsdk_20100@@@fbxsdk_20100@@@fbxsdk_20100@@IBEHXZ
	??A?$KArrayTemplate@PAVListItem@?$KHashMap@VLayerConfig@fbxsdk_20100@@HVLayerConfigHash@2@V?$NoOpDestruct@H@2@V?$DefaultComparator@VLayerConfig@fbxsdk_20100@@@2@@fbxsdk_20100@@@fbxsdk_20100@@QBEAAPAVListItem@?$KHashMap@VLayerConfig@fbxsdk_20100@@HVLayerConfigHash@2@V?$NoOpDestruct@H@2@V?$DefaultComparator@VLayerConfig@fbxsdk_20100@@@2@@1@H@Z
	?GetAt@?$KArrayTemplate@PAVListItem@?$KHashMap@VLayerConfig@fbxsdk_20100@@HVLayerConfigHash@2@V?$NoOpDestruct@H@2@V?$DefaultComparator@VLayerConfig@fbxsdk_20100@@@2@@fbxsdk_20100@@@fbxsdk_20100@@QBEPAVListItem@?$KHashMap@VLayerConfig@fbxsdk_20100@@HVLayerConfigHash@2@V?$NoOpDestruct@H@2@V?$DefaultComparator@VLayerConfig@fbxsdk_20100@@@2@@2@H@Z
	??1?$KBaseArray@V?$KBaseArraySizeType@VLayerConfig@fbxsdk_20100@@@fbxsdk_20100@@@fbxsdk_20100@@IAE@XZ
	?GetArrayCount@?$KBaseArray@V?$KBaseArraySizeType@VLayerConfig@fbxsdk_20100@@@fbxsdk_20100@@@fbxsdk_20100@@IBEHXZ
	??1?$KBaseArray@V?$KBaseArraySizeType@PAVKFbxLayeredTexture@fbxsdk_20100@@@fbxsdk_20100@@@fbxsdk_20100@@IAE@XZ
	?GetArrayCount@?$KBaseArray@V?$KBaseArraySizeType@PAVKFbxLayeredTexture@fbxsdk_20100@@@fbxsdk_20100@@@fbxsdk_20100@@IBEHXZ
	??1?$KBaseArray@V?$KBaseArraySizeType@V?$KPair@PAVKFbxTexture@fbxsdk_20100@@W4EBlendMode@KFbxLayerElementTexture@2@@fbxsdk_20100@@@fbxsdk_20100@@@fbxsdk_20100@@IAE@XZ
	?GetArrayCount@?$KBaseArray@V?$KBaseArraySizeType@V?$KPair@PAVKFbxTexture@fbxsdk_20100@@W4EBlendMode@KFbxLayerElementTexture@2@@fbxsdk_20100@@@fbxsdk_20100@@@fbxsdk_20100@@IBEHXZ
	??1ListItem@?$KHashMap@VLayerConfig@fbxsdk_20100@@PAVKFbxSurfaceMaterial@2@VLayerConfigHash@2@V?$NoOpDestruct@PAVKFbxSurfaceMaterial@fbxsdk_20100@@@2@V?$DefaultComparator@VLayerConfig@fbxsdk_20100@@@2@@fbxsdk_20100@@QAE@XZ
	??1ListItem@?$KHashMap@PAVKFbxLayeredTexture@fbxsdk_20100@@HVLayeredTextureHash@2@V?$NoOpDestruct@H@2@VLayeredTexPtrComparator@KFbxMaterialConverterImpl@2@@fbxsdk_20100@@QAE@XZ
	?InsertAt@?$KBaseArray@V?$KBaseArraySizeType@H@fbxsdk_20100@@@fbxsdk_20100@@IAEHHPAX@Z
	?InsertAt@?$KBaseArray@V?$KBaseArraySizeType@PAVKFbxTexture@fbxsdk_20100@@@fbxsdk_20100@@@fbxsdk_20100@@IAEHHPAX@Z
	?InsertAt@?$KBaseArray@V?$KBaseArraySizeType@PAVKFbxSurfaceMaterial@fbxsdk_20100@@@fbxsdk_20100@@@fbxsdk_20100@@IAEHHPAX@Z
	?GetArray@?$KArrayTemplate@PAVListItem@?$KHashMap@VLayerConfig@fbxsdk_20100@@PAVKFbxSurfaceMaterial@2@VLayerConfigHash@2@V?$NoOpDestruct@PAVKFbxSurfaceMaterial@fbxsdk_20100@@@2@V?$DefaultComparator@VLayerConfig@fbxsdk_20100@@@2@@fbxsdk_20100@@@fbxsdk_20100@@QBEPAPAVListItem@?$KHashMap@VLayerConfig@fbxsdk_20100@@PAVKFbxSurfaceMaterial@2@VLayerConfigHash@2@V?$NoOpDestruct@PAVKFbxSurfaceMaterial@fbxsdk_20100@@@2@V?$DefaultComparator@VLayerConfig@fbxsdk_20100@@@2@@2@XZ
	??1?$KBaseArray@V?$KBaseArraySizeType@PAVListItem@?$KHashMap@VLayerConfig@fbxsdk_20100@@PAVKFbxSurfaceMaterial@2@VLayerConfigHash@2@V?$NoOpDestruct@PAVKFbxSurfaceMaterial@fbxsdk_20100@@@2@V?$DefaultComparator@VLayerConfig@fbxsdk_20100@@@2@@fbxsdk_20100@@@fbxsdk_20100@@@fbxsdk_20100@@IAE@XZ
	?GetTypeSize@?$KBaseArray@V?$KBaseArraySizeType@PAVListItem@?$KHashMap@VLayerConfig@fbxsdk_20100@@PAVKFbxSurfaceMaterial@2@VLayerConfigHash@2@V?$NoOpDestruct@PAVKFbxSurfaceMaterial@fbxsdk_20100@@@2@V?$DefaultComparator@VLayerConfig@fbxsdk_20100@@@2@@fbxsdk_20100@@@fbxsdk_20100@@@fbxsdk_20100@@QBEHXZ
	?GetArrayCount@?$KBaseArray@V?$KBaseArraySizeType@PAVListItem@?$KHashMap@VLayerConfig@fbxsdk_20100@@PAVKFbxSurfaceMaterial@2@VLayerConfigHash@2@V?$NoOpDestruct@PAVKFbxSurfaceMaterial@fbxsdk_20100@@@2@V?$DefaultComparator@VLayerConfig@fbxsdk_20100@@@2@@fbxsdk_20100@@@fbxsdk_20100@@@fbxsdk_20100@@IBEHXZ
	?SetArrayCount@?$KBaseArray@V?$KBaseArraySizeType@PAVListItem@?$KHashMap@VLayerConfig@fbxsdk_20100@@PAVKFbxSurfaceMaterial@2@VLayerConfigHash@2@V?$NoOpDestruct@PAVKFbxSurfaceMaterial@fbxsdk_20100@@@2@V?$DefaultComparator@VLayerConfig@fbxsdk_20100@@@2@@fbxsdk_20100@@@fbxsdk_20100@@@fbxsdk_20100@@IAEXH@Z
	?GetBlockCount@?$KBaseArray@V?$KBaseArraySizeType@PAVListItem@?$KHashMap@VLayerConfig@fbxsdk_20100@@PAVKFbxSurfaceMaterial@2@VLayerConfigHash@2@V?$NoOpDestruct@PAVKFbxSurfaceMaterial@fbxsdk_20100@@@2@V?$DefaultComparator@VLayerConfig@fbxsdk_20100@@@2@@fbxsdk_20100@@@fbxsdk_20100@@@fbxsdk_20100@@IBEHXZ
	?SetBlockCount@?$KBaseArray@V?$KBaseArraySizeType@PAVListItem@?$KHashMap@VLayerConfig@fbxsdk_20100@@PAVKFbxSurfaceMaterial@2@VLayerConfigHash@2@V?$NoOpDestruct@PAVKFbxSurfaceMaterial@fbxsdk_20100@@@2@V?$DefaultComparator@VLayerConfig@fbxsdk_20100@@@2@@fbxsdk_20100@@@fbxsdk_20100@@@fbxsdk_20100@@IAEXH@Z
	?GetArray@?$KArrayTemplate@PAVListItem@?$KHashMap@PAVKFbxLayeredTexture@fbxsdk_20100@@HVLayeredTextureHash@2@V?$NoOpDestruct@H@2@VLayeredTexPtrComparator@KFbxMaterialConverterImpl@2@@fbxsdk_20100@@@fbxsdk_20100@@QBEPAPAVListItem@?$KHashMap@PAVKFbxLayeredTexture@fbxsdk_20100@@HVLayeredTextureHash@2@V?$NoOpDestruct@H@2@VLayeredTexPtrComparator@KFbxMaterialConverterImpl@2@@2@XZ
	??1?$KBaseArray@V?$KBaseArraySizeType@PAVListItem@?$KHashMap@PAVKFbxLayeredTexture@fbxsdk_20100@@HVLayeredTextureHash@2@V?$NoOpDestruct@H@2@VLayeredTexPtrComparator@KFbxMaterialConverterImpl@2@@fbxsdk_20100@@@fbxsdk_20100@@@fbxsdk_20100@@IAE@XZ
	?GetTypeSize@?$KBaseArray@V?$KBaseArraySizeType@PAVListItem@?$KHashMap@PAVKFbxLayeredTexture@fbxsdk_20100@@HVLayeredTextureHash@2@V?$NoOpDestruct@H@2@VLayeredTexPtrComparator@KFbxMaterialConverterImpl@2@@fbxsdk_20100@@@fbxsdk_20100@@@fbxsdk_20100@@QBEHXZ
	?GetArrayCount@?$KBaseArray@V?$KBaseArraySizeType@PAVListItem@?$KHashMap@PAVKFbxLayeredTexture@fbxsdk_20100@@HVLayeredTextureHash@2@V?$NoOpDestruct@H@2@VLayeredTexPtrComparator@KFbxMaterialConverterImpl@2@@fbxsdk_20100@@@fbxsdk_20100@@@fbxsdk_20100@@IBEHXZ
	?SetArrayCount@?$KBaseArray@V?$KBaseArraySizeType@PAVListItem@?$KHashMap@PAVKFbxLayeredTexture@fbxsdk_20100@@HVLayeredTextureHash@2@V?$NoOpDestruct@H@2@VLayeredTexPtrComparator@KFbxMaterialConverterImpl@2@@fbxsdk_20100@@@fbxsdk_20100@@@fbxsdk_20100@@IAEXH@Z
	?GetBlockCount@?$KBaseArray@V?$KBaseArraySizeType@PAVListItem@?$KHashMap@PAVKFbxLayeredTexture@fbxsdk_20100@@HVLayeredTextureHash@2@V?$NoOpDestruct@H@2@VLayeredTexPtrComparator@KFbxMaterialConverterImpl@2@@fbxsdk_20100@@@fbxsdk_20100@@@fbxsdk_20100@@IBEHXZ
	?SetBlockCount@?$KBaseArray@V?$KBaseArraySizeType@PAVListItem@?$KHashMap@PAVKFbxLayeredTexture@fbxsdk_20100@@HVLayeredTextureHash@2@V?$NoOpDestruct@H@2@VLayeredTexPtrComparator@KFbxMaterialConverterImpl@2@@fbxsdk_20100@@@fbxsdk_20100@@@fbxsdk_20100@@IAEXH@Z
	?GetArray@?$KArrayTemplate@PAVListItem@?$KHashMap@VLayerConfig@fbxsdk_20100@@HVLayerConfigHash@2@V?$NoOpDestruct@H@2@V?$DefaultComparator@VLayerConfig@fbxsdk_20100@@@2@@fbxsdk_20100@@@fbxsdk_20100@@QBEPAPAVListItem@?$KHashMap@VLayerConfig@fbxsdk_20100@@HVLayerConfigHash@2@V?$NoOpDestruct@H@2@V?$DefaultComparator@VLayerConfig@fbxsdk_20100@@@2@@2@XZ
	??1?$KBaseArray@V?$KBaseArraySizeType@PAVListItem@?$KHashMap@VLayerConfig@fbxsdk_20100@@HVLayerConfigHash@2@V?$NoOpDestruct@H@2@V?$DefaultComparator@VLayerConfig@fbxsdk_20100@@@2@@fbxsdk_20100@@@fbxsdk_20100@@@fbxsdk_20100@@IAE@XZ
	?GetTypeSize@?$KBaseArray@V?$KBaseArraySizeType@PAVListItem@?$KHashMap@VLayerConfig@fbxsdk_20100@@HVLayerConfigHash@2@V?$NoOpDestruct@H@2@V?$DefaultComparator@VLayerConfig@fbxsdk_20100@@@2@@fbxsdk_20100@@@fbxsdk_20100@@@fbxsdk_20100@@QBEHXZ
	?GetArrayCount@?$KBaseArray@V?$KBaseArraySizeType@PAVListItem@?$KHashMap@VLayerConfig@fbxsdk_20100@@HVLayerConfigHash@2@V?$NoOpDestruct@H@2@V?$DefaultComparator@VLayerConfig@fbxsdk_20100@@@2@@fbxsdk_20100@@@fbxsdk_20100@@@fbxsdk_20100@@IBEHXZ
	?SetArrayCount@?$KBaseArray@V?$KBaseArraySizeType@PAVListItem@?$KHashMap@VLayerConfig@fbxsdk_20100@@HVLayerConfigHash@2@V?$NoOpDestruct@H@2@V?$DefaultComparator@VLayerConfig@fbxsdk_20100@@@2@@fbxsdk_20100@@@fbxsdk_20100@@@fbxsdk_20100@@IAEXH@Z
	?GetBlockCount@?$KBaseArray@V?$KBaseArraySizeType@PAVListItem@?$KHashMap@VLayerConfig@fbxsdk_20100@@HVLayerConfigHash@2@V?$NoOpDestruct@H@2@V?$DefaultComparator@VLayerConfig@fbxsdk_20100@@@2@@fbxsdk_20100@@@fbxsdk_20100@@@fbxsdk_20100@@IBEHXZ
	?SetBlockCount@?$KBaseArray@V?$KBaseArraySizeType@PAVListItem@?$KHashMap@VLayerConfig@fbxsdk_20100@@HVLayerConfigHash@2@V?$NoOpDestruct@H@2@V?$DefaultComparator@VLayerConfig@fbxsdk_20100@@@2@@fbxsdk_20100@@@fbxsdk_20100@@@fbxsdk_20100@@IAEXH@Z
	?SetAt@?$KFbxLayerElementArrayTemplate@VKFbxVector2@fbxsdk_20100@@@fbxsdk_20100@@QAEXHABVKFbxVector2@2@@Z
	?GetAt@?$KFbxLayerElementArrayTemplate@VKFbxVector2@fbxsdk_20100@@@fbxsdk_20100@@QBE?AVKFbxVector2@2@H@Z
	??1ListItem@?$KHashMap@VLayerConfig@fbxsdk_20100@@HVLayerConfigHash@2@V?$NoOpDestruct@H@2@V?$DefaultComparator@VLayerConfig@fbxsdk_20100@@@2@@fbxsdk_20100@@QAE@XZ
	?GetTypeSize@?$KBaseArray@V?$KBaseArraySizeType@VLayerConfig@fbxsdk_20100@@@fbxsdk_20100@@@fbxsdk_20100@@QBEHXZ
	?SetArrayCount@?$KBaseArray@V?$KBaseArraySizeType@VLayerConfig@fbxsdk_20100@@@fbxsdk_20100@@@fbxsdk_20100@@IAEXH@Z
	?SetBlockCount@?$KBaseArray@V?$KBaseArraySizeType@VLayerConfig@fbxsdk_20100@@@fbxsdk_20100@@@fbxsdk_20100@@IAEXH@Z
	?GetTypeSize@?$KBaseArray@V?$KBaseArraySizeType@PAVKFbxLayeredTexture@fbxsdk_20100@@@fbxsdk_20100@@@fbxsdk_20100@@QBEHXZ
	?SetArrayCount@?$KBaseArray@V?$KBaseArraySizeType@PAVKFbxLayeredTexture@fbxsdk_20100@@@fbxsdk_20100@@@fbxsdk_20100@@IAEXH@Z
	?SetBlockCount@?$KBaseArray@V?$KBaseArraySizeType@PAVKFbxLayeredTexture@fbxsdk_20100@@@fbxsdk_20100@@@fbxsdk_20100@@IAEXH@Z
	?GetTypeSize@?$KBaseArray@V?$KBaseArraySizeType@V?$KPair@PAVKFbxTexture@fbxsdk_20100@@W4EBlendMode@KFbxLayerElementTexture@2@@fbxsdk_20100@@@fbxsdk_20100@@@fbxsdk_20100@@QBEHXZ
	?SetArrayCount@?$KBaseArray@V?$KBaseArraySizeType@V?$KPair@PAVKFbxTexture@fbxsdk_20100@@W4EBlendMode@KFbxLayerElementTexture@2@@fbxsdk_20100@@@fbxsdk_20100@@@fbxsdk_20100@@IAEXH@Z
	?SetBlockCount@?$KBaseArray@V?$KBaseArraySizeType@V?$KPair@PAVKFbxTexture@fbxsdk_20100@@W4EBlendMode@KFbxLayerElementTexture@2@@fbxsdk_20100@@@fbxsdk_20100@@@fbxsdk_20100@@IAEXH@Z
	??$GetSrcObjectCount@VKFbxTexture@fbxsdk_20100@@@KFbxObject@fbxsdk_20100@@QBEHPBVKFbxTexture@1@@Z
	??$GetSrcObject@VKFbxTexture@fbxsdk_20100@@@KFbxObject@fbxsdk_20100@@QBEPAVKFbxTexture@1@PBV21@H@Z
	??$GetSrcObjectCount@VKFbxNode@fbxsdk_20100@@@KFbxObject@fbxsdk_20100@@QBEHPBVKFbxNode@1@@Z
	??$DisconnectAllSrcObject@VKFbxTexture@fbxsdk_20100@@@KFbxObject@fbxsdk_20100@@QAE_NPBVKFbxTexture@1@@Z
	??$GetLocked@PAVKFbxSurfaceMaterial@fbxsdk_20100@@@KFbxLayerElementArray@fbxsdk_20100@@QAEPAPAVKFbxSurfaceMaterial@1@PAPAV21@W4ELockMode@01@@Z
	??$Release@PAVKFbxSurfaceMaterial@fbxsdk_20100@@@KFbxLayerElementArray@fbxsdk_20100@@QAEXPAPAPAVKFbxSurfaceMaterial@1@PAPAV21@@Z
	??$Add@PAVKFbxTexture@fbxsdk_20100@@@KFbxLayerElementArray@fbxsdk_20100@@QAEHABQAVKFbxTexture@1@@Z
	??$GetAt@PAVKFbxTexture@fbxsdk_20100@@@KFbxLayerElementArray@fbxsdk_20100@@QBE_NHPAPAVKFbxTexture@1@@Z
	??$Find@PAVKFbxTexture@fbxsdk_20100@@@KFbxLayerElementArray@fbxsdk_20100@@QBEHABQAVKFbxTexture@1@@Z
	?GetMaterial@KFbxMaterialConverter@fbxsdk_20100@@AAEPAVKFbxSurfaceMaterial@2@HPAVKFbxLayer@2@PAVKFbxNode@2@_N@Z
	?GetMaterialOrder@KFbxMaterialConverter@fbxsdk_20100@@AAEHHPAVKFbxLayer@2@PAVKFbxNode@2@_N@Z
	?FindLayerForTexture@KFbxMaterialConverter@fbxsdk_20100@@ABEPAVKFbxLayer@2@PAVKFbxTexture@2@W4ELayerElementType@KFbxLayerElement@2@W4EBlendMode@KFbxLayerElementTexture@2@PAVKFbxGeometry@2@HH@Z
	?InitTextureElement@KFbxMaterialConverter@fbxsdk_20100@@ABEXPAVKFbxLayerElementTexture@2@HW4EBlendMode@32@@Z
	??0?$KArrayTemplate@H@fbxsdk_20100@@QAE@XZ
	??1?$KArrayTemplate@H@fbxsdk_20100@@QAE@XZ
	??0?$KArrayTemplate@PAVKFbxTexture@fbxsdk_20100@@@fbxsdk_20100@@QAE@XZ
	??1?$KArrayTemplate@PAVKFbxTexture@fbxsdk_20100@@@fbxsdk_20100@@QAE@XZ
	?GetCount@?$KBaseArray@V?$KBaseArraySizeType@PAVKFbxTexture@fbxsdk_20100@@@fbxsdk_20100@@@fbxsdk_20100@@QBEHXZ
	?Reserve@?$KBaseArray@V?$KBaseArraySizeType@PAVKFbxTexture@fbxsdk_20100@@@fbxsdk_20100@@@fbxsdk_20100@@QAEHH@Z
	??0?$KArrayTemplate@PAVKFbxSurfaceMaterial@fbxsdk_20100@@@fbxsdk_20100@@QAE@XZ
	??1?$KArrayTemplate@PAVKFbxSurfaceMaterial@fbxsdk_20100@@@fbxsdk_20100@@QAE@XZ
	?SetAt@?$KArrayTemplate@PAVKFbxSurfaceMaterial@fbxsdk_20100@@@fbxsdk_20100@@QAEXHPAVKFbxSurfaceMaterial@2@@Z
	?GetCount@?$KBaseArray@V?$KBaseArraySizeType@PAVKFbxSurfaceMaterial@fbxsdk_20100@@@fbxsdk_20100@@@fbxsdk_20100@@QBEHXZ
	?Reserve@?$KBaseArray@V?$KBaseArraySizeType@PAVKFbxSurfaceMaterial@fbxsdk_20100@@@fbxsdk_20100@@@fbxsdk_20100@@QAEHH@Z
	?Resize@?$KBaseArray@V?$KBaseArraySizeType@PAVKFbxSurfaceMaterial@fbxsdk_20100@@@fbxsdk_20100@@@fbxsdk_20100@@QAEXH@Z
	?GetCount@?$KBaseArray@V?$KBaseArraySizeType@UKFbxPolygon@KFbxMesh@fbxsdk_20100@@@fbxsdk_20100@@@fbxsdk_20100@@QBEHXZ
	??0?$KArrayTemplate@V?$KPair@PAVKFbxLayerElementUV@fbxsdk_20100@@_N@fbxsdk_20100@@@fbxsdk_20100@@QAE@XZ
	??1?$KArrayTemplate@V?$KPair@PAVKFbxLayerElementUV@fbxsdk_20100@@_N@fbxsdk_20100@@@fbxsdk_20100@@QAE@XZ
	?GetCount@?$KBaseArray@V?$KBaseArraySizeType@V?$KPair@PAVKFbxLayerElementUV@fbxsdk_20100@@_N@fbxsdk_20100@@@fbxsdk_20100@@@fbxsdk_20100@@QBEHXZ
	?Resize@?$KBaseArray@V?$KBaseArraySizeType@V?$KPair@PAVKFbxLayerElementUV@fbxsdk_20100@@_N@fbxsdk_20100@@@fbxsdk_20100@@@fbxsdk_20100@@QAEXH@Z
	?Add@?$KFbxLayerElementArrayTemplate@PAVKFbxTexture@fbxsdk_20100@@@fbxsdk_20100@@QAEHABQAVKFbxTexture@2@@Z
	?GetAt@?$KFbxLayerElementArrayTemplate@PAVKFbxTexture@fbxsdk_20100@@@fbxsdk_20100@@QBEPAVKFbxTexture@2@H@Z
	?Find@?$KFbxLayerElementArrayTemplate@PAVKFbxTexture@fbxsdk_20100@@@fbxsdk_20100@@QAEHABQAVKFbxTexture@2@@Z
	??1?$KArrayTemplate@W4ELayerElementType@KFbxLayerElement@fbxsdk_20100@@@fbxsdk_20100@@QAE@XZ
	?GetCount@?$KBaseArray@V?$KBaseArraySizeType@W4ELayerElementType@KFbxLayerElement@fbxsdk_20100@@@fbxsdk_20100@@@fbxsdk_20100@@QBEHXZ
	??0?$KArrayTemplate@VLayerConfig@fbxsdk_20100@@@fbxsdk_20100@@QAE@XZ
	??1?$KArrayTemplate@VLayerConfig@fbxsdk_20100@@@fbxsdk_20100@@QAE@XZ
	?GetCount@?$KBaseArray@V?$KBaseArraySizeType@VLayerConfig@fbxsdk_20100@@@fbxsdk_20100@@@fbxsdk_20100@@QBEHXZ
	??0?$KArrayTemplate@PAVKFbxLayeredTexture@fbxsdk_20100@@@fbxsdk_20100@@QAE@XZ
	??1?$KArrayTemplate@PAVKFbxLayeredTexture@fbxsdk_20100@@@fbxsdk_20100@@QAE@XZ
	?GetCount@?$KBaseArray@V?$KBaseArraySizeType@PAVKFbxLayeredTexture@fbxsdk_20100@@@fbxsdk_20100@@@fbxsdk_20100@@QBEHXZ
	??0?$KArrayTemplate@V?$KPair@PAVKFbxTexture@fbxsdk_20100@@W4EBlendMode@KFbxLayerElementTexture@2@@fbxsdk_20100@@@fbxsdk_20100@@QAE@XZ
	??1?$KArrayTemplate@V?$KPair@PAVKFbxTexture@fbxsdk_20100@@W4EBlendMode@KFbxLayerElementTexture@2@@fbxsdk_20100@@@fbxsdk_20100@@QAE@XZ
	?GetCount@?$KBaseArray@V?$KBaseArraySizeType@V?$KPair@PAVKFbxTexture@fbxsdk_20100@@W4EBlendMode@KFbxLayerElementTexture@2@@fbxsdk_20100@@@fbxsdk_20100@@@fbxsdk_20100@@QBEHXZ
	?InsertAt@?$KArrayTemplate@H@fbxsdk_20100@@QAEHHH@Z
	?InsertAt@?$KArrayTemplate@PAVKFbxTexture@fbxsdk_20100@@@fbxsdk_20100@@QAEHHPAVKFbxTexture@2@@Z
	?InsertAt@?$KArrayTemplate@PAVKFbxSurfaceMaterial@fbxsdk_20100@@@fbxsdk_20100@@QAEHHPAVKFbxSurfaceMaterial@2@@Z
	??0?$KArrayTemplate@PAVListItem@?$KHashMap@VLayerConfig@fbxsdk_20100@@PAVKFbxSurfaceMaterial@2@VLayerConfigHash@2@V?$NoOpDestruct@PAVKFbxSurfaceMaterial@fbxsdk_20100@@@2@V?$DefaultComparator@VLayerConfig@fbxsdk_20100@@@2@@fbxsdk_20100@@@fbxsdk_20100@@QAE@XZ
	??1?$KArrayTemplate@PAVListItem@?$KHashMap@VLayerConfig@fbxsdk_20100@@PAVKFbxSurfaceMaterial@2@VLayerConfigHash@2@V?$NoOpDestruct@PAVKFbxSurfaceMaterial@fbxsdk_20100@@@2@V?$DefaultComparator@VLayerConfig@fbxsdk_20100@@@2@@fbxsdk_20100@@@fbxsdk_20100@@QAE@XZ
	?SetAt@?$KArrayTemplate@PAVListItem@?$KHashMap@VLayerConfig@fbxsdk_20100@@PAVKFbxSurfaceMaterial@2@VLayerConfigHash@2@V?$NoOpDestruct@PAVKFbxSurfaceMaterial@fbxsdk_20100@@@2@V?$DefaultComparator@VLayerConfig@fbxsdk_20100@@@2@@fbxsdk_20100@@@fbxsdk_20100@@QAEXHPAVListItem@?$KHashMap@VLayerConfig@fbxsdk_20100@@PAVKFbxSurfaceMaterial@2@VLayerConfigHash@2@V?$NoOpDestruct@PAVKFbxSurfaceMaterial@fbxsdk_20100@@@2@V?$DefaultComparator@VLayerConfig@fbxsdk_20100@@@2@@2@@Z
	?GetCount@?$KBaseArray@V?$KBaseArraySizeType@PAVListItem@?$KHashMap@VLayerConfig@fbxsdk_20100@@PAVKFbxSurfaceMaterial@2@VLayerConfigHash@2@V?$NoOpDestruct@PAVKFbxSurfaceMaterial@fbxsdk_20100@@@2@V?$DefaultComparator@VLayerConfig@fbxsdk_20100@@@2@@fbxsdk_20100@@@fbxsdk_20100@@@fbxsdk_20100@@QBEHXZ
	?Resize@?$KBaseArray@V?$KBaseArraySizeType@PAVListItem@?$KHashMap@VLayerConfig@fbxsdk_20100@@PAVKFbxSurfaceMaterial@2@VLayerConfigHash@2@V?$NoOpDestruct@PAVKFbxSurfaceMaterial@fbxsdk_20100@@@2@V?$DefaultComparator@VLayerConfig@fbxsdk_20100@@@2@@fbxsdk_20100@@@fbxsdk_20100@@@fbxsdk_20100@@QAEXH@Z
	??0?$KArrayTemplate@PAVListItem@?$KHashMap@PAVKFbxLayeredTexture@fbxsdk_20100@@HVLayeredTextureHash@2@V?$NoOpDestruct@H@2@VLayeredTexPtrComparator@KFbxMaterialConverterImpl@2@@fbxsdk_20100@@@fbxsdk_20100@@QAE@XZ
	??1?$KArrayTemplate@PAVListItem@?$KHashMap@PAVKFbxLayeredTexture@fbxsdk_20100@@HVLayeredTextureHash@2@V?$NoOpDestruct@H@2@VLayeredTexPtrComparator@KFbxMaterialConverterImpl@2@@fbxsdk_20100@@@fbxsdk_20100@@QAE@XZ
	?SetAt@?$KArrayTemplate@PAVListItem@?$KHashMap@PAVKFbxLayeredTexture@fbxsdk_20100@@HVLayeredTextureHash@2@V?$NoOpDestruct@H@2@VLayeredTexPtrComparator@KFbxMaterialConverterImpl@2@@fbxsdk_20100@@@fbxsdk_20100@@QAEXHPAVListItem@?$KHashMap@PAVKFbxLayeredTexture@fbxsdk_20100@@HVLayeredTextureHash@2@V?$NoOpDestruct@H@2@VLayeredTexPtrComparator@KFbxMaterialConverterImpl@2@@2@@Z
	?GetCount@?$KBaseArray@V?$KBaseArraySizeType@PAVListItem@?$KHashMap@PAVKFbxLayeredTexture@fbxsdk_20100@@HVLayeredTextureHash@2@V?$NoOpDestruct@H@2@VLayeredTexPtrComparator@KFbxMaterialConverterImpl@2@@fbxsdk_20100@@@fbxsdk_20100@@@fbxsdk_20100@@QBEHXZ
	?Resize@?$KBaseArray@V?$KBaseArraySizeType@PAVListItem@?$KHashMap@PAVKFbxLayeredTexture@fbxsdk_20100@@HVLayeredTextureHash@2@V?$NoOpDestruct@H@2@VLayeredTexPtrComparator@KFbxMaterialConverterImpl@2@@fbxsdk_20100@@@fbxsdk_20100@@@fbxsdk_20100@@QAEXH@Z
	??0?$KArrayTemplate@PAVListItem@?$KHashMap@VLayerConfig@fbxsdk_20100@@HVLayerConfigHash@2@V?$NoOpDestruct@H@2@V?$DefaultComparator@VLayerConfig@fbxsdk_20100@@@2@@fbxsdk_20100@@@fbxsdk_20100@@QAE@XZ
	??1?$KArrayTemplate@PAVListItem@?$KHashMap@VLayerConfig@fbxsdk_20100@@HVLayerConfigHash@2@V?$NoOpDestruct@H@2@V?$DefaultComparator@VLayerConfig@fbxsdk_20100@@@2@@fbxsdk_20100@@@fbxsdk_20100@@QAE@XZ
	?SetAt@?$KArrayTemplate@PAVListItem@?$KHashMap@VLayerConfig@fbxsdk_20100@@HVLayerConfigHash@2@V?$NoOpDestruct@H@2@V?$DefaultComparator@VLayerConfig@fbxsdk_20100@@@2@@fbxsdk_20100@@@fbxsdk_20100@@QAEXHPAVListItem@?$KHashMap@VLayerConfig@fbxsdk_20100@@HVLayerConfigHash@2@V?$NoOpDestruct@H@2@V?$DefaultComparator@VLayerConfig@fbxsdk_20100@@@2@@2@@Z
	?GetCount@?$KBaseArray@V?$KBaseArraySizeType@PAVListItem@?$KHashMap@VLayerConfig@fbxsdk_20100@@HVLayerConfigHash@2@V?$NoOpDestruct@H@2@V?$DefaultComparator@VLayerConfig@fbxsdk_20100@@@2@@fbxsdk_20100@@@fbxsdk_20100@@@fbxsdk_20100@@QBEHXZ
	?Resize@?$KBaseArray@V?$KBaseArraySizeType@PAVListItem@?$KHashMap@VLayerConfig@fbxsdk_20100@@HVLayerConfigHash@2@V?$NoOpDestruct@H@2@V?$DefaultComparator@VLayerConfig@fbxsdk_20100@@@2@@fbxsdk_20100@@@fbxsdk_20100@@@fbxsdk_20100@@QAEXH@Z
	??4?$KFbxLayerElementArrayTemplate@VKFbxVector2@fbxsdk_20100@@@fbxsdk_20100@@QAEAAV01@ABV01@@Z
	?InsertAt@?$KBaseArray@V?$KBaseArraySizeType@VLayerConfig@fbxsdk_20100@@@fbxsdk_20100@@@fbxsdk_20100@@IAEHHPAX@Z
	?InsertAt@?$KBaseArray@V?$KBaseArraySizeType@PAVKFbxLayeredTexture@fbxsdk_20100@@@fbxsdk_20100@@@fbxsdk_20100@@IAEHHPAX@Z
	?InsertAt@?$KBaseArray@V?$KBaseArraySizeType@V?$KPair@PAVKFbxTexture@fbxsdk_20100@@W4EBlendMode@KFbxLayerElementTexture@2@@fbxsdk_20100@@@fbxsdk_20100@@@fbxsdk_20100@@IAEHHPAX@Z
	?GetPolygonCount@KFbxMesh@fbxsdk_20100@@QBEHXZ
	?GetUVSetForTexture@fbxsdk_20100@@YAHAAV?$KArrayTemplate@V?$KPair@PAVKFbxLayerElementUV@fbxsdk_20100@@_N@fbxsdk_20100@@@1@PAVKFbxTexture@1@@Z
	?GetTextures@KFbxMaterialConverter@fbxsdk_20100@@ABEXHPAVKFbxLayer@2@AAVLayerConfig@2@@Z
	?HasGoodMappingModes@KFbxMaterialConverter@fbxsdk_20100@@ABE_NPAVKFbxNode@2@PAVKFbxGeometry@2@@Z
	?ConvertToPerFaceMapping@KFbxMaterialConverter@fbxsdk_20100@@ABEXPAVKFbxMesh@2@@Z
	?SetTextureUVSets@KFbxMaterialConverter@fbxsdk_20100@@ABEXPAVKFbxGeometry@2@@Z
	??4?$KFbxLayerElementTemplate@VKFbxVector2@fbxsdk_20100@@@fbxsdk_20100@@QAEAAV01@ABV01@@Z
	?Add@?$KArrayTemplate@H@fbxsdk_20100@@QAEHH@Z
	?Add@?$KArrayTemplate@PAVKFbxTexture@fbxsdk_20100@@@fbxsdk_20100@@QAEHPAVKFbxTexture@2@@Z
	?Add@?$KArrayTemplate@PAVKFbxSurfaceMaterial@fbxsdk_20100@@@fbxsdk_20100@@QAEHPAVKFbxSurfaceMaterial@2@@Z
	??0?$KHashMap@VLayerConfig@fbxsdk_20100@@PAVKFbxSurfaceMaterial@2@VLayerConfigHash@2@V?$NoOpDestruct@PAVKFbxSurfaceMaterial@fbxsdk_20100@@@2@V?$DefaultComparator@VLayerConfig@fbxsdk_20100@@@2@@fbxsdk_20100@@QAE@XZ
	?Clear@?$KHashMap@VLayerConfig@fbxsdk_20100@@PAVKFbxSurfaceMaterial@2@VLayerConfigHash@2@V?$NoOpDestruct@PAVKFbxSurfaceMaterial@fbxsdk_20100@@@2@V?$DefaultComparator@VLayerConfig@fbxsdk_20100@@@2@@fbxsdk_20100@@QAEXXZ
	?Find@?$KHashMap@VLayerConfig@fbxsdk_20100@@PAVKFbxSurfaceMaterial@2@VLayerConfigHash@2@V?$NoOpDestruct@PAVKFbxSurfaceMaterial@fbxsdk_20100@@@2@V?$DefaultComparator@VLayerConfig@fbxsdk_20100@@@2@@fbxsdk_20100@@QBE?BVIterator@12@ABVLayerConfig@2@@Z
	??A?$KHashMap@VLayerConfig@fbxsdk_20100@@PAVKFbxSurfaceMaterial@2@VLayerConfigHash@2@V?$NoOpDestruct@PAVKFbxSurfaceMaterial@fbxsdk_20100@@@2@V?$DefaultComparator@VLayerConfig@fbxsdk_20100@@@2@@fbxsdk_20100@@QAEAAPAVKFbxSurfaceMaterial@1@ABVLayerConfig@1@@Z
	??0?$KHashMap@PAVKFbxLayeredTexture@fbxsdk_20100@@HVLayeredTextureHash@2@V?$NoOpDestruct@H@2@VLayeredTexPtrComparator@KFbxMaterialConverterImpl@2@@fbxsdk_20100@@QAE@XZ
	?Clear@?$KHashMap@PAVKFbxLayeredTexture@fbxsdk_20100@@HVLayeredTextureHash@2@V?$NoOpDestruct@H@2@VLayeredTexPtrComparator@KFbxMaterialConverterImpl@2@@fbxsdk_20100@@QAEXXZ
	??0?$KHashMap@VLayerConfig@fbxsdk_20100@@HVLayerConfigHash@2@V?$NoOpDestruct@H@2@V?$DefaultComparator@VLayerConfig@fbxsdk_20100@@@2@@fbxsdk_20100@@QAE@H@Z
	?Find@?$KHashMap@VLayerConfig@fbxsdk_20100@@HVLayerConfigHash@2@V?$NoOpDestruct@H@2@V?$DefaultComparator@VLayerConfig@fbxsdk_20100@@@2@@fbxsdk_20100@@QBE?BVIterator@12@ABVLayerConfig@2@@Z
	??A?$KHashMap@VLayerConfig@fbxsdk_20100@@HVLayerConfigHash@2@V?$NoOpDestruct@H@2@V?$DefaultComparator@VLayerConfig@fbxsdk_20100@@@2@@fbxsdk_20100@@QAEAAHABVLayerConfig@1@@Z
	?Start@?$KHashMap@VLayerConfig@fbxsdk_20100@@HVLayerConfigHash@2@V?$NoOpDestruct@H@2@V?$DefaultComparator@VLayerConfig@fbxsdk_20100@@@2@@fbxsdk_20100@@QBE?AVIterator@12@XZ
	?Next@Iterator@?$KHashMap@VLayerConfig@fbxsdk_20100@@HVLayerConfigHash@2@V?$NoOpDestruct@H@2@V?$DefaultComparator@VLayerConfig@fbxsdk_20100@@@2@@fbxsdk_20100@@QAEXXZ
	?Clear@?$KHashMap@VLayerConfig@fbxsdk_20100@@HVLayerConfigHash@2@V?$NoOpDestruct@H@2@V?$DefaultComparator@VLayerConfig@fbxsdk_20100@@@2@@fbxsdk_20100@@QAEXXZ
	?InsertAt@?$KArrayTemplate@VLayerConfig@fbxsdk_20100@@@fbxsdk_20100@@QAEHHVLayerConfig@2@@Z
	?InsertAt@?$KArrayTemplate@PAVKFbxLayeredTexture@fbxsdk_20100@@@fbxsdk_20100@@QAEHHPAVKFbxLayeredTexture@2@@Z
	?InsertAt@?$KArrayTemplate@V?$KPair@PAVKFbxTexture@fbxsdk_20100@@W4EBlendMode@KFbxLayerElementTexture@2@@fbxsdk_20100@@@fbxsdk_20100@@QAEHHV?$KPair@PAVKFbxTexture@fbxsdk_20100@@W4EBlendMode@KFbxLayerElementTexture@2@@2@@Z
	??RLayeredTextureHash@fbxsdk_20100@@QBEIABQAVKFbxLayeredTexture@1@@Z
	??4KFbxLayerElementUV@fbxsdk_20100@@QAEAAV01@ABV01@@Z
	??1?$KHashMap@VLayerConfig@fbxsdk_20100@@PAVKFbxSurfaceMaterial@2@VLayerConfigHash@2@V?$NoOpDestruct@PAVKFbxSurfaceMaterial@fbxsdk_20100@@@2@V?$DefaultComparator@VLayerConfig@fbxsdk_20100@@@2@@fbxsdk_20100@@QAE@XZ
	??1?$KHashMap@PAVKFbxLayeredTexture@fbxsdk_20100@@HVLayeredTextureHash@2@V?$NoOpDestruct@H@2@VLayeredTexPtrComparator@KFbxMaterialConverterImpl@2@@fbxsdk_20100@@QAE@XZ
	?Find@?$KHashMap@PAVKFbxLayeredTexture@fbxsdk_20100@@HVLayeredTextureHash@2@V?$NoOpDestruct@H@2@VLayeredTexPtrComparator@KFbxMaterialConverterImpl@2@@fbxsdk_20100@@QBE?BVIterator@12@ABQAVKFbxLayeredTexture@2@@Z
	??A?$KHashMap@PAVKFbxLayeredTexture@fbxsdk_20100@@HVLayeredTextureHash@2@V?$NoOpDestruct@H@2@VLayeredTexPtrComparator@KFbxMaterialConverterImpl@2@@fbxsdk_20100@@QAEAAHABQAVKFbxLayeredTexture@1@@Z
	??1?$KHashMap@VLayerConfig@fbxsdk_20100@@HVLayerConfigHash@2@V?$NoOpDestruct@H@2@V?$DefaultComparator@VLayerConfig@fbxsdk_20100@@@2@@fbxsdk_20100@@QAE@XZ
	?Add@?$KArrayTemplate@VLayerConfig@fbxsdk_20100@@@fbxsdk_20100@@QAEHVLayerConfig@2@@Z
	?Add@?$KArrayTemplate@PAVKFbxLayeredTexture@fbxsdk_20100@@@fbxsdk_20100@@QAEHPAVKFbxLayeredTexture@2@@Z
	?Add@?$KArrayTemplate@V?$KPair@PAVKFbxTexture@fbxsdk_20100@@W4EBlendMode@KFbxLayerElementTexture@2@@fbxsdk_20100@@@fbxsdk_20100@@QAEHV?$KPair@PAVKFbxTexture@fbxsdk_20100@@W4EBlendMode@KFbxLayerElementTexture@2@@2@@Z
	??0KFbxMaterialConverterImpl@fbxsdk_20100@@QAE@XZ
	??1KFbxMaterialConverterImpl@fbxsdk_20100@@QAE@XZ
	?ConnectTexturesToMaterials@KFbxMaterialConverter@fbxsdk_20100@@AAE_NPAVKFbxNode@2@@Z
	?GetTextureList@KFbxMaterialConverter@fbxsdk_20100@@ABEXAAV?$KArrayTemplate@V?$KPair@PAVKFbxTexture@fbxsdk_20100@@W4EBlendMode@KFbxLayerElementTexture@2@@fbxsdk_20100@@@2@PAVKFbxLayeredTexture@2@@Z
	?AssignTexturesToLayerElements@KFbxMaterialConverter@fbxsdk_20100@@AAE_NPAVKFbxNode@2@@Z
	??0KFbxMaterialConverter@fbxsdk_20100@@QAE@AAVKFbxSdkManager@1@PAVKFbxSurfaceMaterial@1@@Z
	?ConnectTexturesToMaterials@KFbxMaterialConverter@fbxsdk_20100@@QAE_NAAVKFbxScene@2@@Z
	?AssignTexturesToLayerElements@KFbxMaterialConverter@fbxsdk_20100@@QAE_NAAVKFbxScene@2@@Z
	??1KFbxMaterialConverter@fbxsdk_20100@@QAE@XZ
	?smMutex@?$KFbxEvent@VKFbxObjectPropertyChanged@fbxsdk_20100@@@kfbxevents@fbxsdk_20100@@0VKFbxMutex@kfbxmp@3@A
	??_R4KFbxObjectsContainer@fbxsdk_20100@@6B@
	??_R0?AVKFbxObjectsContainer@fbxsdk_20100@@@8
	??_R3KFbxObjectsContainer@fbxsdk_20100@@8
	??_R2KFbxObjectsContainer@fbxsdk_20100@@8
	??_R1A@?0A@EA@KFbxObjectsContainer@fbxsdk_20100@@8
	??1KFbxObjectsContainer@fbxsdk_20100@@UAE@XZ
	??_GKFbxObjectsContainer@fbxsdk_20100@@UAEPAXI@Z
	?AdjustLightIntensity@KFbxSystemUnit@fbxsdk_20100@@IBEXPAVKFbxNode@2@N@Z
	?AdjustPhotometricLightProperties@KFbxSystemUnit@fbxsdk_20100@@IBEXPAVKFbxNode@2@N@Z
	?AdjustCameraClipPlanes@KFbxSystemUnit@fbxsdk_20100@@IBEXPAVKFbxNode@2@N@Z
	??0?$KArrayTemplate@H@fbxsdk_20100@@QAE@XZ
	??1?$KArrayTemplate@H@fbxsdk_20100@@QAE@XZ
	?Resize@?$KBaseArray@V?$KBaseArraySizeType@H@fbxsdk_20100@@@fbxsdk_20100@@QAEXH@Z
	?GetCount@?$KBaseArray@V?$KBaseArraySizeType@PAVKFbxNode@fbxsdk_20100@@@fbxsdk_20100@@@fbxsdk_20100@@QBEHXZ
	?GetCount@?$KBaseArray@V?$KBaseArraySizeType@PAUKFbxPoseInfo@fbxsdk_20100@@@fbxsdk_20100@@@fbxsdk_20100@@QBEHXZ
	?GetCount@?$KBaseArray@V?$KBaseArraySizeType@PAVKFCurve@fbxsdk_20100@@@fbxsdk_20100@@@fbxsdk_20100@@QBEHXZ
	??0?$KArrayTemplate@W4EAttributeType@KFbxNodeAttribute@fbxsdk_20100@@@fbxsdk_20100@@QAE@XZ
	??1?$KArrayTemplate@W4EAttributeType@KFbxNodeAttribute@fbxsdk_20100@@@fbxsdk_20100@@QAE@XZ
	??0?$KArrayTemplate@VKFbxXMatrix@fbxsdk_20100@@@fbxsdk_20100@@QAE@XZ
	??1?$KArrayTemplate@VKFbxXMatrix@fbxsdk_20100@@@fbxsdk_20100@@QAE@XZ
	?Resize@?$KBaseArray@V?$KBaseArraySizeType@VKFbxXMatrix@fbxsdk_20100@@@fbxsdk_20100@@@fbxsdk_20100@@QAEXH@Z
	?GetCount@KFbxPose@fbxsdk_20100@@QBEHXZ
	?ApplyMultiplier@KFbxSystemUnit@fbxsdk_20100@@IBEXPAVKFbxNode@2@_N@Z
	?ConvertSTProperties@KFbxSystemUnit@fbxsdk_20100@@IBEXAAV?$KArrayTemplate@PAVKFbxNode@fbxsdk_20100@@@2@N@Z
	?ConvertSProperty@KFbxSystemUnit@fbxsdk_20100@@IBEXAAV?$KArrayTemplate@PAVKFbxNode@fbxsdk_20100@@@2@N@Z
	?ConvertFCurve@KFbxSystemUnit@fbxsdk_20100@@IBEXAAV?$KArrayTemplate@PAVKFCurve@fbxsdk_20100@@@2@N@Z
	?AdjustPoses@KFbxSystemUnit@fbxsdk_20100@@IBEXPAVKFbxScene@2@N@Z
	?ConvertChildren@KFbxSystemUnit@fbxsdk_20100@@IBEXPAVKFbxNode@2@ABV12@_NABUKFbxUnitConversionOptions@12@@Z
	?ConvertScene@KFbxSystemUnit@fbxsdk_20100@@QBEXPAVKFbxScene@2@PAVKFbxNode@2@ABUKFbxUnitConversionOptions@12@@Z
	?ConvertChildren@KFbxSystemUnit@fbxsdk_20100@@QBEXPAVKFbxNode@2@ABV12@ABUKFbxUnitConversionOptions@12@@Z
	?ConvertScene@KFbxSystemUnit@fbxsdk_20100@@QBEXPAVKFbxScene@2@ABUKFbxUnitConversionOptions@12@@Z
	?smMutex@?$KFbxEvent@VKFbxObjectPropertyChanged@fbxsdk_20100@@@kfbxevents@fbxsdk_20100@@0VKFbxMutex@kfbxmp@3@A
	?GetArrayCount@?$KBaseArray@V?$KBaseArraySizeType@PAVKFCurve@fbxsdk_20100@@@fbxsdk_20100@@@fbxsdk_20100@@IBEHXZ
	?GetArrayCount@?$KBaseArray@V?$KBaseArraySizeType@PAUKFbxPoseInfo@fbxsdk_20100@@@fbxsdk_20100@@@fbxsdk_20100@@IBEHXZ
	??1?$KBaseArray@V?$KBaseArraySizeType@W4EAttributeType@KFbxNodeAttribute@fbxsdk_20100@@@fbxsdk_20100@@@fbxsdk_20100@@IAE@XZ
	??0KFbxObjectsContainer@fbxsdk_20100@@QAE@XZ
	??_7KFbxObjectsContainer@fbxsdk_20100@@6B@
	??_R4KFbxObjectsContainer@fbxsdk_20100@@6B@
	??_R0?AVKFbxObjectsContainer@fbxsdk_20100@@@8
	??_R3KFbxObjectsContainer@fbxsdk_20100@@8
	??_R2KFbxObjectsContainer@fbxsdk_20100@@8
	??_R1A@?0A@EA@KFbxObjectsContainer@fbxsdk_20100@@8
	??1KFbxObjectsContainer@fbxsdk_20100@@UAE@XZ
	??_GKFbxObjectsContainer@fbxsdk_20100@@UAEPAXI@Z
	?KmXYZtoR@fbxsdk_20100@@YAPAY03NQAY03NNNN@Z
	?KmVXYZtoR@fbxsdk_20100@@YAPAY03NQAY03NQBN@Z
	?KmVtoR@fbxsdk_20100@@YAPAY03NQAY03NQBN@Z
	?KgeSet@fbxsdk_20100@@YAAAVKgeAMatrix@1@AAV21@ABVKgeRVector@1@@Z
	?AdjustPreRotation@KFbxAxisSystem@fbxsdk_20100@@IBEXPAVKFbxNode@2@ABVKFbxMatrix@2@@Z
	?AdjustCamera@KFbxAxisSystem@fbxsdk_20100@@IBEXPAVKFbxNode@2@ABVKFbxMatrix@2@@Z
	?GetCount@?$KBaseArray@V?$KBaseArraySizeType@PAVKFbxNode@fbxsdk_20100@@@fbxsdk_20100@@@fbxsdk_20100@@QBEHXZ
	?GetCount@?$KBaseArray@V?$KBaseArraySizeType@PAVKFCurve@fbxsdk_20100@@@fbxsdk_20100@@@fbxsdk_20100@@QBEHXZ
	?GetCount@?$KBaseArray@V?$KBaseArraySizeType@PAUKFbxPoseInfo@fbxsdk_20100@@@fbxsdk_20100@@@fbxsdk_20100@@QBEHXZ
	??0?$KArrayTemplate@W4EAttributeType@KFbxNodeAttribute@fbxsdk_20100@@@fbxsdk_20100@@QAE@XZ
	??1?$KArrayTemplate@W4EAttributeType@KFbxNodeAttribute@fbxsdk_20100@@@fbxsdk_20100@@QAE@XZ
	?GetCount@KFbxPose@fbxsdk_20100@@QBEHXZ
	?ConvertTProperty@KFbxAxisSystem@fbxsdk_20100@@IBEXAAV?$KArrayTemplate@PAVKFbxNode@fbxsdk_20100@@@2@ABV12@@Z
	?ConvertFCurve@KFbxAxisSystem@fbxsdk_20100@@IBEXAAV?$KArrayTemplate@PAVKFCurve@fbxsdk_20100@@@2@ABV12@@Z
	?AdjustPoses@KFbxAxisSystem@fbxsdk_20100@@IBEXPAVKFbxScene@2@ABVKFbxMatrix@2@@Z
	?ConvertChildren@KFbxAxisSystem@fbxsdk_20100@@IBEXPAVKFbxNode@2@ABV12@_N@Z
	?ConvertScene@KFbxAxisSystem@fbxsdk_20100@@QBEXPAVKFbxScene@2@PAVKFbxNode@2@@Z
	?ConvertChildren@KFbxAxisSystem@fbxsdk_20100@@QBEXPAVKFbxNode@2@ABV12@@Z
	?ConvertScene@KFbxAxisSystem@fbxsdk_20100@@QBEXPAVKFbxScene@2@@Z
	?Max@KFbxAxisSystem@fbxsdk_20100@@2V12@B
	?smMutex@?$KFbxEvent@VKFbxObjectPropertyChanged@fbxsdk_20100@@@kfbxevents@fbxsdk_20100@@0VKFbxMutex@kfbxmp@3@A
	?DirectX@KFbxAxisSystem@fbxsdk_20100@@2V12@B
	?MayaYUp@KFbxAxisSystem@fbxsdk_20100@@2V12@B
	?MayaZUp@KFbxAxisSystem@fbxsdk_20100@@2V12@B
	?Motionbuilder@KFbxAxisSystem@fbxsdk_20100@@2V12@B
	?OpenGL@KFbxAxisSystem@fbxsdk_20100@@2V12@B
	?Lightwave@KFbxAxisSystem@fbxsdk_20100@@2V12@B
	??1?$KArrayTemplate@PAVKFbxDefaultTakeCallback@fbxsdk_20100@@@fbxsdk_20100@@QAE@XZ
	?StaticInit@?$KFbxTypedProperty@_N@fbxsdk_20100@@QAEABVKFbxProperty@2@PAVKFbxObject@2@PBDABVKFbxDataType@2@AB_N_NW4eFbxPropertyFlags@FbxPropertyFlags@2@@Z
	?StaticInit@?$KFbxTypedProperty@N@fbxsdk_20100@@QAEABVKFbxProperty@2@PAVKFbxObject@2@PBDABVKFbxDataType@2@ABN_NW4eFbxPropertyFlags@FbxPropertyFlags@2@@Z
	?StaticInit@?$KFbxTypedProperty@V?$fbxVectorTemplate3@N@fbxsdk_20100@@@fbxsdk_20100@@QAEABVKFbxProperty@2@PAVKFbxObject@2@PBDABVKFbxDataType@2@ABV?$fbxVectorTemplate3@N@2@_NW4eFbxPropertyFlags@FbxPropertyFlags@2@@Z
	?Get@?$KFbxTypedProperty@V?$fbxVectorTemplate3@N@fbxsdk_20100@@@fbxsdk_20100@@QBE?AV?$fbxVectorTemplate3@N@2@XZ
	??1KFbxTakeNodeContainer@fbxsdk_20100@@UAE@XZ
	??_7KFbxTakeNodeContainer@fbxsdk_20100@@6B@
	??_R4KFbxTakeNodeContainer@fbxsdk_20100@@6B@
	??_R0?AVKFbxTakeNodeContainer@fbxsdk_20100@@@8
	??_R3KFbxTakeNodeContainer@fbxsdk_20100@@8
	??_R2KFbxTakeNodeContainer@fbxsdk_20100@@8
	??_R1A@?0A@EA@KFbxTakeNodeContainer@fbxsdk_20100@@8
	?GetClassId@KFbxTakeNodeContainer@fbxsdk_20100@@UBE?AVkFbxClassId@2@XZ
	??_GKFbxTakeNodeContainer@fbxsdk_20100@@UAEPAXI@Z
	??1KFbxConstraint@fbxsdk_20100@@UAE@XZ
	??_7KFbxConstraint@fbxsdk_20100@@6B@
	??_R4KFbxConstraint@fbxsdk_20100@@6B@
	??_R0?AVKFbxConstraint@fbxsdk_20100@@@8
	??_R3KFbxConstraint@fbxsdk_20100@@8
	??_R2KFbxConstraint@fbxsdk_20100@@8
	??_R1A@?0A@EA@KFbxConstraint@fbxsdk_20100@@8
	?GetClassId@KFbxConstraint@fbxsdk_20100@@UBE?AVkFbxClassId@2@XZ
	?GetConstraintType@KFbxConstraint@fbxsdk_20100@@UAE?AW4EConstraintType@12@XZ
	??_GKFbxConstraint@fbxsdk_20100@@UAEPAXI@Z
	??0KFbxConstraintSingleChainIK@fbxsdk_20100@@IAE@AAVKFbxSdkManager@1@PBD@Z
	??_7KFbxConstraintSingleChainIK@fbxsdk_20100@@6B@
	??_R4KFbxConstraintSingleChainIK@fbxsdk_20100@@6B@
	??_R0?AVKFbxConstraintSingleChainIK@fbxsdk_20100@@@8
	??_R3KFbxConstraintSingleChainIK@fbxsdk_20100@@8
	??_R2KFbxConstraintSingleChainIK@fbxsdk_20100@@8
	??_R1A@?0A@EA@KFbxConstraintSingleChainIK@fbxsdk_20100@@8
	?GetClassId@KFbxConstraintSingleChainIK@fbxsdk_20100@@UBE?AVkFbxClassId@2@XZ
	??1KFbxConstraintSingleChainIK@fbxsdk_20100@@UAE@XZ
	??_GKFbxConstraintSingleChainIK@fbxsdk_20100@@UAEPAXI@Z
	?ConstructProperties@KFbxConstraintSingleChainIK@fbxsdk_20100@@MAE_N_N@Z
	?GetPoleVector@KFbxConstraintSingleChainIK@fbxsdk_20100@@QAE?AVKFbxVector4@2@XZ
	?Clone@KFbxConstraintSingleChainIK@fbxsdk_20100@@UBEPAVKFbxObject@2@PAV32@W4ECloneType@32@@Z
	?smMutex@?$KFbxEvent@VKFbxObjectPropertyChanged@fbxsdk_20100@@@kfbxevents@fbxsdk_20100@@0VKFbxMutex@kfbxmp@3@A
	?ClassId@KFbxConstraintSingleChainIK@fbxsdk_20100@@2VkFbxClassId@2@A
	??_GKFbxConstraint@fbxsdk_20100@@UAEPAXI@Z
	??0KFbxConstraintScale@fbxsdk_20100@@IAE@AAVKFbxSdkManager@1@PBD@Z
	??_7KFbxConstraintScale@fbxsdk_20100@@6B@
	??_R4KFbxConstraintScale@fbxsdk_20100@@6B@
	??_R0?AVKFbxConstraintScale@fbxsdk_20100@@@8
	??_R3KFbxConstraintScale@fbxsdk_20100@@8
	??_R2KFbxConstraintScale@fbxsdk_20100@@8
	??_R1A@?0A@EA@KFbxConstraintScale@fbxsdk_20100@@8
	?GetClassId@KFbxConstraintScale@fbxsdk_20100@@UBE?AVkFbxClassId@2@XZ
	??1KFbxConstraintScale@fbxsdk_20100@@UAE@XZ
	??_GKFbxConstraintScale@fbxsdk_20100@@UAEPAXI@Z
	?ConstructProperties@KFbxConstraintScale@fbxsdk_20100@@MAE_N_N@Z
	?GetOffset@KFbxConstraintScale@fbxsdk_20100@@QAE?AVKFbxVector4@2@XZ
	?Clone@KFbxConstraintScale@fbxsdk_20100@@UBEPAVKFbxObject@2@PAV32@W4ECloneType@32@@Z
	?smMutex@?$KFbxEvent@VKFbxObjectPropertyChanged@fbxsdk_20100@@@kfbxevents@fbxsdk_20100@@0VKFbxMutex@kfbxmp@3@A
	?ClassId@KFbxConstraintScale@fbxsdk_20100@@2VkFbxClassId@2@A
	??_GKFbxConstraint@fbxsdk_20100@@UAEPAXI@Z
	??0KFbxConstraintRotation@fbxsdk_20100@@IAE@AAVKFbxSdkManager@1@PBD@Z
	??_7KFbxConstraintRotation@fbxsdk_20100@@6B@
	??_R4KFbxConstraintRotation@fbxsdk_20100@@6B@
	??_R0?AVKFbxConstraintRotation@fbxsdk_20100@@@8
	??_R3KFbxConstraintRotation@fbxsdk_20100@@8
	??_R2KFbxConstraintRotation@fbxsdk_20100@@8
	??_R1A@?0A@EA@KFbxConstraintRotation@fbxsdk_20100@@8
	?GetClassId@KFbxConstraintRotation@fbxsdk_20100@@UBE?AVkFbxClassId@2@XZ
	??1KFbxConstraintRotation@fbxsdk_20100@@UAE@XZ
	??_GKFbxConstraintRotation@fbxsdk_20100@@UAEPAXI@Z
	?ConstructProperties@KFbxConstraintRotation@fbxsdk_20100@@MAE_N_N@Z
	?GetOffset@KFbxConstraintRotation@fbxsdk_20100@@QAE?AVKFbxVector4@2@XZ
	?Clone@KFbxConstraintRotation@fbxsdk_20100@@UBEPAVKFbxObject@2@PAV32@W4ECloneType@32@@Z
	?ClassId@KFbxConstraintRotation@fbxsdk_20100@@2VkFbxClassId@2@A
	?smMutex@?$KFbxEvent@VKFbxObjectPropertyChanged@fbxsdk_20100@@@kfbxevents@fbxsdk_20100@@0VKFbxMutex@kfbxmp@3@A
	?GetClassId@KFbxConstraint@fbxsdk_20100@@UBE?AVkFbxClassId@2@XZ
	?GetConstraintType@KFbxConstraint@fbxsdk_20100@@UAE?AW4EConstraintType@12@XZ
	??_GKFbxConstraint@fbxsdk_20100@@UAEPAXI@Z
	??0KFbxConstraintPosition@fbxsdk_20100@@IAE@AAVKFbxSdkManager@1@PBD@Z
	??_7KFbxConstraintPosition@fbxsdk_20100@@6B@
	??_R4KFbxConstraintPosition@fbxsdk_20100@@6B@
	??_R0?AVKFbxConstraintPosition@fbxsdk_20100@@@8
	??_R3KFbxConstraintPosition@fbxsdk_20100@@8
	??_R2KFbxConstraintPosition@fbxsdk_20100@@8
	??_R1A@?0A@EA@KFbxConstraintPosition@fbxsdk_20100@@8
	?GetClassId@KFbxConstraintPosition@fbxsdk_20100@@UBE?AVkFbxClassId@2@XZ
	??1KFbxConstraintPosition@fbxsdk_20100@@UAE@XZ
	??_GKFbxConstraintPosition@fbxsdk_20100@@UAEPAXI@Z
	?ConstructProperties@KFbxConstraintPosition@fbxsdk_20100@@MAE_N_N@Z
	?GetOffset@KFbxConstraintPosition@fbxsdk_20100@@QAE?AVKFbxVector4@2@XZ
	?Clone@KFbxConstraintPosition@fbxsdk_20100@@UBEPAVKFbxObject@2@PAV32@W4ECloneType@32@@Z
	?smMutex@?$KFbxEvent@VKFbxObjectPropertyChanged@fbxsdk_20100@@@kfbxevents@fbxsdk_20100@@0VKFbxMutex@kfbxmp@3@A
	?ClassId@KFbxConstraintPosition@fbxsdk_20100@@2VkFbxClassId@2@A
	??_GKFbxConstraint@fbxsdk_20100@@UAEPAXI@Z
	??0KFbxConstraintParent@fbxsdk_20100@@IAE@AAVKFbxSdkManager@1@PBD@Z
	??_7KFbxConstraintParent@fbxsdk_20100@@6B@
	??_R4KFbxConstraintParent@fbxsdk_20100@@6B@
	??_R0?AVKFbxConstraintParent@fbxsdk_20100@@@8
	??_R3KFbxConstraintParent@fbxsdk_20100@@8
	??_R2KFbxConstraintParent@fbxsdk_20100@@8
	??_R1A@?0A@EA@KFbxConstraintParent@fbxsdk_20100@@8
	?GetClassId@KFbxConstraintParent@fbxsdk_20100@@UBE?AVkFbxClassId@2@XZ
	??1KFbxConstraintParent@fbxsdk_20100@@UAE@XZ
	??_GKFbxConstraintParent@fbxsdk_20100@@UAEPAXI@Z
	?ConstructProperties@KFbxConstraintParent@fbxsdk_20100@@MAE_N_N@Z
	?GetTranslationOffset@KFbxConstraintParent@fbxsdk_20100@@QAE?AVKFbxVector4@2@PAVKFbxObject@2@@Z
	?GetRotationOffset@KFbxConstraintParent@fbxsdk_20100@@QAE?AVKFbxVector4@2@PAVKFbxObject@2@@Z
	?Clone@KFbxConstraintParent@fbxsdk_20100@@UBEPAVKFbxObject@2@PAV32@W4ECloneType@32@@Z
	?ClassId@KFbxConstraintParent@fbxsdk_20100@@2VkFbxClassId@2@A
	?smMutex@?$KFbxEvent@VKFbxObjectPropertyChanged@fbxsdk_20100@@@kfbxevents@fbxsdk_20100@@0VKFbxMutex@kfbxmp@3@A
	??_GKFbxTakeNodeContainer@fbxsdk_20100@@UAEPAXI@Z
	??1KFbxConstraint@fbxsdk_20100@@UAE@XZ
	??_7KFbxConstraint@fbxsdk_20100@@6B@
	??_R4KFbxConstraint@fbxsdk_20100@@6B@
	??_R0?AVKFbxConstraint@fbxsdk_20100@@@8
	??_R3KFbxConstraint@fbxsdk_20100@@8
	??_R2KFbxConstraint@fbxsdk_20100@@8
	??_R1A@?0A@EA@KFbxConstraint@fbxsdk_20100@@8
	?GetClassId@KFbxConstraint@fbxsdk_20100@@UBE?AVkFbxClassId@2@XZ
	?GetConstraintType@KFbxConstraint@fbxsdk_20100@@UAE?AW4EConstraintType@12@XZ
	??_GKFbxConstraint@fbxsdk_20100@@UAEPAXI@Z
	??0KFbxConstraintAim@fbxsdk_20100@@IAE@AAVKFbxSdkManager@1@PBD@Z
	??_7KFbxConstraintAim@fbxsdk_20100@@6B@
	??_R4KFbxConstraintAim@fbxsdk_20100@@6B@
	??_R0?AVKFbxConstraintAim@fbxsdk_20100@@@8
	??_R3KFbxConstraintAim@fbxsdk_20100@@8
	??_R2KFbxConstraintAim@fbxsdk_20100@@8
	??_R1A@?0A@EA@KFbxConstraintAim@fbxsdk_20100@@8
	?GetClassId@KFbxConstraintAim@fbxsdk_20100@@UBE?AVkFbxClassId@2@XZ
	??1KFbxConstraintAim@fbxsdk_20100@@UAE@XZ
	??_GKFbxConstraintAim@fbxsdk_20100@@UAEPAXI@Z
	?ConstructProperties@KFbxConstraintAim@fbxsdk_20100@@MAE_N_N@Z
	?GetOffset@KFbxConstraintAim@fbxsdk_20100@@QAE?AVKFbxVector4@2@XZ
	?GetWorldUpVector@KFbxConstraintAim@fbxsdk_20100@@QAE?AVKFbxVector4@2@XZ
	?GetUpVector@KFbxConstraintAim@fbxsdk_20100@@QAE?AVKFbxVector4@2@XZ
	?GetAimVector@KFbxConstraintAim@fbxsdk_20100@@QAE?AVKFbxVector4@2@XZ
	?Clone@KFbxConstraintAim@fbxsdk_20100@@UBEPAVKFbxObject@2@PAV32@W4ECloneType@32@@Z
	?smMutex@?$KFbxEvent@VKFbxObjectPropertyChanged@fbxsdk_20100@@@kfbxevents@fbxsdk_20100@@0VKFbxMutex@kfbxmp@3@A
	?ClassId@KFbxConstraintAim@fbxsdk_20100@@2VkFbxClassId@2@A
	?StaticInit@?$KFbxTypedProperty@W4EType@KFbxControlSet@fbxsdk_20100@@@fbxsdk_20100@@QAEABVKFbxProperty@2@PAVKFbxObject@2@PBDABVKFbxDataType@2@W4eFbxPropertyFlags@FbxPropertyFlags@2@@Z
	?Set@?$KFbxTypedProperty@W4EType@KFbxControlSet@fbxsdk_20100@@@fbxsdk_20100@@QAE_NABW4EType@KFbxControlSet@2@@Z
	?Get@?$KFbxTypedProperty@W4EType@KFbxControlSet@fbxsdk_20100@@@fbxsdk_20100@@QBE?AW4EType@KFbxControlSet@2@XZ
	??A?$KArrayTemplate@VKFbxProperty@fbxsdk_20100@@@fbxsdk_20100@@QBEAAVKFbxProperty@1@H@Z
	??1?$KArrayTemplate@PAVKStringListItem@fbxsdk_20100@@@fbxsdk_20100@@QAE@XZ
	??A?$KArrayTemplate@PAVKStringListItem@fbxsdk_20100@@@fbxsdk_20100@@QBEAAPAVKStringListItem@1@H@Z
	??1?$KBaseArray@V?$KBaseArraySizeType@PAVKFbxTakeNode@fbxsdk_20100@@@fbxsdk_20100@@@fbxsdk_20100@@IAE@XZ
	??1?$KBaseArray@V?$KBaseArraySizeType@PAVKFbxDefaultTakeCallback@fbxsdk_20100@@@fbxsdk_20100@@@fbxsdk_20100@@IAE@XZ
	?Set@?$KFbxTypedProperty@_N@fbxsdk_20100@@QAE_NAB_N_N@Z
	??1?$KBaseArray@V?$KBaseArraySizeType@VKFbxProperty@fbxsdk_20100@@@fbxsdk_20100@@@fbxsdk_20100@@IAE@XZ
	?GetArrayCount@?$KBaseArray@V?$KBaseArraySizeType@VKFbxProperty@fbxsdk_20100@@@fbxsdk_20100@@@fbxsdk_20100@@IBEHXZ
	?GetArrayCount@?$KBaseArray@V?$KBaseArraySizeType@PAVKStringListItem@fbxsdk_20100@@@fbxsdk_20100@@@fbxsdk_20100@@IBEHXZ
	?GetTypeSize@?$KBaseArray@V?$KBaseArraySizeType@VKFbxProperty@fbxsdk_20100@@@fbxsdk_20100@@@fbxsdk_20100@@QBEHXZ
	?SetArrayCount@?$KBaseArray@V?$KBaseArraySizeType@VKFbxProperty@fbxsdk_20100@@@fbxsdk_20100@@@fbxsdk_20100@@IAEXH@Z
	?SetBlockCount@?$KBaseArray@V?$KBaseArraySizeType@VKFbxProperty@fbxsdk_20100@@@fbxsdk_20100@@@fbxsdk_20100@@IAEXH@Z
	??1?$KArrayTemplate@PAVKFbxTakeNode@fbxsdk_20100@@@fbxsdk_20100@@QAE@XZ
	??1?$KArrayTemplate@PAVKFbxDefaultTakeCallback@fbxsdk_20100@@@fbxsdk_20100@@QAE@XZ
	?StaticInit@?$KFbxTypedProperty@_N@fbxsdk_20100@@QAEABVKFbxProperty@2@PAVKFbxObject@2@PBDAB_N_NW4eFbxPropertyFlags@FbxPropertyFlags@2@@Z
	??0?$KArrayTemplate@VKFbxProperty@fbxsdk_20100@@@fbxsdk_20100@@QAE@XZ
	??1?$KArrayTemplate@VKFbxProperty@fbxsdk_20100@@@fbxsdk_20100@@QAE@XZ
	?GetCount@?$KBaseArray@V?$KBaseArraySizeType@VKFbxProperty@fbxsdk_20100@@@fbxsdk_20100@@@fbxsdk_20100@@QBEHXZ
	?GetCount@?$KBaseArray@V?$KBaseArraySizeType@PAVKStringListItem@fbxsdk_20100@@@fbxsdk_20100@@@fbxsdk_20100@@QBEHXZ
	?InsertAt@?$KBaseArray@V?$KBaseArraySizeType@VKFbxProperty@fbxsdk_20100@@@fbxsdk_20100@@@fbxsdk_20100@@IAEHHPAX@Z
	??1KFbxTakeNodeContainer@fbxsdk_20100@@UAE@XZ
	??_7KFbxTakeNodeContainer@fbxsdk_20100@@6B@
	??_R4KFbxTakeNodeContainer@fbxsdk_20100@@6B@
	??_R0?AVKFbxTakeNodeContainer@fbxsdk_20100@@@8
	??_R3KFbxTakeNodeContainer@fbxsdk_20100@@8
	??_R2KFbxTakeNodeContainer@fbxsdk_20100@@8
	??_R1A@?0A@EA@KFbxTakeNodeContainer@fbxsdk_20100@@8
	?GetClassId@KFbxTakeNodeContainer@fbxsdk_20100@@UBE?AVkFbxClassId@2@XZ
	??_GKFbxTakeNodeContainer@fbxsdk_20100@@UAEPAXI@Z
	?FromPlug@KFbxControlSet@fbxsdk_20100@@QAEXPAVKFbxControlSetPlug@2@@Z
	?ToPlug@KFbxControlSet@fbxsdk_20100@@QAEXPAVKFbxControlSetPlug@2@@Z
	??0KFbxControlSetPlug@fbxsdk_20100@@IAE@AAVKFbxSdkManager@1@PBD@Z
	??_7KFbxControlSetPlug@fbxsdk_20100@@6B@
	??_R4KFbxControlSetPlug@fbxsdk_20100@@6B@
	??_R0?AVKFbxControlSetPlug@fbxsdk_20100@@@8
	??_R3KFbxControlSetPlug@fbxsdk_20100@@8
	??_R2KFbxControlSetPlug@fbxsdk_20100@@8
	??_R1A@?0A@EA@KFbxControlSetPlug@fbxsdk_20100@@8
	?GetClassId@KFbxControlSetPlug@fbxsdk_20100@@UBE?AVkFbxClassId@2@XZ
	??1KFbxControlSetPlug@fbxsdk_20100@@UAE@XZ
	??_GKFbxControlSetPlug@fbxsdk_20100@@UAEPAXI@Z
	?Add@?$KStringListTemplate@VKStringListItem@fbxsdk_20100@@@fbxsdk_20100@@QAEHPADI@Z
	?Clear@?$KStringListTemplate@VKStringListItem@fbxsdk_20100@@@fbxsdk_20100@@UAEXXZ
	?InsertAt@?$KArrayTemplate@VKFbxProperty@fbxsdk_20100@@@fbxsdk_20100@@QAEHHVKFbxProperty@2@@Z
	??1?$KStringListTemplate@VKStringListItem@fbxsdk_20100@@@fbxsdk_20100@@UAE@XZ
	??_7?$KStringListTemplate@VKStringListItem@fbxsdk_20100@@@fbxsdk_20100@@6B@
	??_R4?$KStringListTemplate@VKStringListItem@fbxsdk_20100@@@fbxsdk_20100@@6B@
	??_R0?AV?$KStringListTemplate@VKStringListItem@fbxsdk_20100@@@fbxsdk_20100@@@8
	??_R3?$KStringListTemplate@VKStringListItem@fbxsdk_20100@@@fbxsdk_20100@@8
	??_R2?$KStringListTemplate@VKStringListItem@fbxsdk_20100@@@fbxsdk_20100@@8
	??_R1A@?0A@EA@?$KStringListTemplate@VKStringListItem@fbxsdk_20100@@@fbxsdk_20100@@8
	?Buffer@KString@fbxsdk_20100@@QAEPADXZ
	??0KStringListItem@fbxsdk_20100@@QAE@PBDI@Z
	?GetBlockCount@?$KBaseArray@V?$KBaseArraySizeType@PAVKStringListItem@fbxsdk_20100@@@fbxsdk_20100@@@fbxsdk_20100@@IBEHXZ
	?GetHeader@?$KBaseArray@V?$KBaseArraySizeType@PAVKStringListItem@fbxsdk_20100@@@fbxsdk_20100@@@fbxsdk_20100@@IAEPAUKHeader@12@XZ
	?GetTypeSize@?$KBaseArraySizeType@PAVKStringListItem@fbxsdk_20100@@@fbxsdk_20100@@QBEHXZ
	?GetAt@?$KArrayTemplate@PAVKStringListItem@fbxsdk_20100@@@fbxsdk_20100@@QBEPAVKStringListItem@2@H@Z
	?GetTypeSize@?$KBaseArray@V?$KBaseArraySizeType@PAVKStringListItem@fbxsdk_20100@@@fbxsdk_20100@@@fbxsdk_20100@@QBEHXZ
	?SetArrayCount@?$KBaseArray@V?$KBaseArraySizeType@PAVKStringListItem@fbxsdk_20100@@@fbxsdk_20100@@@fbxsdk_20100@@IAEXH@Z
	?SetBlockCount@?$KBaseArray@V?$KBaseArraySizeType@PAVKStringListItem@fbxsdk_20100@@@fbxsdk_20100@@@fbxsdk_20100@@IAEXH@Z
	?InsertAt@?$KBaseArray@V?$KBaseArraySizeType@PAVKStringListItem@fbxsdk_20100@@@fbxsdk_20100@@@fbxsdk_20100@@IAEHHPAX@Z
	?RemoveAt@?$KBaseArray@V?$KBaseArraySizeType@PAVKStringListItem@fbxsdk_20100@@@fbxsdk_20100@@@fbxsdk_20100@@IAEXH@Z
	?SetStringAt@?$KStringListTemplate@VKStringListItem@fbxsdk_20100@@@fbxsdk_20100@@UAE_NHPAD@Z
	?GetText@?$KStringListTemplate@VKStringListItem@fbxsdk_20100@@@fbxsdk_20100@@UAEXAAVKString@2@@Z
	?SetText@?$KStringListTemplate@VKStringListItem@fbxsdk_20100@@@fbxsdk_20100@@UAEHPAD@Z
	?InsertAt@?$KArrayTemplate@PAVKStringListItem@fbxsdk_20100@@@fbxsdk_20100@@QAEHHPAVKStringListItem@2@@Z
	?RemoveAt@?$KArrayTemplate@PAVKStringListItem@fbxsdk_20100@@@fbxsdk_20100@@QAEPAVKStringListItem@2@H@Z
	?InsertAt@?$KStringListTemplate@VKStringListItem@fbxsdk_20100@@@fbxsdk_20100@@UAEHHPADI@Z
	?RemoveAt@?$KStringListTemplate@VKStringListItem@fbxsdk_20100@@@fbxsdk_20100@@UAEXH@Z
	?Add@?$KArrayTemplate@VKFbxProperty@fbxsdk_20100@@@fbxsdk_20100@@QAEHVKFbxProperty@2@@Z
	??4?$KArrayTemplate@VKFbxProperty@fbxsdk_20100@@@fbxsdk_20100@@QAEAAV01@ABV01@@Z
	??_G?$KStringListTemplate@VKStringListItem@fbxsdk_20100@@@fbxsdk_20100@@UAEPAXI@Z
	?Construct@KFbxControlSetPlug@fbxsdk_20100@@MAEXPBV12@@Z
	??1KStringList@fbxsdk_20100@@UAE@XZ
	??4KFbxControlSetPlug@fbxsdk_20100@@QAEAAV01@ABV01@@Z
	?GetTypeFlags@KFbxControlSetPlug@fbxsdk_20100@@UBE?AVKStringList@2@XZ
	?Clone@KFbxControlSetPlug@fbxsdk_20100@@UBEPAVKFbxObject@2@PAV32@W4ECloneType@32@@Z
	?smMutex@?$KFbxEvent@VKFbxObjectPropertyChanged@fbxsdk_20100@@@kfbxevents@fbxsdk_20100@@0VKFbxMutex@kfbxmp@3@A
	?ClassId@KFbxControlSetPlug@fbxsdk_20100@@2VkFbxClassId@2@A
	?GetAt@KHIK2KFbxCharacterPropertyBridge@fbxsdk_20100@@SAABVCharacterPropertyInfo@2@H@Z
	?GetPropertyInfoFromKFbxCharacterProperty@KHIK2KFbxCharacterPropertyBridge@fbxsdk_20100@@SAPBVCharacterPropertyInfo@2@PBD@Z
	?GetPropertyInfoFromHIKProperty@KHIK2KFbxCharacterPropertyBridge@fbxsdk_20100@@SAPBVCharacterPropertyInfo@2@PBD@Z
	?GetLen@KString@fbxsdk_20100@@QBEIXZ
	?IsEmpty@KString@fbxsdk_20100@@QBE_NXZ
	?FbxTypeOf@fbxsdk_20100@@YA?AW4EFbxType@1@AB_N@Z
	?FbxTypeOf@fbxsdk_20100@@YA?AW4EFbxType@1@ABH@Z
	?FbxTypeOf@fbxsdk_20100@@YA?AW4EFbxType@1@ABN@Z
	?FbxTypeOf@fbxsdk_20100@@YA?AW4EFbxType@1@ABV?$fbxVectorTemplate3@N@1@@Z
	?IsRoot@KFbxPropertyHandle@fbxsdk_20100@@QBE_NXZ
	??1KFbxPlug@fbxsdk_20100@@MAE@XZ
	??_7KFbxPlug@fbxsdk_20100@@6B@
	??_R4KFbxPlug@fbxsdk_20100@@6B@
	??_R0?AVKFbxPlug@fbxsdk_20100@@@8
	??_R3KFbxPlug@fbxsdk_20100@@8
	??_R2KFbxPlug@fbxsdk_20100@@8
	??_R1A@?0A@EA@KFbxPlug@fbxsdk_20100@@8
	??_R13?0A@EA@KFbxEmitter@kfbxevents@fbxsdk_20100@@8
	??_R0?AVKFbxEmitter@kfbxevents@fbxsdk_20100@@@8
	??_R3KFbxEmitter@kfbxevents@fbxsdk_20100@@8
	??_R2KFbxEmitter@kfbxevents@fbxsdk_20100@@8
	??_R1A@?0A@EA@KFbxEmitter@kfbxevents@fbxsdk_20100@@8
	?GetClassId@KFbxPlug@fbxsdk_20100@@UBE?AVkFbxClassId@2@XZ
	?GetFbxSdkManager@KFbxPlug@fbxsdk_20100@@UBEPAVKFbxSdkManager@2@XZ
	?Is@KFbxPlug@fbxsdk_20100@@UBE_NVkFbxClassId@2@@Z
	?IsRuntime@KFbxPlug@fbxsdk_20100@@UBE_NVkFbxClassId@2@@Z
	?IsRuntimePlug@KFbxPlug@fbxsdk_20100@@UBE_NXZ
	??_GKFbxPlug@fbxsdk_20100@@MAEPAXI@Z
	?IsRoot@KFbxProperty@fbxsdk_20100@@QBE_NXZ
	?Find@KFbxProperty@fbxsdk_20100@@QBE?AV12@PBD_N@Z
	??0?$KFbxTypedProperty@PAVfbxReference@fbxsdk_20100@@@fbxsdk_20100@@QAE@XZ
	??0?$KFbxTypedProperty@PAVfbxReference@fbxsdk_20100@@@fbxsdk_20100@@QAE@ABVKFbxProperty@1@@Z
	??1?$KFbxTypedProperty@PAVfbxReference@fbxsdk_20100@@@fbxsdk_20100@@QAE@XZ
	??4?$KFbxTypedProperty@PAVfbxReference@fbxsdk_20100@@@fbxsdk_20100@@QAEAAV01@ABV01@@Z
	?GetType@KFbxConnectEvent@fbxsdk_20100@@QBE?AW4eFbxConnectEventType@2@XZ
	?GetDirection@KFbxConnectEvent@fbxsdk_20100@@QBE?AW4eFbxConnectEventDirection@2@XZ
	?GetSrc@KFbxConnectEvent@fbxsdk_20100@@QBEAAVKFbxProperty@2@XZ
	?GetDst@KFbxConnectEvent@fbxsdk_20100@@QBEAAVKFbxProperty@2@XZ
	??1KFbxObject@fbxsdk_20100@@UAE@XZ
	??_7KFbxObject@fbxsdk_20100@@6B@
	??_R4KFbxObject@fbxsdk_20100@@6B@
	??_R0?AVKFbxObject@fbxsdk_20100@@@8
	??_R3KFbxObject@fbxsdk_20100@@8
	??_R2KFbxObject@fbxsdk_20100@@8
	??_R1A@?0A@EA@KFbxObject@fbxsdk_20100@@8
	?GetClassId@KFbxObject@fbxsdk_20100@@UBE?AVkFbxClassId@2@XZ
	?FindProperty@KFbxObject@fbxsdk_20100@@QBE?AVKFbxProperty@2@PBD_N@Z
	?ConnectSrcObject@KFbxObject@fbxsdk_20100@@QAE_NPAV12@W4kFbxConnectionType@2@@Z
	??_GKFbxObject@fbxsdk_20100@@UAEPAXI@Z
	??1KFbxCharacterLink@fbxsdk_20100@@QAE@XZ
	?FbxTypeOf@fbxsdk_20100@@YA?AW4EFbxType@1@ABW4kCharacterOffAutoUser@1@@Z
	?FbxTypeOf@fbxsdk_20100@@YA?AW4EFbxType@1@ABW4kCharacterAutoUser@1@@Z
	?FbxTypeOf@fbxsdk_20100@@YA?AW4EFbxType@1@ABW4kCharacterPosture@1@@Z
	?FbxTypeOf@fbxsdk_20100@@YA?AW4EFbxType@1@ABW4kCharacterFloorPivot@1@@Z
	?FbxTypeOf@fbxsdk_20100@@YA?AW4EFbxType@1@ABW4kCharacterRollExtractionMode@1@@Z
	?FbxTypeOf@fbxsdk_20100@@YA?AW4EFbxType@1@ABW4kCharacterHipsTranslationMode@1@@Z
	?FbxTypeOf@fbxsdk_20100@@YA?AW4EFbxType@1@ABW4kCharacterFootContactType@1@@Z
	?FbxTypeOf@fbxsdk_20100@@YA?AW4EFbxType@1@ABW4kCharacterHandContactType@1@@Z
	?FbxTypeOf@fbxsdk_20100@@YA?AW4EFbxType@1@ABW4kCharacterFingerContactMode@1@@Z
	?FbxTypeOf@fbxsdk_20100@@YA?AW4EFbxType@1@ABW4kCharacterContactBehaviour@1@@Z
	?Create@KFbxCharacter@fbxsdk_20100@@SAPAV12@PAVKFbxSdkManager@2@PBD@Z
	?Create@KFbxCharacter@fbxsdk_20100@@SAPAV12@PAVKFbxObject@2@PBD@Z
	?CreateForClone@KFbxCharacter@fbxsdk_20100@@SAPAV12@PAVKFbxSdkManager@2@PBDPBV12@@Z
	?Reset@KFbxCharacterLink@fbxsdk_20100@@QAEXXZ
	??4KFbxCharacterLink@fbxsdk_20100@@QAEAAV01@ABV01@@Z
	??$KFbxCharacterAddEnumValue@V?$KFbxTypedProperty@W4kCharacterOffAutoUser@fbxsdk_20100@@@fbxsdk_20100@@@fbxsdk_20100@@YAXAAV?$KFbxTypedProperty@W4kCharacterOffAutoUser@fbxsdk_20100@@@0@@Z
	??$KFbxCharacterAddEnumValue@V?$KFbxTypedProperty@W4kCharacterAutoUser@fbxsdk_20100@@@fbxsdk_20100@@@fbxsdk_20100@@YAXAAV?$KFbxTypedProperty@W4kCharacterAutoUser@fbxsdk_20100@@@0@@Z
	??$KFbxCharacterAddEnumValue@V?$KFbxTypedProperty@W4kCharacterFloorPivot@fbxsdk_20100@@@fbxsdk_20100@@@fbxsdk_20100@@YAXAAV?$KFbxTypedProperty@W4kCharacterFloorPivot@fbxsdk_20100@@@0@@Z
	??$KFbxCharacterAddEnumValue@V?$KFbxTypedProperty@W4kCharacterPosture@fbxsdk_20100@@@fbxsdk_20100@@@fbxsdk_20100@@YAXAAV?$KFbxTypedProperty@W4kCharacterPosture@fbxsdk_20100@@@0@@Z
	??$KFbxCharacterAddEnumValue@V?$KFbxTypedProperty@W4kCharacterRollExtractionMode@fbxsdk_20100@@@fbxsdk_20100@@@fbxsdk_20100@@YAXAAV?$KFbxTypedProperty@W4kCharacterRollExtractionMode@fbxsdk_20100@@@0@@Z
	??$KFbxCharacterAddEnumValue@V?$KFbxTypedProperty@W4kCharacterFootContactType@fbxsdk_20100@@@fbxsdk_20100@@@fbxsdk_20100@@YAXAAV?$KFbxTypedProperty@W4kCharacterFootContactType@fbxsdk_20100@@@0@@Z
	??$KFbxCharacterAddEnumValue@V?$KFbxTypedProperty@W4kCharacterHandContactType@fbxsdk_20100@@@fbxsdk_20100@@@fbxsdk_20100@@YAXAAV?$KFbxTypedProperty@W4kCharacterHandContactType@fbxsdk_20100@@@0@@Z
	??$KFbxCharacterAddEnumValue@V?$KFbxTypedProperty@W4kCharacterFingerContactMode@fbxsdk_20100@@@fbxsdk_20100@@@fbxsdk_20100@@YAXAAV?$KFbxTypedProperty@W4kCharacterFingerContactMode@fbxsdk_20100@@@0@@Z
	??$KFbxCharacterAddEnumValue@V?$KFbxTypedProperty@W4kCharacterContactBehaviour@fbxsdk_20100@@@fbxsdk_20100@@@fbxsdk_20100@@YAXAAV?$KFbxTypedProperty@W4kCharacterContactBehaviour@fbxsdk_20100@@@0@@Z
	??$KFbxCharacterAddEnumValue@V?$KFbxTypedProperty@W4kCharacterHipsTranslationMode@fbxsdk_20100@@@fbxsdk_20100@@@fbxsdk_20100@@YAXAAV?$KFbxTypedProperty@W4kCharacterHipsTranslationMode@fbxsdk_20100@@@0@@Z
	??_GKFbxControlSet@fbxsdk_20100@@AAEPAXI@Z
	?GetConstraintType@KFbxCharacter@fbxsdk_20100@@UAE?AW4EConstraintType@KFbxConstraint@2@XZ
	?GetTypeName@KFbxCharacter@fbxsdk_20100@@UBE?AVKString@2@XZ
	?AddChannels@KFbxCharacter@fbxsdk_20100@@UAEXPAVKFbxTakeNode@2@@Z
	?GetKFbxCharacterPropertyFromHIKProperty@KFbxCharacter@fbxsdk_20100@@QBEXAAPAD0AAW4kCharacterPropertyUnit@2@AAHPBD@Z
	?GetHIKPropertyFromKFbxCharacterProperty@KFbxCharacter@fbxsdk_20100@@QBEXAAPADAAW4kCharacterPropertyUnit@2@PBD@Z
	?GetPropertyInfo@KFbxCharacter@fbxsdk_20100@@QBEXAAPAD0AAW4kCharacterPropertyUnit@2@AAH0H@Z
	?GetPropertyInfoCount@KFbxCharacter@fbxsdk_20100@@QAEHXZ
	?Reset@KFbxCharacter@fbxsdk_20100@@QAEXXZ
	?SetInput@KFbxCharacter@fbxsdk_20100@@QAEXW4ECharacterInputType@2@PAVKFbxObject@2@@Z
	?GetInputType@KFbxCharacter@fbxsdk_20100@@QBE?AW4ECharacterInputType@2@XZ
	?GetInputObject@KFbxCharacter@fbxsdk_20100@@QBEPAVKFbxObject@2@XZ
	?SetCharacterLink@KFbxCharacter@fbxsdk_20100@@QAE_NW4ECharacterNodeId@2@ABVKFbxCharacterLink@2@_N@Z
	?GetCharacterLink@KFbxCharacter@fbxsdk_20100@@QBE_NW4ECharacterNodeId@2@PAVKFbxCharacterLink@2@@Z
	?GetControlSet@KFbxCharacter@fbxsdk_20100@@QBEAAVKFbxControlSet@2@XZ
	?GetCharacterGroupCount@KFbxCharacter@fbxsdk_20100@@SAHW4ECharacterGroupId@2@@Z
	?GetCharacterGroupElementByIndex@KFbxCharacter@fbxsdk_20100@@SA?AW4ECharacterNodeId@2@W4ECharacterGroupId@2@H@Z
	?GetCharacterGroupNameByIndex@KFbxCharacter@fbxsdk_20100@@SAPADW4ECharacterGroupId@2@H@Z
	?GetCharacterGroupVersionByIndex@KFbxCharacter@fbxsdk_20100@@SAHW4ECharacterGroupId@2@H@Z
	?FindCharacterGroupIndexByName@KFbxCharacter@fbxsdk_20100@@SA_NPAD_NAAW4ECharacterGroupId@2@AAH@Z
	?GetCharacterGroupIndexByElement@KFbxCharacter@fbxsdk_20100@@SA_NW4ECharacterNodeId@2@AAW4ECharacterGroupId@2@AAH@Z
	?GetCharacterNodeNameFromNodeId@KFbxCharacter@fbxsdk_20100@@SA_NW4ECharacterNodeId@2@AAPAD@Z
	?GetCharacterGroupVersionByElement@KFbxCharacter@fbxsdk_20100@@SA_NW4ECharacterNodeId@2@AAH@Z
	?GetCharacterNodeIdFromNodeName@KFbxCharacter@fbxsdk_20100@@SA_NPADAAW4ECharacterNodeId@2@@Z
	??1KFbxControlSetLink@fbxsdk_20100@@QAE@XZ
	??0?$fbxVectorTemplate3@N@fbxsdk_20100@@QAE@NNN@Z
	??1?$fbxVectorTemplate3@N@fbxsdk_20100@@QAE@XZ
	??0?$KFbxTypedProperty@_N@fbxsdk_20100@@QAE@XZ
	??1?$KFbxTypedProperty@_N@fbxsdk_20100@@QAE@XZ
	??0?$KFbxTypedProperty@N@fbxsdk_20100@@QAE@XZ
	??1?$KFbxTypedProperty@N@fbxsdk_20100@@QAE@XZ
	??0?$KFbxTypedProperty@H@fbxsdk_20100@@QAE@XZ
	??1?$KFbxTypedProperty@H@fbxsdk_20100@@QAE@XZ
	??0?$KFbxTypedProperty@W4kCharacterPosture@fbxsdk_20100@@@fbxsdk_20100@@QAE@XZ
	??1?$KFbxTypedProperty@W4kCharacterPosture@fbxsdk_20100@@@fbxsdk_20100@@QAE@XZ
	??0?$KFbxTypedProperty@W4kCharacterOffAutoUser@fbxsdk_20100@@@fbxsdk_20100@@QAE@XZ
	??1?$KFbxTypedProperty@W4kCharacterOffAutoUser@fbxsdk_20100@@@fbxsdk_20100@@QAE@XZ
	??0?$KFbxTypedProperty@V?$fbxVectorTemplate3@N@fbxsdk_20100@@@fbxsdk_20100@@QAE@XZ
	??1?$KFbxTypedProperty@V?$fbxVectorTemplate3@N@fbxsdk_20100@@@fbxsdk_20100@@QAE@XZ
	??0?$KFbxTypedProperty@W4kCharacterRollExtractionMode@fbxsdk_20100@@@fbxsdk_20100@@QAE@XZ
	??1?$KFbxTypedProperty@W4kCharacterRollExtractionMode@fbxsdk_20100@@@fbxsdk_20100@@QAE@XZ
	??0?$KFbxTypedProperty@W4kCharacterContactBehaviour@fbxsdk_20100@@@fbxsdk_20100@@QAE@XZ
	??1?$KFbxTypedProperty@W4kCharacterContactBehaviour@fbxsdk_20100@@@fbxsdk_20100@@QAE@XZ
	??0?$KFbxTypedProperty@W4kCharacterFloorPivot@fbxsdk_20100@@@fbxsdk_20100@@QAE@XZ
	??1?$KFbxTypedProperty@W4kCharacterFloorPivot@fbxsdk_20100@@@fbxsdk_20100@@QAE@XZ
	??0?$KFbxTypedProperty@W4kCharacterFootContactType@fbxsdk_20100@@@fbxsdk_20100@@QAE@XZ
	??1?$KFbxTypedProperty@W4kCharacterFootContactType@fbxsdk_20100@@@fbxsdk_20100@@QAE@XZ
	??0?$KFbxTypedProperty@W4kCharacterFingerContactMode@fbxsdk_20100@@@fbxsdk_20100@@QAE@XZ
	??1?$KFbxTypedProperty@W4kCharacterFingerContactMode@fbxsdk_20100@@@fbxsdk_20100@@QAE@XZ
	??0?$KFbxTypedProperty@W4kCharacterHandContactType@fbxsdk_20100@@@fbxsdk_20100@@QAE@XZ
	??1?$KFbxTypedProperty@W4kCharacterHandContactType@fbxsdk_20100@@@fbxsdk_20100@@QAE@XZ
	??0?$KFbxTypedProperty@W4kCharacterHipsTranslationMode@fbxsdk_20100@@@fbxsdk_20100@@QAE@XZ
	??1?$KFbxTypedProperty@W4kCharacterHipsTranslationMode@fbxsdk_20100@@@fbxsdk_20100@@QAE@XZ
	??0?$KFbxTypedProperty@W4kCharacterAutoUser@fbxsdk_20100@@@fbxsdk_20100@@QAE@XZ
	??1?$KFbxTypedProperty@W4kCharacterAutoUser@fbxsdk_20100@@@fbxsdk_20100@@QAE@XZ
	??4?$KFbxTypedProperty@_N@fbxsdk_20100@@QAEAAV01@ABV01@@Z
	??4?$KFbxTypedProperty@N@fbxsdk_20100@@QAEAAV01@ABV01@@Z
	??4?$KFbxTypedProperty@H@fbxsdk_20100@@QAEAAV01@ABV01@@Z
	??4?$KFbxTypedProperty@W4kCharacterPosture@fbxsdk_20100@@@fbxsdk_20100@@QAEAAV01@ABV01@@Z
	??4?$KFbxTypedProperty@W4kCharacterOffAutoUser@fbxsdk_20100@@@fbxsdk_20100@@QAEAAV01@ABV01@@Z
	??4?$KFbxTypedProperty@V?$fbxVectorTemplate3@N@fbxsdk_20100@@@fbxsdk_20100@@QAEAAV01@ABV01@@Z
	??4?$KFbxTypedProperty@W4kCharacterRollExtractionMode@fbxsdk_20100@@@fbxsdk_20100@@QAEAAV01@ABV01@@Z
	??4?$KFbxTypedProperty@W4kCharacterContactBehaviour@fbxsdk_20100@@@fbxsdk_20100@@QAEAAV01@ABV01@@Z
	??4?$KFbxTypedProperty@W4kCharacterFloorPivot@fbxsdk_20100@@@fbxsdk_20100@@QAEAAV01@ABV01@@Z
	??4?$KFbxTypedProperty@W4kCharacterFootContactType@fbxsdk_20100@@@fbxsdk_20100@@QAEAAV01@ABV01@@Z
	??4?$KFbxTypedProperty@W4kCharacterFingerContactMode@fbxsdk_20100@@@fbxsdk_20100@@QAEAAV01@ABV01@@Z
	??4?$KFbxTypedProperty@W4kCharacterHandContactType@fbxsdk_20100@@@fbxsdk_20100@@QAEAAV01@ABV01@@Z
	??4?$KFbxTypedProperty@W4kCharacterHipsTranslationMode@fbxsdk_20100@@@fbxsdk_20100@@QAEAAV01@ABV01@@Z
	??4?$KFbxTypedProperty@W4kCharacterAutoUser@fbxsdk_20100@@@fbxsdk_20100@@QAEAAV01@ABV01@@Z
	??1KStringListItem@fbxsdk_20100@@QAE@XZ
	?Clear@?$KBaseArray@V?$KBaseArraySizeType@PAVKStringListItem@fbxsdk_20100@@@fbxsdk_20100@@@fbxsdk_20100@@QAEXXZ
	??0?$KFbxTypedProperty@_N@fbxsdk_20100@@QAE@ABVKFbxProperty@1@@Z
	??0?$KFbxTypedProperty@N@fbxsdk_20100@@QAE@ABVKFbxProperty@1@@Z
	??0?$KFbxTypedProperty@H@fbxsdk_20100@@QAE@ABVKFbxProperty@1@@Z
	??0?$KFbxTypedProperty@W4kCharacterPosture@fbxsdk_20100@@@fbxsdk_20100@@QAE@ABVKFbxProperty@1@@Z
	??0?$KFbxTypedProperty@W4kCharacterOffAutoUser@fbxsdk_20100@@@fbxsdk_20100@@QAE@ABVKFbxProperty@1@@Z
	??0?$KFbxTypedProperty@V?$fbxVectorTemplate3@N@fbxsdk_20100@@@fbxsdk_20100@@QAE@ABVKFbxProperty@1@@Z
	??0?$KFbxTypedProperty@W4kCharacterRollExtractionMode@fbxsdk_20100@@@fbxsdk_20100@@QAE@ABVKFbxProperty@1@@Z
	??0?$KFbxTypedProperty@W4kCharacterContactBehaviour@fbxsdk_20100@@@fbxsdk_20100@@QAE@ABVKFbxProperty@1@@Z
	??0?$KFbxTypedProperty@W4kCharacterFloorPivot@fbxsdk_20100@@@fbxsdk_20100@@QAE@ABVKFbxProperty@1@@Z
	??0?$KFbxTypedProperty@W4kCharacterFootContactType@fbxsdk_20100@@@fbxsdk_20100@@QAE@ABVKFbxProperty@1@@Z
	??0?$KFbxTypedProperty@W4kCharacterFingerContactMode@fbxsdk_20100@@@fbxsdk_20100@@QAE@ABVKFbxProperty@1@@Z
	??0?$KFbxTypedProperty@W4kCharacterHandContactType@fbxsdk_20100@@@fbxsdk_20100@@QAE@ABVKFbxProperty@1@@Z
	??0?$KFbxTypedProperty@W4kCharacterHipsTranslationMode@fbxsdk_20100@@@fbxsdk_20100@@QAE@ABVKFbxProperty@1@@Z
	??0?$KFbxTypedProperty@W4kCharacterAutoUser@fbxsdk_20100@@@fbxsdk_20100@@QAE@ABVKFbxProperty@1@@Z
	??1?$KBaseArray@V?$KBaseArraySizeType@PAVKStringListItem@fbxsdk_20100@@@fbxsdk_20100@@@fbxsdk_20100@@IAE@XZ
	?GetHeaderOffset@?$KBaseArray@V?$KBaseArraySizeType@PAVKStringListItem@fbxsdk_20100@@@fbxsdk_20100@@@fbxsdk_20100@@IBEHXZ
	?Clear@?$KBaseArray@V?$KBaseArraySizeType@PAVKFbxTakeNode@fbxsdk_20100@@@fbxsdk_20100@@@fbxsdk_20100@@QAEXXZ
	?Clear@?$KBaseArray@V?$KBaseArraySizeType@PAVKFbxDefaultTakeCallback@fbxsdk_20100@@@fbxsdk_20100@@@fbxsdk_20100@@QAEXXZ
	?GetHeader@?$KBaseArray@V?$KBaseArraySizeType@PAVKStringListItem@fbxsdk_20100@@@fbxsdk_20100@@@fbxsdk_20100@@IBEQAUKHeader@12@XZ
	??$KFbxCast@VKFbxCharacter@fbxsdk_20100@@@fbxsdk_20100@@YAPAVKFbxCharacter@0@PAVKFbxPlug@0@@Z
	??$GetSrcIfObject@VKFbxCharacter@fbxsdk_20100@@@KFbxConnectEvent@fbxsdk_20100@@QBEPAVKFbxCharacter@1@PBV21@@Z
	??$KFbxSet@_N@fbxsdk_20100@@YA_NAAVKFbxProperty@0@AB_N_N@Z
	??$KFbxSet@N@fbxsdk_20100@@YA_NAAVKFbxProperty@0@ABN_N@Z
	??$KFbxSet@H@fbxsdk_20100@@YA_NAAVKFbxProperty@0@ABH_N@Z
	??$KFbxSet@W4kCharacterPosture@fbxsdk_20100@@@fbxsdk_20100@@YA_NAAVKFbxProperty@0@ABW4kCharacterPosture@0@_N@Z
	??$KFbxSet@W4kCharacterOffAutoUser@fbxsdk_20100@@@fbxsdk_20100@@YA_NAAVKFbxProperty@0@ABW4kCharacterOffAutoUser@0@_N@Z
	??$KFbxSet@V?$fbxVectorTemplate3@N@fbxsdk_20100@@@fbxsdk_20100@@YA_NAAVKFbxProperty@0@ABV?$fbxVectorTemplate3@N@0@_N@Z
	??$KFbxSet@W4kCharacterRollExtractionMode@fbxsdk_20100@@@fbxsdk_20100@@YA_NAAVKFbxProperty@0@ABW4kCharacterRollExtractionMode@0@_N@Z
	??$KFbxSet@W4kCharacterContactBehaviour@fbxsdk_20100@@@fbxsdk_20100@@YA_NAAVKFbxProperty@0@ABW4kCharacterContactBehaviour@0@_N@Z
	??$KFbxSet@W4kCharacterFloorPivot@fbxsdk_20100@@@fbxsdk_20100@@YA_NAAVKFbxProperty@0@ABW4kCharacterFloorPivot@0@_N@Z
	??$KFbxSet@W4kCharacterFootContactType@fbxsdk_20100@@@fbxsdk_20100@@YA_NAAVKFbxProperty@0@ABW4kCharacterFootContactType@0@_N@Z
	??$KFbxSet@W4kCharacterFingerContactMode@fbxsdk_20100@@@fbxsdk_20100@@YA_NAAVKFbxProperty@0@ABW4kCharacterFingerContactMode@0@_N@Z
	??$KFbxSet@W4kCharacterHandContactType@fbxsdk_20100@@@fbxsdk_20100@@YA_NAAVKFbxProperty@0@ABW4kCharacterHandContactType@0@_N@Z
	??$KFbxSet@W4kCharacterHipsTranslationMode@fbxsdk_20100@@@fbxsdk_20100@@YA_NAAVKFbxProperty@0@ABW4kCharacterHipsTranslationMode@0@_N@Z
	??$KFbxSet@W4kCharacterAutoUser@fbxsdk_20100@@@fbxsdk_20100@@YA_NAAVKFbxProperty@0@ABW4kCharacterAutoUser@0@_N@Z
	??$KFbxCast@VKFbxControlSetPlug@fbxsdk_20100@@@fbxsdk_20100@@YAPAVKFbxControlSetPlug@0@PAVKFbxPlug@0@@Z
	??$KFbxCast@VKFbxNode@fbxsdk_20100@@@fbxsdk_20100@@YAPAVKFbxNode@0@PAVKFbxPlug@0@@Z
	?StaticInit@?$KFbxTypedProperty@PAVfbxReference@fbxsdk_20100@@@fbxsdk_20100@@QAEABVKFbxProperty@2@PAVKFbxObject@2@PBDABVKFbxDataType@2@W4eFbxPropertyFlags@FbxPropertyFlags@2@@Z
	?TypedClone@KFbxCharacter@fbxsdk_20100@@QBEPAV12@PAVKFbxObject@2@W4ECloneType@32@@Z
	??0KFbxCharacterLink@fbxsdk_20100@@QAE@XZ
	??0KFbxCharacterLink@fbxsdk_20100@@QAE@ABV01@@Z
	?Destruct@KFbxCharacter@fbxsdk_20100@@UAEX_N0@Z
	??4KFbxCharacter@fbxsdk_20100@@IAEAAV01@ABV01@@Z
	?Clone@KFbxCharacter@fbxsdk_20100@@UBEPAVKFbxObject@2@PAV32@W4ECloneType@32@@Z
	?StaticInit@?$KFbxTypedProperty@_N@fbxsdk_20100@@QAEABVKFbxProperty@2@PAVKFbxObject@2@PBDW4eFbxPropertyFlags@FbxPropertyFlags@2@@Z
	??1?$KArrayTemplate@PAVKStringListItem@fbxsdk_20100@@@fbxsdk_20100@@QAE@XZ
	??A?$KArrayTemplate@PAVKStringListItem@fbxsdk_20100@@@fbxsdk_20100@@QBEAAPAVKStringListItem@1@H@Z
	??1?$KBaseArray@V?$KBaseArraySizeType@PAVKFbxTakeNode@fbxsdk_20100@@@fbxsdk_20100@@@fbxsdk_20100@@IAE@XZ
	??1?$KBaseArray@V?$KBaseArraySizeType@PAVKFbxDefaultTakeCallback@fbxsdk_20100@@@fbxsdk_20100@@@fbxsdk_20100@@IAE@XZ
	?Set@?$KFbxTypedProperty@_N@fbxsdk_20100@@QAE_NAB_N_N@Z
	?Set@?$KFbxTypedProperty@N@fbxsdk_20100@@QAE_NABN_N@Z
	?Set@?$KFbxTypedProperty@H@fbxsdk_20100@@QAE_NABH_N@Z
	?Set@?$KFbxTypedProperty@W4kCharacterPosture@fbxsdk_20100@@@fbxsdk_20100@@QAE_NABW4kCharacterPosture@2@_N@Z
	?Set@?$KFbxTypedProperty@W4kCharacterOffAutoUser@fbxsdk_20100@@@fbxsdk_20100@@QAE_NABW4kCharacterOffAutoUser@2@_N@Z
	?Set@?$KFbxTypedProperty@V?$fbxVectorTemplate3@N@fbxsdk_20100@@@fbxsdk_20100@@QAE_NABV?$fbxVectorTemplate3@N@2@_N@Z
	?Set@?$KFbxTypedProperty@W4kCharacterRollExtractionMode@fbxsdk_20100@@@fbxsdk_20100@@QAE_NABW4kCharacterRollExtractionMode@2@_N@Z
	?Set@?$KFbxTypedProperty@W4kCharacterContactBehaviour@fbxsdk_20100@@@fbxsdk_20100@@QAE_NABW4kCharacterContactBehaviour@2@_N@Z
	?Set@?$KFbxTypedProperty@W4kCharacterFloorPivot@fbxsdk_20100@@@fbxsdk_20100@@QAE_NABW4kCharacterFloorPivot@2@_N@Z
	?Set@?$KFbxTypedProperty@W4kCharacterFootContactType@fbxsdk_20100@@@fbxsdk_20100@@QAE_NABW4kCharacterFootContactType@2@_N@Z
	?Set@?$KFbxTypedProperty@W4kCharacterFingerContactMode@fbxsdk_20100@@@fbxsdk_20100@@QAE_NABW4kCharacterFingerContactMode@2@_N@Z
	?Set@?$KFbxTypedProperty@W4kCharacterHandContactType@fbxsdk_20100@@@fbxsdk_20100@@QAE_NABW4kCharacterHandContactType@2@_N@Z
	?Set@?$KFbxTypedProperty@W4kCharacterHipsTranslationMode@fbxsdk_20100@@@fbxsdk_20100@@QAE_NABW4kCharacterHipsTranslationMode@2@_N@Z
	?Set@?$KFbxTypedProperty@W4kCharacterAutoUser@fbxsdk_20100@@@fbxsdk_20100@@QAE_NABW4kCharacterAutoUser@2@_N@Z
	?GetArrayCount@?$KBaseArray@V?$KBaseArraySizeType@PAVKStringListItem@fbxsdk_20100@@@fbxsdk_20100@@@fbxsdk_20100@@IBEHXZ
	??$GetSrcIfObject@VKFbxControlSetPlug@fbxsdk_20100@@@KFbxConnectEvent@fbxsdk_20100@@QBEPAVKFbxControlSetPlug@1@PBV21@@Z
	??$GetSrcIfObject@VKFbxNode@fbxsdk_20100@@@KFbxConnectEvent@fbxsdk_20100@@QBEPAVKFbxNode@1@PBV21@@Z
	?ConnecNotify@KFbxCharacter@fbxsdk_20100@@UAE_NABVKFbxConnectEvent@2@@Z
	??1?$KArrayTemplate@PAVKFbxTakeNode@fbxsdk_20100@@@fbxsdk_20100@@QAE@XZ
	??1?$KArrayTemplate@PAVKFbxDefaultTakeCallback@fbxsdk_20100@@@fbxsdk_20100@@QAE@XZ
	?StaticInit@?$KFbxTypedProperty@_N@fbxsdk_20100@@QAEABVKFbxProperty@2@PAVKFbxObject@2@PBDAB_N_NW4eFbxPropertyFlags@FbxPropertyFlags@2@@Z
	?StaticInit@?$KFbxTypedProperty@_N@fbxsdk_20100@@QAEABVKFbxProperty@2@PAVKFbxObject@2@PBDABVKFbxDataType@2@AB_N_NW4eFbxPropertyFlags@FbxPropertyFlags@2@@Z
	?StaticInit@?$KFbxTypedProperty@N@fbxsdk_20100@@QAEABVKFbxProperty@2@PAVKFbxObject@2@PBDABN_NW4eFbxPropertyFlags@FbxPropertyFlags@2@@Z
	?StaticInit@?$KFbxTypedProperty@H@fbxsdk_20100@@QAEABVKFbxProperty@2@PAVKFbxObject@2@PBDABH_NW4eFbxPropertyFlags@FbxPropertyFlags@2@@Z
	?StaticInit@?$KFbxTypedProperty@W4kCharacterPosture@fbxsdk_20100@@@fbxsdk_20100@@QAEABVKFbxProperty@2@PAVKFbxObject@2@PBDABVKFbxDataType@2@ABW4kCharacterPosture@2@_NW4eFbxPropertyFlags@FbxPropertyFlags@2@@Z
	?StaticInit@?$KFbxTypedProperty@W4kCharacterOffAutoUser@fbxsdk_20100@@@fbxsdk_20100@@QAEABVKFbxProperty@2@PAVKFbxObject@2@PBDABVKFbxDataType@2@ABW4kCharacterOffAutoUser@2@_NW4eFbxPropertyFlags@FbxPropertyFlags@2@@Z
	?StaticInit@?$KFbxTypedProperty@V?$fbxVectorTemplate3@N@fbxsdk_20100@@@fbxsdk_20100@@QAEABVKFbxProperty@2@PAVKFbxObject@2@PBDABV?$fbxVectorTemplate3@N@2@_NW4eFbxPropertyFlags@FbxPropertyFlags@2@@Z
	?StaticInit@?$KFbxTypedProperty@W4kCharacterRollExtractionMode@fbxsdk_20100@@@fbxsdk_20100@@QAEABVKFbxProperty@2@PAVKFbxObject@2@PBDABVKFbxDataType@2@ABW4kCharacterRollExtractionMode@2@_NW4eFbxPropertyFlags@FbxPropertyFlags@2@@Z
	?StaticInit@?$KFbxTypedProperty@W4kCharacterContactBehaviour@fbxsdk_20100@@@fbxsdk_20100@@QAEABVKFbxProperty@2@PAVKFbxObject@2@PBDABVKFbxDataType@2@ABW4kCharacterContactBehaviour@2@_NW4eFbxPropertyFlags@FbxPropertyFlags@2@@Z
	?StaticInit@?$KFbxTypedProperty@W4kCharacterFloorPivot@fbxsdk_20100@@@fbxsdk_20100@@QAEABVKFbxProperty@2@PAVKFbxObject@2@PBDABVKFbxDataType@2@ABW4kCharacterFloorPivot@2@_NW4eFbxPropertyFlags@FbxPropertyFlags@2@@Z
	?StaticInit@?$KFbxTypedProperty@W4kCharacterFootContactType@fbxsdk_20100@@@fbxsdk_20100@@QAEABVKFbxProperty@2@PAVKFbxObject@2@PBDABVKFbxDataType@2@ABW4kCharacterFootContactType@2@_NW4eFbxPropertyFlags@FbxPropertyFlags@2@@Z
	?StaticInit@?$KFbxTypedProperty@W4kCharacterFingerContactMode@fbxsdk_20100@@@fbxsdk_20100@@QAEABVKFbxProperty@2@PAVKFbxObject@2@PBDABVKFbxDataType@2@ABW4kCharacterFingerContactMode@2@_NW4eFbxPropertyFlags@FbxPropertyFlags@2@@Z
	?StaticInit@?$KFbxTypedProperty@W4kCharacterHandContactType@fbxsdk_20100@@@fbxsdk_20100@@QAEABVKFbxProperty@2@PAVKFbxObject@2@PBDABVKFbxDataType@2@ABW4kCharacterHandContactType@2@_NW4eFbxPropertyFlags@FbxPropertyFlags@2@@Z
	?StaticInit@?$KFbxTypedProperty@W4kCharacterHipsTranslationMode@fbxsdk_20100@@@fbxsdk_20100@@QAEABVKFbxProperty@2@PAVKFbxObject@2@PBDABVKFbxDataType@2@ABW4kCharacterHipsTranslationMode@2@_NW4eFbxPropertyFlags@FbxPropertyFlags@2@@Z
	?StaticInit@?$KFbxTypedProperty@W4kCharacterAutoUser@fbxsdk_20100@@@fbxsdk_20100@@QAEABVKFbxProperty@2@PAVKFbxObject@2@PBDABVKFbxDataType@2@ABW4kCharacterAutoUser@2@_NW4eFbxPropertyFlags@FbxPropertyFlags@2@@Z
	?GetCount@?$KBaseArray@V?$KBaseArraySizeType@PAVKStringListItem@fbxsdk_20100@@@fbxsdk_20100@@@fbxsdk_20100@@QBEHXZ
	??1KFbxTakeNodeContainer@fbxsdk_20100@@UAE@XZ
	??_7KFbxTakeNodeContainer@fbxsdk_20100@@6B@
	??_R4KFbxTakeNodeContainer@fbxsdk_20100@@6B@
	??_R0?AVKFbxTakeNodeContainer@fbxsdk_20100@@@8
	??_R3KFbxTakeNodeContainer@fbxsdk_20100@@8
	??_R2KFbxTakeNodeContainer@fbxsdk_20100@@8
	??_R1A@?0A@EA@KFbxTakeNodeContainer@fbxsdk_20100@@8
	?GetClassId@KFbxTakeNodeContainer@fbxsdk_20100@@UBE?AVkFbxClassId@2@XZ
	??_GKFbxTakeNodeContainer@fbxsdk_20100@@UAEPAXI@Z
	??1KFbxConstraint@fbxsdk_20100@@UAE@XZ
	??_7KFbxConstraint@fbxsdk_20100@@6B@
	??_R4KFbxConstraint@fbxsdk_20100@@6B@
	??_R0?AVKFbxConstraint@fbxsdk_20100@@@8
	??_R3KFbxConstraint@fbxsdk_20100@@8
	??_R2KFbxConstraint@fbxsdk_20100@@8
	??_R1A@?0A@EA@KFbxConstraint@fbxsdk_20100@@8
	?GetClassId@KFbxConstraint@fbxsdk_20100@@UBE?AVkFbxClassId@2@XZ
	?GetConstraintType@KFbxConstraint@fbxsdk_20100@@UAE?AW4EConstraintType@12@XZ
	??_GKFbxConstraint@fbxsdk_20100@@UAEPAXI@Z
	??0KFbxCharacter@fbxsdk_20100@@QAE@AAVKFbxSdkManager@1@PBD@Z
	??_7KFbxCharacter@fbxsdk_20100@@6B@
	??_R4KFbxCharacter@fbxsdk_20100@@6B@
	??_R0?AVKFbxCharacter@fbxsdk_20100@@@8
	??_R3KFbxCharacter@fbxsdk_20100@@8
	??_R2KFbxCharacter@fbxsdk_20100@@8
	??_R1A@?0A@EA@KFbxCharacter@fbxsdk_20100@@8
	?GetClassId@KFbxCharacter@fbxsdk_20100@@UBE?AVkFbxClassId@2@XZ
	??1KFbxCharacter@fbxsdk_20100@@UAE@XZ
	??_GKFbxCharacter@fbxsdk_20100@@UAEPAXI@Z
	?Construct@KFbxCharacter@fbxsdk_20100@@UAEXPBV12@@Z
	?Add@?$KStringListTemplate@VKStringListItem@fbxsdk_20100@@@fbxsdk_20100@@QAEHPADI@Z
	?Clear@?$KStringListTemplate@VKStringListItem@fbxsdk_20100@@@fbxsdk_20100@@UAEXXZ
	??1?$KStringListTemplate@VKStringListItem@fbxsdk_20100@@@fbxsdk_20100@@UAE@XZ
	??_7?$KStringListTemplate@VKStringListItem@fbxsdk_20100@@@fbxsdk_20100@@6B@
	??_R4?$KStringListTemplate@VKStringListItem@fbxsdk_20100@@@fbxsdk_20100@@6B@
	??_R0?AV?$KStringListTemplate@VKStringListItem@fbxsdk_20100@@@fbxsdk_20100@@@8
	??_R3?$KStringListTemplate@VKStringListItem@fbxsdk_20100@@@fbxsdk_20100@@8
	??_R2?$KStringListTemplate@VKStringListItem@fbxsdk_20100@@@fbxsdk_20100@@8
	??_R1A@?0A@EA@?$KStringListTemplate@VKStringListItem@fbxsdk_20100@@@fbxsdk_20100@@8
	?Buffer@KString@fbxsdk_20100@@QAEPADXZ
	??0KStringListItem@fbxsdk_20100@@QAE@PBDI@Z
	?GetBlockCount@?$KBaseArray@V?$KBaseArraySizeType@PAVKStringListItem@fbxsdk_20100@@@fbxsdk_20100@@@fbxsdk_20100@@IBEHXZ
	?GetHeader@?$KBaseArray@V?$KBaseArraySizeType@PAVKStringListItem@fbxsdk_20100@@@fbxsdk_20100@@@fbxsdk_20100@@IAEPAUKHeader@12@XZ
	?GetTypeSize@?$KBaseArraySizeType@PAVKStringListItem@fbxsdk_20100@@@fbxsdk_20100@@QBEHXZ
	?GetAt@?$KArrayTemplate@PAVKStringListItem@fbxsdk_20100@@@fbxsdk_20100@@QBEPAVKStringListItem@2@H@Z
	?GetTypeSize@?$KBaseArray@V?$KBaseArraySizeType@PAVKStringListItem@fbxsdk_20100@@@fbxsdk_20100@@@fbxsdk_20100@@QBEHXZ
	?SetArrayCount@?$KBaseArray@V?$KBaseArraySizeType@PAVKStringListItem@fbxsdk_20100@@@fbxsdk_20100@@@fbxsdk_20100@@IAEXH@Z
	?SetBlockCount@?$KBaseArray@V?$KBaseArraySizeType@PAVKStringListItem@fbxsdk_20100@@@fbxsdk_20100@@@fbxsdk_20100@@IAEXH@Z
	?InsertAt@?$KBaseArray@V?$KBaseArraySizeType@PAVKStringListItem@fbxsdk_20100@@@fbxsdk_20100@@@fbxsdk_20100@@IAEHHPAX@Z
	?RemoveAt@?$KBaseArray@V?$KBaseArraySizeType@PAVKStringListItem@fbxsdk_20100@@@fbxsdk_20100@@@fbxsdk_20100@@IAEXH@Z
	?SetStringAt@?$KStringListTemplate@VKStringListItem@fbxsdk_20100@@@fbxsdk_20100@@UAE_NHPAD@Z
	?GetText@?$KStringListTemplate@VKStringListItem@fbxsdk_20100@@@fbxsdk_20100@@UAEXAAVKString@2@@Z
	?SetText@?$KStringListTemplate@VKStringListItem@fbxsdk_20100@@@fbxsdk_20100@@UAEHPAD@Z
	?InsertAt@?$KArrayTemplate@PAVKStringListItem@fbxsdk_20100@@@fbxsdk_20100@@QAEHHPAVKStringListItem@2@@Z
	?RemoveAt@?$KArrayTemplate@PAVKStringListItem@fbxsdk_20100@@@fbxsdk_20100@@QAEPAVKStringListItem@2@H@Z
	?InsertAt@?$KStringListTemplate@VKStringListItem@fbxsdk_20100@@@fbxsdk_20100@@UAEHHPADI@Z
	?RemoveAt@?$KStringListTemplate@VKStringListItem@fbxsdk_20100@@@fbxsdk_20100@@UAEXH@Z
	??_G?$KStringListTemplate@VKStringListItem@fbxsdk_20100@@@fbxsdk_20100@@UAEPAXI@Z
	??1KStringList@fbxsdk_20100@@UAE@XZ
	?GetTypeFlags@KFbxCharacter@fbxsdk_20100@@UBE?AVKStringList@2@XZ
	?smMutex@?$KFbxEvent@VKFbxObjectPropertyChanged@fbxsdk_20100@@@kfbxevents@fbxsdk_20100@@0VKFbxMutex@kfbxmp@3@A
	?ClassId@KFbxCharacter@fbxsdk_20100@@2VkFbxClassId@2@A
	??$KFbxGetSrcCount@VKFbxGeometry@fbxsdk_20100@@@fbxsdk_20100@@YAHPBVKFbxObject@0@PBVKFbxGeometry@0@@Z
	??$KFbxGetSrc@VKFbxGeometry@fbxsdk_20100@@@fbxsdk_20100@@YAPAVKFbxGeometry@0@PBVKFbxObject@0@H@Z
	??$KFbxGetSrcCount@VKFbxVideo@fbxsdk_20100@@@fbxsdk_20100@@YAHPBVKFbxObject@0@PBVKFbxVideo@0@@Z
	??$KFbxGetSrc@VKFbxVideo@fbxsdk_20100@@@fbxsdk_20100@@YAPAVKFbxVideo@0@PBVKFbxObject@0@H@Z
	??$KFbxGetSrcCount@VKFbxTakeNodeContainer@fbxsdk_20100@@@fbxsdk_20100@@YAHPBVKFbxObject@0@PBVKFbxTakeNodeContainer@0@@Z
	??$KFbxGetSrc@VKFbxTakeNodeContainer@fbxsdk_20100@@@fbxsdk_20100@@YAPAVKFbxTakeNodeContainer@0@PBVKFbxObject@0@H@Z
	??$KFbxGetSrcCount@VKFbxGenericNode@fbxsdk_20100@@@fbxsdk_20100@@YAHPBVKFbxObject@0@PBVKFbxGenericNode@0@@Z
	??$KFbxGetSrc@VKFbxGenericNode@fbxsdk_20100@@@fbxsdk_20100@@YAPAVKFbxGenericNode@0@PBVKFbxObject@0@H@Z
	??$KFbxFindSrc@VKFbxGenericNode@fbxsdk_20100@@@fbxsdk_20100@@YAPAVKFbxGenericNode@0@PBVKFbxObject@0@PBDH@Z
	??$KFbxGetSrcCount@VKFbxCharacter@fbxsdk_20100@@@fbxsdk_20100@@YAHPBVKFbxObject@0@PBVKFbxCharacter@0@@Z
	??$KFbxGetSrc@VKFbxCharacter@fbxsdk_20100@@@fbxsdk_20100@@YAPAVKFbxCharacter@0@PBVKFbxObject@0@H@Z
	??$KFbxGetSrcCount@VKFbxControlSetPlug@fbxsdk_20100@@@fbxsdk_20100@@YAHPBVKFbxObject@0@PBVKFbxControlSetPlug@0@@Z
	??$KFbxGetSrc@VKFbxControlSetPlug@fbxsdk_20100@@@fbxsdk_20100@@YAPAVKFbxControlSetPlug@0@PBVKFbxObject@0@H@Z
	??$KFbxGetSrcCount@VKFbxCharacterPose@fbxsdk_20100@@@fbxsdk_20100@@YAHPBVKFbxObject@0@PBVKFbxCharacterPose@0@@Z
	??$KFbxGetSrc@VKFbxCharacterPose@fbxsdk_20100@@@fbxsdk_20100@@YAPAVKFbxCharacterPose@0@PBVKFbxObject@0@H@Z
	??$KFbxGetSrcCount@VKFbxPose@fbxsdk_20100@@@fbxsdk_20100@@YAHPBVKFbxObject@0@PBVKFbxPose@0@@Z
	??$KFbxGetSrc@VKFbxPose@fbxsdk_20100@@@fbxsdk_20100@@YAPAVKFbxPose@0@PBVKFbxObject@0@H@Z
	??$KFbxGetSrcCount@VKFbxNurbsSurface@fbxsdk_20100@@@fbxsdk_20100@@YAHPBVKFbxObject@0@PBVKFbxNurbsSurface@0@@Z
	??$KFbxGetSrc@VKFbxNurbsSurface@fbxsdk_20100@@@fbxsdk_20100@@YAPAVKFbxNurbsSurface@0@PBVKFbxObject@0@H@Z
	??$InsertAt@H@KFbxLayerElementArray@fbxsdk_20100@@QAEHHABH@Z
	??$SetAt@H@KFbxLayerElementArray@fbxsdk_20100@@QAEXHABH@Z
	??$GetAt@H@KFbxLayerElementArray@fbxsdk_20100@@QBE_NHPAH@Z
	?GetHeaderOffset@?$KBaseArray@V?$KBaseArraySizeType@PAVKFbxTakeInfo@fbxsdk_20100@@@fbxsdk_20100@@@fbxsdk_20100@@IBEHXZ
	?GetHeader@?$KBaseArray@V?$KBaseArraySizeType@PAVKFbxTakeInfo@fbxsdk_20100@@@fbxsdk_20100@@@fbxsdk_20100@@IBEQAUKHeader@12@XZ
	??$GetDstObjectCount@VKFbxNode@fbxsdk_20100@@@KFbxProperty@fbxsdk_20100@@QBEHPBVKFbxNode@1@@Z
	??$GetDstObject@VKFbxNode@fbxsdk_20100@@@KFbxProperty@fbxsdk_20100@@QBEPAVKFbxNode@1@PBV21@H@Z
	??$_FbxTypeOf@VKFbxSurfaceMaterial@fbxsdk_20100@@@fbxsdk_20100@@YA?AW4EFbxType@0@ABQAVKFbxSurfaceMaterial@0@@Z
	??$_FbxTypeOf@VKFbxTexture@fbxsdk_20100@@@fbxsdk_20100@@YA?AW4EFbxType@0@ABQAVKFbxTexture@0@@Z
	??0KFbxIteratorSrcBase@fbxsdk_20100@@QAE@PAVKFbxObject@1@VkFbxClassId@1@@Z
	?GetFirst@KFbxIteratorSrcBase@fbxsdk_20100@@QAEPAVKFbxObject@2@XZ
	?TypedClone@KFbxScene@fbxsdk_20100@@QBEPAV12@PAVKFbxObject@2@W4ECloneType@32@@Z
	?Construct@KFbxScene@fbxsdk_20100@@EAEXPBV12@@Z
	?GetMaterialCount@KFbxScene@fbxsdk_20100@@QAEHXZ
	?GetMaterial@KFbxScene@fbxsdk_20100@@QAEPAVKFbxSurfaceMaterial@2@H@Z
	?GetMaterial@KFbxScene@fbxsdk_20100@@QAEPAVKFbxSurfaceMaterial@2@PAD@Z
	?GetTextureCount@KFbxScene@fbxsdk_20100@@QAEHXZ
	?GetTexture@KFbxScene@fbxsdk_20100@@QAEPAVKFbxTexture@2@H@Z
	?GetTexture@KFbxScene@fbxsdk_20100@@QAEPAVKFbxTexture@2@PAD@Z
	?GetNodeCount@KFbxScene@fbxsdk_20100@@QAEHXZ
	?GetNode@KFbxScene@fbxsdk_20100@@QAEPAVKFbxNode@2@H@Z
	?GetGeometryCount@KFbxScene@fbxsdk_20100@@QAEHXZ
	?GetGeometry@KFbxScene@fbxsdk_20100@@QAEPAVKFbxGeometry@2@H@Z
	?GetVideoCount@KFbxScene@fbxsdk_20100@@QAEHXZ
	?GetVideo@KFbxScene@fbxsdk_20100@@QAEPAVKFbxVideo@2@H@Z
	?GetTakeNodeContainerCount@KFbxScene@fbxsdk_20100@@QAEHXZ
	?GetTakeNodeContainer@KFbxScene@fbxsdk_20100@@QAEPAVKFbxTakeNodeContainer@2@H@Z
	?GetGenericNodeCount@KFbxScene@fbxsdk_20100@@QAEHXZ
	?GetGenericNode@KFbxScene@fbxsdk_20100@@QAEPAVKFbxGenericNode@2@H@Z
	?GetGenericNode@KFbxScene@fbxsdk_20100@@QAEPAVKFbxGenericNode@2@PAD@Z
	?GetCharacterCount@KFbxScene@fbxsdk_20100@@QAEHXZ
	?GetCharacter@KFbxScene@fbxsdk_20100@@QAEPAVKFbxCharacter@2@H@Z
	?CreateCharacter@KFbxScene@fbxsdk_20100@@QAEHPAD@Z
	?DestroyCharacter@KFbxScene@fbxsdk_20100@@QAEXH@Z
	?GetControlSetPlugCount@KFbxScene@fbxsdk_20100@@QAEHXZ
	?GetControlSetPlug@KFbxScene@fbxsdk_20100@@QAEPAVKFbxControlSetPlug@2@H@Z
	?CreateControlSetPlug@KFbxScene@fbxsdk_20100@@QAEHPAD@Z
	?DestroyControlSetPlug@KFbxScene@fbxsdk_20100@@QAEXH@Z
	?GetCharacterPoseCount@KFbxScene@fbxsdk_20100@@QAEHXZ
	?GetCharacterPose@KFbxScene@fbxsdk_20100@@QAEPAVKFbxCharacterPose@2@H@Z
	?CreateCharacterPose@KFbxScene@fbxsdk_20100@@QAEHPAD@Z
	?DestroyCharacterPose@KFbxScene@fbxsdk_20100@@QAEXH@Z
	?GetPoseCount@KFbxScene@fbxsdk_20100@@QAEHXZ
	?GetPose@KFbxScene@fbxsdk_20100@@QAEPAVKFbxPose@2@H@Z
	?RemovePose@KFbxScene@fbxsdk_20100@@QAE_NH@Z
	?GetCurveOnSurfaceCount@KFbxScene@fbxsdk_20100@@QAEHXZ
	?FindNodeByName@KFbxScene@fbxsdk_20100@@QAEPAVKFbxNode@2@ABVKString@2@@Z
	??1?$KFbxIteratorSrc@VKFbxNode@fbxsdk_20100@@@fbxsdk_20100@@QAE@XZ
	?DecreaseTimeWarpSetReferencesAndUpdate@fbxsdk_20100@@YAXAAVKCharPtrSet@1@@Z
	?InsertAt@?$KFbxLayerElementArrayTemplate@H@fbxsdk_20100@@QAEHHABH@Z
	?SetAt@?$KFbxLayerElementArrayTemplate@H@fbxsdk_20100@@QAEXHABH@Z
	?GetAt@?$KFbxLayerElementArrayTemplate@H@fbxsdk_20100@@QBEHH@Z
	??A?$KArrayTemplate@H@fbxsdk_20100@@QBEAAHH@Z
	??0?$KFbxIteratorSrc@VKFbxNode@fbxsdk_20100@@@fbxsdk_20100@@QAE@PAVKFbxObject@1@@Z
	?GetFirst@?$KFbxIteratorSrc@VKFbxNode@fbxsdk_20100@@@fbxsdk_20100@@QAEPAVKFbxNode@2@XZ
	??1?$KBaseArray@V?$KBaseArraySizeType@H@fbxsdk_20100@@@fbxsdk_20100@@IAE@XZ
	?GetTypeSize@?$KBaseArray@V?$KBaseArraySizeType@H@fbxsdk_20100@@@fbxsdk_20100@@QBEHXZ
	?GetArrayCount@?$KBaseArray@V?$KBaseArraySizeType@H@fbxsdk_20100@@@fbxsdk_20100@@IBEHXZ
	?SetArrayCount@?$KBaseArray@V?$KBaseArraySizeType@H@fbxsdk_20100@@@fbxsdk_20100@@IAEXH@Z
	?GetBlockCount@?$KBaseArray@V?$KBaseArraySizeType@H@fbxsdk_20100@@@fbxsdk_20100@@IBEHXZ
	?SetBlockCount@?$KBaseArray@V?$KBaseArraySizeType@H@fbxsdk_20100@@@fbxsdk_20100@@IAEXH@Z
	?GetArray@?$KArrayTemplate@PAVKFbxNode@fbxsdk_20100@@@fbxsdk_20100@@QBEPAPAVKFbxNode@2@XZ
	?GetTypeSize@?$KBaseArray@V?$KBaseArraySizeType@PAVKFbxNode@fbxsdk_20100@@@fbxsdk_20100@@@fbxsdk_20100@@QBEHXZ
	?GetArrayCount@?$KBaseArray@V?$KBaseArraySizeType@PAVKFbxNode@fbxsdk_20100@@@fbxsdk_20100@@@fbxsdk_20100@@IBEHXZ
	?SetArrayCount@?$KBaseArray@V?$KBaseArraySizeType@PAVKFbxNode@fbxsdk_20100@@@fbxsdk_20100@@@fbxsdk_20100@@IAEXH@Z
	?GetBlockCount@?$KBaseArray@V?$KBaseArraySizeType@PAVKFbxNode@fbxsdk_20100@@@fbxsdk_20100@@@fbxsdk_20100@@IBEHXZ
	?SetBlockCount@?$KBaseArray@V?$KBaseArraySizeType@PAVKFbxNode@fbxsdk_20100@@@fbxsdk_20100@@@fbxsdk_20100@@IAEXH@Z
	?GetArray@?$KArrayTemplate@PAVKFbxTexture@fbxsdk_20100@@@fbxsdk_20100@@QBEPAPAVKFbxTexture@2@XZ
	?GetTypeSize@?$KBaseArray@V?$KBaseArraySizeType@PAVKFbxTexture@fbxsdk_20100@@@fbxsdk_20100@@@fbxsdk_20100@@QBEHXZ
	?GetArrayCount@?$KBaseArray@V?$KBaseArraySizeType@PAVKFbxTexture@fbxsdk_20100@@@fbxsdk_20100@@@fbxsdk_20100@@IBEHXZ
	?SetArrayCount@?$KBaseArray@V?$KBaseArraySizeType@PAVKFbxTexture@fbxsdk_20100@@@fbxsdk_20100@@@fbxsdk_20100@@IAEXH@Z
	?GetBlockCount@?$KBaseArray@V?$KBaseArraySizeType@PAVKFbxTexture@fbxsdk_20100@@@fbxsdk_20100@@@fbxsdk_20100@@IBEHXZ
	?SetBlockCount@?$KBaseArray@V?$KBaseArraySizeType@PAVKFbxTexture@fbxsdk_20100@@@fbxsdk_20100@@@fbxsdk_20100@@IAEXH@Z
	?GetArray@?$KArrayTemplate@PAVKFbxSurfaceMaterial@fbxsdk_20100@@@fbxsdk_20100@@QBEPAPAVKFbxSurfaceMaterial@2@XZ
	?GetTypeSize@?$KBaseArray@V?$KBaseArraySizeType@PAVKFbxSurfaceMaterial@fbxsdk_20100@@@fbxsdk_20100@@@fbxsdk_20100@@QBEHXZ
	?GetArrayCount@?$KBaseArray@V?$KBaseArraySizeType@PAVKFbxSurfaceMaterial@fbxsdk_20100@@@fbxsdk_20100@@@fbxsdk_20100@@IBEHXZ
	?SetArrayCount@?$KBaseArray@V?$KBaseArraySizeType@PAVKFbxSurfaceMaterial@fbxsdk_20100@@@fbxsdk_20100@@@fbxsdk_20100@@IAEXH@Z
	?GetBlockCount@?$KBaseArray@V?$KBaseArraySizeType@PAVKFbxSurfaceMaterial@fbxsdk_20100@@@fbxsdk_20100@@@fbxsdk_20100@@IBEHXZ
	?SetBlockCount@?$KBaseArray@V?$KBaseArraySizeType@PAVKFbxSurfaceMaterial@fbxsdk_20100@@@fbxsdk_20100@@@fbxsdk_20100@@IAEXH@Z
	??1?$KBaseArray@V?$KBaseArraySizeType@PAVKFbxTakeInfo@fbxsdk_20100@@@fbxsdk_20100@@@fbxsdk_20100@@IAE@XZ
	?GetArray@?$KArrayTemplate@PAVKFbxPose@fbxsdk_20100@@@fbxsdk_20100@@QBEPAPAVKFbxPose@2@XZ
	?GetTypeSize@?$KBaseArray@V?$KBaseArraySizeType@PAVKFbxPose@fbxsdk_20100@@@fbxsdk_20100@@@fbxsdk_20100@@QBEHXZ
	?GetArrayCount@?$KBaseArray@V?$KBaseArraySizeType@PAVKFbxPose@fbxsdk_20100@@@fbxsdk_20100@@@fbxsdk_20100@@IBEHXZ
	?SetArrayCount@?$KBaseArray@V?$KBaseArraySizeType@PAVKFbxPose@fbxsdk_20100@@@fbxsdk_20100@@@fbxsdk_20100@@IAEXH@Z
	?GetBlockCount@?$KBaseArray@V?$KBaseArraySizeType@PAVKFbxPose@fbxsdk_20100@@@fbxsdk_20100@@@fbxsdk_20100@@IBEHXZ
	?SetBlockCount@?$KBaseArray@V?$KBaseArraySizeType@PAVKFbxPose@fbxsdk_20100@@@fbxsdk_20100@@@fbxsdk_20100@@IAEXH@Z
	?InsertAt@?$KBaseArray@V?$KBaseArraySizeType@PAVKFbxNode@fbxsdk_20100@@@fbxsdk_20100@@@fbxsdk_20100@@IAEHHPAX@Z
	??$GetDstObjectCount@VKFbxNode@fbxsdk_20100@@@KFbxObject@fbxsdk_20100@@QBEHPBVKFbxNode@1@@Z
	??$GetDstObject@VKFbxNode@fbxsdk_20100@@@KFbxObject@fbxsdk_20100@@QBEPAVKFbxNode@1@PBV21@H@Z
	??$Add@PAVKFbxSurfaceMaterial@fbxsdk_20100@@@KFbxLayerElementArray@fbxsdk_20100@@QAEHABQAVKFbxSurfaceMaterial@1@@Z
	??$Find@PAVKFbxSurfaceMaterial@fbxsdk_20100@@@KFbxLayerElementArray@fbxsdk_20100@@QBEHABQAVKFbxSurfaceMaterial@1@@Z
	??$Add@PAVKFbxTexture@fbxsdk_20100@@@KFbxLayerElementArray@fbxsdk_20100@@QAEHABQAVKFbxTexture@1@@Z
	??$GetAt@PAVKFbxTexture@fbxsdk_20100@@@KFbxLayerElementArray@fbxsdk_20100@@QBE_NHPAPAVKFbxTexture@1@@Z
	??$Find@PAVKFbxTexture@fbxsdk_20100@@@KFbxLayerElementArray@fbxsdk_20100@@QBEHABQAVKFbxTexture@1@@Z
	??A?$KArrayTemplate@PAVKFbxTakeInfo@fbxsdk_20100@@@fbxsdk_20100@@QBEAAPAVKFbxTakeInfo@1@H@Z
	?GetArrayCount@?$KBaseArray@V?$KBaseArraySizeType@PAVKFbxTakeInfo@fbxsdk_20100@@@fbxsdk_20100@@@fbxsdk_20100@@IBEHXZ
	?ConvertNurbsSurfaceToNurb@KFbxScene@fbxsdk_20100@@QAEXXZ
	?ConvertMeshNormals@KFbxScene@fbxsdk_20100@@QAEXXZ
	?ConvertNurbCurvesToNulls@KFbxScene@fbxsdk_20100@@QAEXXZ
	??4KFbxScene@fbxsdk_20100@@AAEAAV01@ABV01@@Z
	?Add@?$KFbxLayerElementArrayTemplate@PAVKFbxSurfaceMaterial@fbxsdk_20100@@@fbxsdk_20100@@QAEHABQAVKFbxSurfaceMaterial@2@@Z
	?Find@?$KFbxLayerElementArrayTemplate@PAVKFbxSurfaceMaterial@fbxsdk_20100@@@fbxsdk_20100@@QAEHABQAVKFbxSurfaceMaterial@2@@Z
	??0?$KArrayTemplate@H@fbxsdk_20100@@QAE@XZ
	??1?$KArrayTemplate@H@fbxsdk_20100@@QAE@XZ
	?Resize@?$KBaseArray@V?$KBaseArraySizeType@H@fbxsdk_20100@@@fbxsdk_20100@@QAEXH@Z
	?SetAt@?$KArrayTemplate@PAVKFbxNode@fbxsdk_20100@@@fbxsdk_20100@@QAEXHPAVKFbxNode@2@@Z
	?Resize@?$KBaseArray@V?$KBaseArraySizeType@PAVKFbxNode@fbxsdk_20100@@@fbxsdk_20100@@@fbxsdk_20100@@QAEXH@Z
	?SetAt@?$KArrayTemplate@PAVKFbxTexture@fbxsdk_20100@@@fbxsdk_20100@@QAEXHPAVKFbxTexture@2@@Z
	?Resize@?$KBaseArray@V?$KBaseArraySizeType@PAVKFbxTexture@fbxsdk_20100@@@fbxsdk_20100@@@fbxsdk_20100@@QAEXH@Z
	?SetAt@?$KArrayTemplate@PAVKFbxSurfaceMaterial@fbxsdk_20100@@@fbxsdk_20100@@QAEXHPAVKFbxSurfaceMaterial@2@@Z
	?Resize@?$KBaseArray@V?$KBaseArraySizeType@PAVKFbxSurfaceMaterial@fbxsdk_20100@@@fbxsdk_20100@@@fbxsdk_20100@@QAEXH@Z
	??1?$KArrayTemplate@PAVKFbxTakeInfo@fbxsdk_20100@@@fbxsdk_20100@@QAE@XZ
	?Add@?$KFbxLayerElementArrayTemplate@PAVKFbxTexture@fbxsdk_20100@@@fbxsdk_20100@@QAEHABQAVKFbxTexture@2@@Z
	?GetAt@?$KFbxLayerElementArrayTemplate@PAVKFbxTexture@fbxsdk_20100@@@fbxsdk_20100@@QBEPAVKFbxTexture@2@H@Z
	?Find@?$KFbxLayerElementArrayTemplate@PAVKFbxTexture@fbxsdk_20100@@@fbxsdk_20100@@QAEHABQAVKFbxTexture@2@@Z
	?SetAt@?$KArrayTemplate@PAVKFbxPose@fbxsdk_20100@@@fbxsdk_20100@@QAEXHPAVKFbxPose@2@@Z
	?Resize@?$KBaseArray@V?$KBaseArraySizeType@PAVKFbxPose@fbxsdk_20100@@@fbxsdk_20100@@@fbxsdk_20100@@QAEXH@Z
	?InsertAt@?$KBaseArray@V?$KBaseArraySizeType@H@fbxsdk_20100@@@fbxsdk_20100@@IAEHHPAX@Z
	?InsertAt@?$KArrayTemplate@PAVKFbxNode@fbxsdk_20100@@@fbxsdk_20100@@QAEHHPAVKFbxNode@2@@Z
	?GetCount@?$KBaseArray@V?$KBaseArraySizeType@PAVKFbxTakeInfo@fbxsdk_20100@@@fbxsdk_20100@@@fbxsdk_20100@@QBEHXZ
	??1KFbxDocument@fbxsdk_20100@@UAE@XZ
	??_7KFbxDocument@fbxsdk_20100@@6B@
	??_R4KFbxDocument@fbxsdk_20100@@6B@
	??_R0?AVKFbxDocument@fbxsdk_20100@@@8
	??_R3KFbxDocument@fbxsdk_20100@@8
	??_R2KFbxDocument@fbxsdk_20100@@8
	??_R1A@?0A@EA@KFbxDocument@fbxsdk_20100@@8
	?GetClassId@KFbxDocument@fbxsdk_20100@@UBE?AVkFbxClassId@2@XZ
	??_GKFbxDocument@fbxsdk_20100@@UAEPAXI@Z
	??0KFbxScene@fbxsdk_20100@@AAE@AAVKFbxSdkManager@1@PBD@Z
	??_7KFbxScene@fbxsdk_20100@@6B@
	??_R4KFbxScene@fbxsdk_20100@@6B@
	??_R0?AVKFbxScene@fbxsdk_20100@@@8
	??_R3KFbxScene@fbxsdk_20100@@8
	??_R2KFbxScene@fbxsdk_20100@@8
	??_R1A@?0A@EA@KFbxScene@fbxsdk_20100@@8
	?GetClassId@KFbxScene@fbxsdk_20100@@UBE?AVkFbxClassId@2@XZ
	??1KFbxScene@fbxsdk_20100@@UAE@XZ
	??_GKFbxScene@fbxsdk_20100@@UAEPAXI@Z
	?FillTextureArray@KFbxScene@fbxsdk_20100@@QAEXAAV?$KArrayTemplate@PAVKFbxTexture@fbxsdk_20100@@@2@@Z
	?FillMaterialArray@KFbxScene@fbxsdk_20100@@QAEXAAV?$KArrayTemplate@PAVKFbxSurfaceMaterial@fbxsdk_20100@@@2@@Z
	?ConnectMaterials@KFbxScene@fbxsdk_20100@@QAEXXZ
	?ReindexMaterialConnections@KFbxScene@fbxsdk_20100@@QAEXXZ
	?BuildMaterialLayersDirectArray@KFbxScene@fbxsdk_20100@@QAEXXZ
	?BuildTextureLayersDirectArrayForLayerType@KFbxScene@fbxsdk_20100@@AAEXPAVKFbxLayerContainer@2@W4ELayerElementType@KFbxLayerElement@2@@Z
	?FillNodeArray@KFbxScene@fbxsdk_20100@@QAEXAAV?$KArrayTemplate@PAVKFbxNode@fbxsdk_20100@@@2@@Z
	?FillPoseArray@KFbxScene@fbxsdk_20100@@QAEXAAV?$KArrayTemplate@PAVKFbxPose@fbxsdk_20100@@@2@@Z
	?Clone@KFbxScene@fbxsdk_20100@@UBEPAVKFbxObject@2@PAV32@W4ECloneType@32@@Z
	?InsertAt@?$KArrayTemplate@H@fbxsdk_20100@@QAEHHH@Z
	?Add@?$KArrayTemplate@PAVKFbxNode@fbxsdk_20100@@@fbxsdk_20100@@QAEHPAVKFbxNode@2@@Z
	??$DeleteAndClear@PAVKFbxTakeInfo@fbxsdk_20100@@@fbxsdk_20100@@YAXAAV?$KArrayTemplate@PAVKFbxTakeInfo@fbxsdk_20100@@@0@@Z
	?Destruct@KFbxScene@fbxsdk_20100@@EAEX_N0@Z
	?Clear@KFbxScene@fbxsdk_20100@@UAEXXZ
	?FillNodeArrayRecursive@KFbxScene@fbxsdk_20100@@AAEXAAV?$KArrayTemplate@PAVKFbxNode@fbxsdk_20100@@@2@W4EAttributeType@KFbxNodeAttribute@2@PAVKFbxNode@2@@Z
	?FillNodeArrayRecursive@KFbxScene@fbxsdk_20100@@AAEXAAV?$KArrayTemplate@PAVKFbxNode@fbxsdk_20100@@@2@VkFbxClassId@2@PAVKFbxNode@2@@Z
	?ConnectTextureLayerElement@KFbxScene@fbxsdk_20100@@AAEXPAVKFbxLayerContainer@2@W4ELayerElementType@KFbxLayerElement@2@PAVKFbxNode@2@@Z
	?BuildTextureLayersDirectArray@KFbxScene@fbxsdk_20100@@QAEXXZ
	?FillNodeArray@KFbxScene@fbxsdk_20100@@QAEXAAV?$KArrayTemplate@PAVKFbxNode@fbxsdk_20100@@@2@W4EAttributeType@KFbxNodeAttribute@2@_N@Z
	?FillNodeArray@KFbxScene@fbxsdk_20100@@QAEXAAV?$KArrayTemplate@PAVKFbxNode@fbxsdk_20100@@@2@VkFbxClassId@2@_N@Z
	?ConnectTextures@KFbxScene@fbxsdk_20100@@QAEXXZ
	?smMutex@?$KFbxEvent@VKFbxObjectPropertyChanged@fbxsdk_20100@@@kfbxevents@fbxsdk_20100@@0VKFbxMutex@kfbxmp@3@A
	?ClassId@KFbxScene@fbxsdk_20100@@2VkFbxClassId@2@A
	?Find@?$KArrayTemplate@PAVKFbxTexture@fbxsdk_20100@@@fbxsdk_20100@@QBEHPAVKFbxTexture@2@@Z
	?Find@?$KArrayTemplate@PAVKFbxSurfaceMaterial@fbxsdk_20100@@@fbxsdk_20100@@QBEHPAVKFbxSurfaceMaterial@2@@Z
	?Find@?$KArrayTemplate@PAVKFbxVideo@fbxsdk_20100@@@fbxsdk_20100@@QBEHPAVKFbxVideo@2@@Z
	?InsertAt@?$KArrayTemplate@PAVKFbxNode@fbxsdk_20100@@@fbxsdk_20100@@QAEHHPAVKFbxNode@2@@Z
	?InsertAt@?$KArrayTemplate@PAVKFbxTexture@fbxsdk_20100@@@fbxsdk_20100@@QAEHHPAVKFbxTexture@2@@Z
	?InsertAt@?$KArrayTemplate@PAVKFbxSurfaceMaterial@fbxsdk_20100@@@fbxsdk_20100@@QAEHHPAVKFbxSurfaceMaterial@2@@Z
	?InsertAt@?$KArrayTemplate@PAVKFbxVideo@fbxsdk_20100@@@fbxsdk_20100@@QAEHHPAVKFbxVideo@2@@Z
	?InsertAt@?$KArrayTemplate@PAVKFbxGenericNode@fbxsdk_20100@@@fbxsdk_20100@@QAEHHPAVKFbxGenericNode@2@@Z
	?Add@?$KArrayTemplate@PAVKFbxNode@fbxsdk_20100@@@fbxsdk_20100@@QAEHPAVKFbxNode@2@@Z
	?Add@?$KArrayTemplate@PAVKFbxTexture@fbxsdk_20100@@@fbxsdk_20100@@QAEHPAVKFbxTexture@2@@Z
	?Add@?$KArrayTemplate@PAVKFbxSurfaceMaterial@fbxsdk_20100@@@fbxsdk_20100@@QAEHPAVKFbxSurfaceMaterial@2@@Z
	?Add@?$KArrayTemplate@PAVKFbxVideo@fbxsdk_20100@@@fbxsdk_20100@@QAEHPAVKFbxVideo@2@@Z
	?Add@?$KArrayTemplate@PAVKFbxGenericNode@fbxsdk_20100@@@fbxsdk_20100@@QAEHPAVKFbxGenericNode@2@@Z
	?ApplyRecursive@KFbxNodeFinderDuplicateName@fbxsdk_20100@@MAEXAAVKFbxNode@2@@Z
	?CheckNodeName@KFbxNodeFinderDuplicateName@fbxsdk_20100@@IAE_NAAVKFbxNode@2@@Z
	?CheckMaterialName@KFbxNodeFinderDuplicateName@fbxsdk_20100@@IAE_NPAVKFbxGeometry@2@PAVKFbxNode@2@@Z
	?CheckLayerElementTextureName@KFbxNodeFinderDuplicateName@fbxsdk_20100@@IAE_NPAVKFbxLayerElementTexture@2@@Z
	?CheckLayerElementVideoName@KFbxNodeFinderDuplicateName@fbxsdk_20100@@IAE_NPAVKFbxLayerElementTexture@2@@Z
	?CheckGenericNodeName@KFbxNodeFinderDuplicateName@fbxsdk_20100@@IAE_NPAD@Z
	?CheckTextureName@KFbxNodeFinderDuplicateName@fbxsdk_20100@@IAE_NPAVKFbxGeometry@2@@Z
	?CheckVideoName@KFbxNodeFinderDuplicateName@fbxsdk_20100@@IAE_NPAVKFbxGeometry@2@@Z
	?CheckNode@KFbxNodeFinderDuplicateName@fbxsdk_20100@@MAE_NAAVKFbxNode@2@@Z
	?smMutex@?$KFbxEvent@VKFbxObjectPropertyChanged@fbxsdk_20100@@@kfbxevents@fbxsdk_20100@@0VKFbxMutex@kfbxmp@3@A
	?KgeMult@fbxsdk_20100@@YAAAVKgeTVector@1@AAV21@ABV21@N@Z
	?KgeMult@fbxsdk_20100@@YAAAVKgeTVector@1@AAV21@ABVKgeAMatrix@1@ABV21@@Z
	?KgeMult@fbxsdk_20100@@YAAAVKgeTVector@1@AAV21@ABVKgeRMatrix@1@ABV21@@Z
	?KgeConj@fbxsdk_20100@@YAAAVKgeQuaternion@1@AAV21@ABV21@@Z
	?KgeMult@fbxsdk_20100@@YAAAVKgeQuaternion@1@AAV21@ABV21@1@Z
	?KgeCompare@fbxsdk_20100@@YAHABVKgeAMatrix@1@0N@Z
	?KgeSet@fbxsdk_20100@@YAAAVKgeAMatrix@1@AAV21@ABV21@@Z
	?KgeSet@fbxsdk_20100@@YAAAVKgeRMatrix@1@AAV21@ABV21@@Z
	?KgeSet@fbxsdk_20100@@YAAAVKgeSMatrix@1@AAV21@ABV21@@Z
	?KgeInverse@fbxsdk_20100@@YAAAVKgeAMatrix@1@AAV21@ABV21@@Z
	?KgeInverse@fbxsdk_20100@@YAAAVKgeRMatrix@1@AAV21@ABV21@@Z
	?KgeMult@fbxsdk_20100@@YAAAVKgeMatrix@1@AAV21@ABV21@1@Z
	?KgeMult@fbxsdk_20100@@YAAAVKgeAMatrix@1@AAV21@ABV21@1@Z
	?KgeMult@fbxsdk_20100@@YAAAVKgeRMatrix@1@AAV21@ABV21@1@Z
	?KgeMult@fbxsdk_20100@@YAAAVKgeAMatrix@1@AAV21@ABV21@ABVKgeSVector@1@@Z
	?KgeMult@fbxsdk_20100@@YAAAVKgeAMatrix@1@AAV21@ABV21@ABVKgeTVector@1@@Z
	?KgeInvMult@fbxsdk_20100@@YAAAVKgeRMatrix@1@AAV21@ABV21@1@Z
	?KgeSet@fbxsdk_20100@@YAAAVKgeTVector@1@AAV21@ABVKgeTMatrix@1@@Z
	?KgeSet@fbxsdk_20100@@YAAAVKgeTVector@1@AAV21@ABVKgeAMatrix@1@@Z
	?KgeSet@fbxsdk_20100@@YAAAVKgeAMatrix@1@AAV21@ABVKgeTVector@1@@Z
	?KgeSet@fbxsdk_20100@@YAAAVKgeAMatrix@1@AAV21@ABVKgeTVector@1@ABVKgeRMatrix@1@ABVKgeSVector@1@@Z
	?KgeSet@fbxsdk_20100@@YAAAVKgeTMatrix@1@AAV21@ABVKgeTVector@1@@Z
	?KgeSet@fbxsdk_20100@@YAAAVKgeRMatrix@1@AAV21@ABVKgeQuaternion@1@@Z
	?KgeSet@fbxsdk_20100@@YAAAVKgeSMatrix@1@AAV21@ABVKgeSVector@1@@Z
	??0KgeTVector@fbxsdk_20100@@QAE@NNN@Z
	??0KgeTVector@fbxsdk_20100@@QAE@ABVKgeAMatrix@1@@Z
	??0KgeTVector@fbxsdk_20100@@QAE@ABVKgeTMatrix@1@@Z
	?Init@KgeTVector@fbxsdk_20100@@QAEAAV12@XZ
	??4KgeTVector@fbxsdk_20100@@QAEAAV01@QBN@Z
	??4KgeTVector@fbxsdk_20100@@QAEAAV01@ABV01@@Z
	??BKgeTVector@fbxsdk_20100@@QBEPBNXZ
	??0KgeRVector@fbxsdk_20100@@QAE@NNN@Z
	?Init@KgeRVector@fbxsdk_20100@@QAEAAV12@XZ
	??4KgeRVector@fbxsdk_20100@@QAEAAV01@QBN@Z
	??0KgeSVector@fbxsdk_20100@@QAE@ABVKgeSMatrix@1@@Z
	?Init@KgeSVector@fbxsdk_20100@@QAEAAV12@XZ
	??4KgeSVector@fbxsdk_20100@@QAEAAV01@QBN@Z
	??0KgeQuaternion@fbxsdk_20100@@QAE@NNNN@Z
	??0KgeQuaternion@fbxsdk_20100@@QAE@ABVKgeRMatrix@1@@Z
	??0KgeAMatrix@fbxsdk_20100@@QAE@ABVKgeTVector@1@@Z
	??0KgeAMatrix@fbxsdk_20100@@QAE@ABVKgeSVector@1@@Z
	?Init@KgeAMatrix@fbxsdk_20100@@QAEAAV12@XZ
	?Init@KgeTMatrix@fbxsdk_20100@@QAEAAV12@XZ
	??0KgeRMatrix@fbxsdk_20100@@QAE@ABV01@@Z
	?Init@KgeRMatrix@fbxsdk_20100@@QAEAAV12@XZ
	?Init@KgeSMatrix@fbxsdk_20100@@QAEAAV12@XZ
	?KgeUnitQuatToYDir@fbxsdk_20100@@YAXAAVKgeTVector@1@AAVKgeQuaternion@1@@Z
	?GetActive@KMBLimit@fbxsdk_20100@@QAE_NXZ
	?GetSomethingEnable@KMBLimit@fbxsdk_20100@@QAE_NXZ
	?GetXMinEnable@KMBLimit@fbxsdk_20100@@QAE_NXZ
	?GetYMinEnable@KMBLimit@fbxsdk_20100@@QAE_NXZ
	?GetZMinEnable@KMBLimit@fbxsdk_20100@@QAE_NXZ
	?GetXMaxEnable@KMBLimit@fbxsdk_20100@@QAE_NXZ
	?GetYMaxEnable@KMBLimit@fbxsdk_20100@@QAE_NXZ
	?GetZMaxEnable@KMBLimit@fbxsdk_20100@@QAE_NXZ
	?SetMin@KMBLimit@fbxsdk_20100@@QAEXNNN@Z
	?SetMax@KMBLimit@fbxsdk_20100@@QAEXNNN@Z
	??0KMBRotationOrder@fbxsdk_20100@@QAE@XZ
	?SetOrder@KMBRotationOrder@fbxsdk_20100@@QAEXH@Z
	?HasPreRM@KMBRotationSpace@fbxsdk_20100@@QAE_NXZ
	?HasPostRM@KMBRotationSpace@fbxsdk_20100@@QAE_NXZ
	?SetInheritType@KMBTransform@fbxsdk_20100@@QAEXW4kMBInheritType@2@@Z
	?HasROffset@KMBTransform@fbxsdk_20100@@QAE_NXZ
	?HasRPivot@KMBTransform@fbxsdk_20100@@QAE_NXZ
	?HasSOffset@KMBTransform@fbxsdk_20100@@QAE_NXZ
	?HasSPivot@KMBTransform@fbxsdk_20100@@QAE_NXZ
	?SetRotationSpaceForLimitOnly@KMBTransform@fbxsdk_20100@@QAEX_N@Z
	?SetROffset@KMBTransform@fbxsdk_20100@@QAEXAAVKgeTVector@2@@Z
	?SetRPivot@KMBTransform@fbxsdk_20100@@QAEXAAVKgeTVector@2@@Z
	?SetSOffset@KMBTransform@fbxsdk_20100@@QAEXAAVKgeTVector@2@@Z
	?SetSPivot@KMBTransform@fbxsdk_20100@@QAEXAAVKgeTVector@2@@Z
	?SumPivots@KMBTransform@fbxsdk_20100@@QAEXAAVKgeTVector@2@AAVKgeRMatrix@2@AAVKgeSMatrix@2@@Z
	?GTRSM2GX@KMBTransform@fbxsdk_20100@@QAEXAAVKgeAMatrix@2@AAVKgeTVector@2@AAVKgeRMatrix@2@AAVKgeSMatrix@2@@Z
	?GX2GXInv@KMBTransform@fbxsdk_20100@@QAEXAAVKgeAMatrix@2@0@Z
	?SetSrcRotateOrder@KFCurveFilterMatrixConverter@fbxsdk_20100@@QAEXH@Z
	?SetDestRotateOrder@KFCurveFilterMatrixConverter@fbxsdk_20100@@QAEXH@Z
	?SetForceApply@KFCurveFilterMatrixConverter@fbxsdk_20100@@QAEX_N@Z
	?GetRotationOffset@KFbxPivot@KFbxNode_internal@fbxsdk_20100@@QBEAAVKFbxVector4@3@XZ
	?SetRotationOffset@KFbxPivot@KFbxNode_internal@fbxsdk_20100@@QAEXABVKFbxVector4@3@@Z
	?GetRotationPivot@KFbxPivot@KFbxNode_internal@fbxsdk_20100@@QBEAAVKFbxVector4@3@XZ
	?SetRotationPivot@KFbxPivot@KFbxNode_internal@fbxsdk_20100@@QAEXABVKFbxVector4@3@@Z
	?GetPreRotation@KFbxPivot@KFbxNode_internal@fbxsdk_20100@@QBEAAVKFbxVector4@3@XZ
	?SetPreRotation@KFbxPivot@KFbxNode_internal@fbxsdk_20100@@QAEXABVKFbxVector4@3@@Z
	?GetPostRotation@KFbxPivot@KFbxNode_internal@fbxsdk_20100@@QBEAAVKFbxVector4@3@XZ
	?SetPostRotation@KFbxPivot@KFbxNode_internal@fbxsdk_20100@@QAEXABVKFbxVector4@3@@Z
	?GetScalingOffset@KFbxPivot@KFbxNode_internal@fbxsdk_20100@@QBEAAVKFbxVector4@3@XZ
	?SetScalingOffset@KFbxPivot@KFbxNode_internal@fbxsdk_20100@@QAEXABVKFbxVector4@3@@Z
	?GetScalingPivot@KFbxPivot@KFbxNode_internal@fbxsdk_20100@@QBEAAVKFbxVector4@3@XZ
	?SetScalingPivot@KFbxPivot@KFbxNode_internal@fbxsdk_20100@@QAEXABVKFbxVector4@3@@Z
	?GetGeometricTranslation@KFbxPivot@KFbxNode_internal@fbxsdk_20100@@QBEAAVKFbxVector4@3@XZ
	?SetGeometricTranslation@KFbxPivot@KFbxNode_internal@fbxsdk_20100@@QAEXABVKFbxVector4@3@@Z
	?GetGeometricRotation@KFbxPivot@KFbxNode_internal@fbxsdk_20100@@QBEAAVKFbxVector4@3@XZ
	?SetGeometricRotation@KFbxPivot@KFbxNode_internal@fbxsdk_20100@@QAEXABVKFbxVector4@3@@Z
	?GetGeometricScaling@KFbxPivot@KFbxNode_internal@fbxsdk_20100@@QBEAAVKFbxVector4@3@XZ
	?SetGeometricScaling@KFbxPivot@KFbxNode_internal@fbxsdk_20100@@QAEXABVKFbxVector4@3@@Z
	?GetRotationOrder@KFbxPivot@KFbxNode_internal@fbxsdk_20100@@QBE?AW4ERotationOrder@3@XZ
	?SetRotationOrder@KFbxPivot@KFbxNode_internal@fbxsdk_20100@@QAEXW4ERotationOrder@3@@Z
	?GetRotationSpaceForLimitOnly@KFbxPivot@KFbxNode_internal@fbxsdk_20100@@QBE_NXZ
	?SetRotationSpaceForLimitOnly@KFbxPivot@KFbxNode_internal@fbxsdk_20100@@QAEX_N@Z
	?GetQuaternionInterpolate@KFbxPivot@KFbxNode_internal@fbxsdk_20100@@QBE_NXZ
	?SetQuaternionInterpolate@KFbxPivot@KFbxNode_internal@fbxsdk_20100@@QAEX_N@Z
	?GetPivotState@KFbxPivot@KFbxNode_internal@fbxsdk_20100@@QBE?AW4EPivotState@KFbxNode@3@XZ
	?SetPivotState@KFbxPivot@KFbxNode_internal@fbxsdk_20100@@QAEXW4EPivotState@KFbxNode@3@@Z
	??0KFbxPivots@KFbxNode_internal@fbxsdk_20100@@QAE@XZ
	?GetRotationOffset@KFbxPivots@KFbxNode_internal@fbxsdk_20100@@QBEAAVKFbxVector4@3@H@Z
	?GetRotationPivot@KFbxPivots@KFbxNode_internal@fbxsdk_20100@@QBEAAVKFbxVector4@3@H@Z
	?GetPreRotation@KFbxPivots@KFbxNode_internal@fbxsdk_20100@@QBEAAVKFbxVector4@3@H@Z
	?GetPostRotation@KFbxPivots@KFbxNode_internal@fbxsdk_20100@@QBEAAVKFbxVector4@3@H@Z
	?GetScalingOffset@KFbxPivots@KFbxNode_internal@fbxsdk_20100@@QBEAAVKFbxVector4@3@H@Z
	?GetScalingPivot@KFbxPivots@KFbxNode_internal@fbxsdk_20100@@QBEAAVKFbxVector4@3@H@Z
	?GetGeometricTranslation@KFbxPivots@KFbxNode_internal@fbxsdk_20100@@QBEAAVKFbxVector4@3@H@Z
	?GetGeometricRotation@KFbxPivots@KFbxNode_internal@fbxsdk_20100@@QBEAAVKFbxVector4@3@H@Z
	?GetGeometricScaling@KFbxPivots@KFbxNode_internal@fbxsdk_20100@@QBEAAVKFbxVector4@3@H@Z
	?GetRotationSpaceForLimitOnly@KFbxPivots@KFbxNode_internal@fbxsdk_20100@@QBE_NH@Z
	?GetQuaternionInterpolate@KFbxPivots@KFbxNode_internal@fbxsdk_20100@@QBE_NH@Z
	?GetRotationOrder@KFbxPivots@KFbxNode_internal@fbxsdk_20100@@QBE?AW4ERotationOrder@3@H@Z
	?GetPivotState@KFbxPivots@KFbxNode_internal@fbxsdk_20100@@QBE?AW4EPivotState@KFbxNode@3@H@Z
	?SetPivotState@KFbxPivots@KFbxNode_internal@fbxsdk_20100@@QAEXHW4EPivotState@KFbxNode@3@@Z
	??1KFbxTRSCache@KFbxNode_internal@fbxsdk_20100@@QAE@XZ
	?Reset@KFbxTRSCache@KFbxNode_internal@fbxsdk_20100@@QAEXXZ
	??1KFbxState@KFbxNode_internal@fbxsdk_20100@@QAE@XZ
	?Reset@KFbxState@KFbxNode_internal@fbxsdk_20100@@QAEXXZ
	??8KFbxLinkToCharacter@KFbxNode_internal@fbxsdk_20100@@QAE_NAAV012@@Z
	??1KFbxNodeLimits@fbxsdk_20100@@QAE@XZ
	??9fbxsdk_20100@@YA_NABVKgeTVector@0@ABVKFbxVector4@0@@Z
	?Create@KFbxNode@fbxsdk_20100@@SAPAV12@PAVKFbxSdkManager@2@PBD@Z
	?Create@KFbxNode@fbxsdk_20100@@SAPAV12@PAVKFbxObject@2@PBD@Z
	?CreateForClone@KFbxNode@fbxsdk_20100@@SAPAV12@PAVKFbxSdkManager@2@PBDPBV12@@Z
	?RemoveChild@KFbxNode@fbxsdk_20100@@QAEPAV12@PAV12@@Z
	??1KFbxIteratorSrcBase@fbxsdk_20100@@QAE@XZ
	?SetTarget@KFbxNode@fbxsdk_20100@@QAEXPAV12@@Z
	?SetPostTargetRotation@KFbxNode@fbxsdk_20100@@QAEXVKFbxVector4@2@@Z
	?GetPostTargetRotation@KFbxNode@fbxsdk_20100@@QBE?AVKFbxVector4@2@XZ
	?SetTargetUp@KFbxNode@fbxsdk_20100@@QAEXPAV12@@Z
	?SetTargetUpVector@KFbxNode@fbxsdk_20100@@QAEXVKFbxVector4@2@@Z
	?GetTargetUpVector@KFbxNode@fbxsdk_20100@@QBE?AVKFbxVector4@2@XZ
	?SetShadingMode@KFbxNode@fbxsdk_20100@@QAEXW4EShadingMode@12@@Z
	?GetShadingMode@KFbxNode@fbxsdk_20100@@QBE?AW4EShadingMode@12@XZ
	?SetMultiLayer@KFbxNode@fbxsdk_20100@@QAEX_N@Z
	?GetMultiLayer@KFbxNode@fbxsdk_20100@@QBE_NXZ
	?SetMultiTakeMode@KFbxNode@fbxsdk_20100@@QAEXW4EMultiTakeMode@12@@Z
	?GetMultiTakeMode@KFbxNode@fbxsdk_20100@@QBE?AW4EMultiTakeMode@12@XZ
	?SetPivotState@KFbxNode@fbxsdk_20100@@QAEXW4EPivotSet@12@W4EPivotState@12@@Z
	?GetPivotState@KFbxNode@fbxsdk_20100@@QAEXW4EPivotSet@12@AAW4EPivotState@12@@Z
	?GetRotationOrder@KFbxNode@fbxsdk_20100@@QAEXW4EPivotSet@12@AAW4ERotationOrder@2@@Z
	?GetUseRotationSpaceForLimitOnly@KFbxNode@fbxsdk_20100@@QAE_NW4EPivotSet@12@@Z
	?GetUseQuaternionForInterpolation@KFbxNode@fbxsdk_20100@@QBE_NW4EPivotSet@12@@Z
	?GetRotationOffset@KFbxNode@fbxsdk_20100@@QBEAAVKFbxVector4@2@W4EPivotSet@12@@Z
	?GetRotationPivot@KFbxNode@fbxsdk_20100@@QBEAAVKFbxVector4@2@W4EPivotSet@12@@Z
	?GetPreRotation@KFbxNode@fbxsdk_20100@@QBEAAVKFbxVector4@2@W4EPivotSet@12@@Z
	?GetPostRotation@KFbxNode@fbxsdk_20100@@QBEAAVKFbxVector4@2@W4EPivotSet@12@@Z
	?GetScalingOffset@KFbxNode@fbxsdk_20100@@QBEAAVKFbxVector4@2@W4EPivotSet@12@@Z
	?GetScalingPivot@KFbxNode@fbxsdk_20100@@QBEAAVKFbxVector4@2@W4EPivotSet@12@@Z
	?GetGeometricTranslation@KFbxNode@fbxsdk_20100@@QBE?AVKFbxVector4@2@W4EPivotSet@12@@Z
	?GetGeometricRotation@KFbxNode@fbxsdk_20100@@QAE?AVKFbxVector4@2@W4EPivotSet@12@@Z
	?GetGeometricScaling@KFbxNode@fbxsdk_20100@@QAE?AVKFbxVector4@2@W4EPivotSet@12@@Z
	??1KFCurveFilter@fbxsdk_20100@@QAE@XZ
	??1?$KFbxIterator@VKFbxProperty@fbxsdk_20100@@@fbxsdk_20100@@QAE@XZ
	?GetError@KFbxNode@fbxsdk_20100@@QAEAAVKError@2@XZ
	?GetLastErrorID@KFbxNode@fbxsdk_20100@@QBE?AW4EError@12@XZ
	?GetLastErrorString@KFbxNode@fbxsdk_20100@@QBEPBDXZ
	?GetGlobalState@KFbxNode@fbxsdk_20100@@QAEAAVKFbxXMatrix@2@XZ
	?GetGlobalStateId@KFbxNode@fbxsdk_20100@@QAEIXZ
	?GetLocalStateId@KFbxNode@fbxsdk_20100@@QAEIXZ
	?GetLimits@KFbxNode@fbxsdk_20100@@QAEAAVKFbxNodeLimits@2@XZ
	?SetCurrentTakeNode@KFbxNode@fbxsdk_20100@@UAE_NPAD@Z
	?SetCurrentTakeNode@KFbxNode@fbxsdk_20100@@UAE_NH@Z
	?GetMBTransform@KFbxNode@fbxsdk_20100@@IAEPAVKMBTransform@2@XZ
	?PropertyNotify@KFbxNode@fbxsdk_20100@@UAE_NW4eFbxPropertyNotify@KFbxObject@2@PAVKFbxProperty@2@@Z
	?RemoveMaterial@KFbxNode@fbxsdk_20100@@QAE_NPAVKFbxSurfaceMaterial@2@@Z
	??0?$fbxVectorTemplate3@N@fbxsdk_20100@@QAE@NNN@Z
	??1?$fbxVectorTemplate3@N@fbxsdk_20100@@QAE@XZ
	??A?$fbxVectorTemplate3@N@fbxsdk_20100@@QAEAANH@Z
	??4?$fbxVectorTemplate3@N@fbxsdk_20100@@QAEAAV01@ABV01@@Z
	??8?$fbxVectorTemplate3@N@fbxsdk_20100@@QBE_NABV01@@Z
	??B?$fbxVectorTemplate3@N@fbxsdk_20100@@QAEPANXZ
	??A?$fbxVectorTemplate4@N@fbxsdk_20100@@QAEAANH@Z
	??B?$fbxVectorTemplate4@N@fbxsdk_20100@@QBEAAV?$fbxVectorTemplate3@N@1@XZ
	??A?$fbxVectorTemplate4@V?$fbxVectorTemplate4@N@fbxsdk_20100@@@fbxsdk_20100@@QAEAAV?$fbxVectorTemplate4@N@1@H@Z
	??0?$KFbxTypedProperty@V?$fbxVectorTemplate3@N@fbxsdk_20100@@@fbxsdk_20100@@QAE@XZ
	??1?$KFbxTypedProperty@V?$fbxVectorTemplate3@N@fbxsdk_20100@@@fbxsdk_20100@@QAE@XZ
	??0?$KFbxTypedProperty@VKFbxXMatrix@fbxsdk_20100@@@fbxsdk_20100@@QAE@XZ
	??1?$KFbxTypedProperty@VKFbxXMatrix@fbxsdk_20100@@@fbxsdk_20100@@QAE@XZ
	??0?$KFbxTypedProperty@N@fbxsdk_20100@@QAE@XZ
	??1?$KFbxTypedProperty@N@fbxsdk_20100@@QAE@XZ
	??0?$KFbxTypedProperty@_N@fbxsdk_20100@@QAE@XZ
	??1?$KFbxTypedProperty@_N@fbxsdk_20100@@QAE@XZ
	??0?$KFbxTypedProperty@W4ERotationOrder@fbxsdk_20100@@@fbxsdk_20100@@QAE@XZ
	??1?$KFbxTypedProperty@W4ERotationOrder@fbxsdk_20100@@@fbxsdk_20100@@QAE@XZ
	??0?$KFbxTypedProperty@W4ETransformInheritType@fbxsdk_20100@@@fbxsdk_20100@@QAE@XZ
	??1?$KFbxTypedProperty@W4ETransformInheritType@fbxsdk_20100@@@fbxsdk_20100@@QAE@XZ
	??0?$KFbxTypedProperty@H@fbxsdk_20100@@QAE@XZ
	??1?$KFbxTypedProperty@H@fbxsdk_20100@@QAE@XZ
	?Clear@?$KBaseArray@V?$KBaseArraySizeType@PAVKString@fbxsdk_20100@@@fbxsdk_20100@@@fbxsdk_20100@@QAEXXZ
	?GetNext@?$KFbxIteratorSrc@VKFbxNode@fbxsdk_20100@@@fbxsdk_20100@@QAEPAVKFbxNode@2@XZ
	??0?$KFbxIterator@VKFbxProperty@fbxsdk_20100@@@fbxsdk_20100@@QAE@PBVKFbxObject@1@@Z
	?GetFirst@?$KFbxIterator@VKFbxProperty@fbxsdk_20100@@@fbxsdk_20100@@QAEABVKFbxProperty@2@XZ
	?GetNext@?$KFbxIterator@VKFbxProperty@fbxsdk_20100@@@fbxsdk_20100@@QAEABVKFbxProperty@2@XZ
	??4?$KFbxTypedProperty@V?$fbxVectorTemplate3@N@fbxsdk_20100@@@fbxsdk_20100@@QAEAAV01@ABV01@@Z
	??4?$KFbxTypedProperty@N@fbxsdk_20100@@QAEAAV01@ABV01@@Z
	??4?$KFbxTypedProperty@_N@fbxsdk_20100@@QAEAAV01@ABV01@@Z
	??4?$KFbxTypedProperty@W4ERotationOrder@fbxsdk_20100@@@fbxsdk_20100@@QAEAAV01@ABV01@@Z
	??4?$KFbxTypedProperty@W4ETransformInheritType@fbxsdk_20100@@@fbxsdk_20100@@QAEAAV01@ABV01@@Z
	??4?$KFbxTypedProperty@H@fbxsdk_20100@@QAEAAV01@ABV01@@Z
	??1KStringListItem@fbxsdk_20100@@QAE@XZ
	?Clear@?$KBaseArray@V?$KBaseArraySizeType@PAVKStringListItem@fbxsdk_20100@@@fbxsdk_20100@@@fbxsdk_20100@@QAEXXZ
	??4?$fbxVectorTemplate3@N@fbxsdk_20100@@QAEAAV01@H@Z
	??0?$KFbxTypedProperty@V?$fbxVectorTemplate3@N@fbxsdk_20100@@@fbxsdk_20100@@QAE@ABVKFbxProperty@1@@Z
	??0?$KFbxTypedProperty@N@fbxsdk_20100@@QAE@ABVKFbxProperty@1@@Z
	??0?$KFbxTypedProperty@_N@fbxsdk_20100@@QAE@ABVKFbxProperty@1@@Z
	??0?$KFbxTypedProperty@W4ERotationOrder@fbxsdk_20100@@@fbxsdk_20100@@QAE@ABVKFbxProperty@1@@Z
	??0?$KFbxTypedProperty@W4ETransformInheritType@fbxsdk_20100@@@fbxsdk_20100@@QAE@ABVKFbxProperty@1@@Z
	??0?$KFbxTypedProperty@H@fbxsdk_20100@@QAE@ABVKFbxProperty@1@@Z
	??0?$KBaseArray@V?$KBaseArraySizeType@PAVKString@fbxsdk_20100@@@fbxsdk_20100@@@fbxsdk_20100@@IAE@V?$KBaseArraySizeType@PAVKString@fbxsdk_20100@@@1@@Z
	??1?$KBaseArray@V?$KBaseArraySizeType@PAVKString@fbxsdk_20100@@@fbxsdk_20100@@@fbxsdk_20100@@IAE@XZ
	?GetHeaderOffset@?$KBaseArray@V?$KBaseArraySizeType@PAVKString@fbxsdk_20100@@@fbxsdk_20100@@@fbxsdk_20100@@IBEHXZ
	??0?$KBaseArray@V?$KBaseArraySizeType@H@fbxsdk_20100@@@fbxsdk_20100@@IAE@V?$KBaseArraySizeType@H@1@@Z
	?GetHeaderOffset@?$KBaseArray@V?$KBaseArraySizeType@H@fbxsdk_20100@@@fbxsdk_20100@@IBEHXZ
	??0?$KBaseArray@V?$KBaseArraySizeType@VKFbxLinkToCharacter@KFbxNode_internal@fbxsdk_20100@@@fbxsdk_20100@@@fbxsdk_20100@@IAE@V?$KBaseArraySizeType@VKFbxLinkToCharacter@KFbxNode_internal@fbxsdk_20100@@@1@@Z
	?GetHeaderOffset@?$KBaseArray@V?$KBaseArraySizeType@VKFbxLinkToCharacter@KFbxNode_internal@fbxsdk_20100@@@fbxsdk_20100@@@fbxsdk_20100@@IBEHXZ
	??0?$KBaseArray@V?$KBaseArraySizeType@PAVKFbxPose@fbxsdk_20100@@@fbxsdk_20100@@@fbxsdk_20100@@IAE@V?$KBaseArraySizeType@PAVKFbxPose@fbxsdk_20100@@@1@@Z
	?GetHeaderOffset@?$KBaseArray@V?$KBaseArraySizeType@PAVKFbxPose@fbxsdk_20100@@@fbxsdk_20100@@@fbxsdk_20100@@IBEHXZ
	??1?$KBaseArray@V?$KBaseArraySizeType@PAVKStringListItem@fbxsdk_20100@@@fbxsdk_20100@@@fbxsdk_20100@@IAE@XZ
	?GetHeaderOffset@?$KBaseArray@V?$KBaseArraySizeType@PAVKStringListItem@fbxsdk_20100@@@fbxsdk_20100@@@fbxsdk_20100@@IBEHXZ
	?Clear@?$KBaseArray@V?$KBaseArraySizeType@PAVKFbxTakeNode@fbxsdk_20100@@@fbxsdk_20100@@@fbxsdk_20100@@QAEXXZ
	?Clear@?$KBaseArray@V?$KBaseArraySizeType@PAVKFbxDefaultTakeCallback@fbxsdk_20100@@@fbxsdk_20100@@@fbxsdk_20100@@QAEXXZ
	?GetHeader@?$KBaseArray@V?$KBaseArraySizeType@PAVKString@fbxsdk_20100@@@fbxsdk_20100@@@fbxsdk_20100@@IBEQAUKHeader@12@XZ
	?GetHeader@?$KBaseArray@V?$KBaseArraySizeType@PAVKString@fbxsdk_20100@@@fbxsdk_20100@@@fbxsdk_20100@@IAEPAUKHeader@12@XZ
	?GetTypeSize@?$KBaseArraySizeType@PAVKString@fbxsdk_20100@@@fbxsdk_20100@@QBEHXZ
	?Clear@?$KBaseArray@V?$KBaseArraySizeType@H@fbxsdk_20100@@@fbxsdk_20100@@QAEXXZ
	?Clear@?$KBaseArray@V?$KBaseArraySizeType@VKFbxLinkToCharacter@KFbxNode_internal@fbxsdk_20100@@@fbxsdk_20100@@@fbxsdk_20100@@QAEXXZ
	?GetHeader@?$KBaseArray@V?$KBaseArraySizeType@VKFbxLinkToCharacter@KFbxNode_internal@fbxsdk_20100@@@fbxsdk_20100@@@fbxsdk_20100@@IBEQAUKHeader@12@XZ
	?Clear@?$KBaseArray@V?$KBaseArraySizeType@PAVKFbxPose@fbxsdk_20100@@@fbxsdk_20100@@@fbxsdk_20100@@QAEXXZ
	?GetHeader@?$KBaseArray@V?$KBaseArraySizeType@PAVKFbxPose@fbxsdk_20100@@@fbxsdk_20100@@@fbxsdk_20100@@IBEQAUKHeader@12@XZ
	?GetHeader@?$KBaseArray@V?$KBaseArraySizeType@PAVKStringListItem@fbxsdk_20100@@@fbxsdk_20100@@@fbxsdk_20100@@IBEQAUKHeader@12@XZ
	?GetHeader@?$KBaseArray@V?$KBaseArraySizeType@VKFbxLinkToCharacter@KFbxNode_internal@fbxsdk_20100@@@fbxsdk_20100@@@fbxsdk_20100@@IAEPAUKHeader@12@XZ
	?GetBlockCount@?$KBaseArray@V?$KBaseArraySizeType@VKFbxLinkToCharacter@KFbxNode_internal@fbxsdk_20100@@@fbxsdk_20100@@@fbxsdk_20100@@IBEHXZ
	?SetBlockCount@?$KBaseArray@V?$KBaseArraySizeType@VKFbxLinkToCharacter@KFbxNode_internal@fbxsdk_20100@@@fbxsdk_20100@@@fbxsdk_20100@@IAEXH@Z
	?GetTypeSize@?$KBaseArraySizeType@VKFbxLinkToCharacter@KFbxNode_internal@fbxsdk_20100@@@fbxsdk_20100@@QBEHXZ
	??$KFbxCast@VKFbxNode@fbxsdk_20100@@@fbxsdk_20100@@YAPAVKFbxNode@0@PAVKFbxPlug@0@@Z
	??$KFbxGetDst@VKFbxNode@fbxsdk_20100@@@fbxsdk_20100@@YAPAVKFbxNode@0@PBVKFbxObject@0@H@Z
	??$KFbxGetSrcCount@VKFbxNode@fbxsdk_20100@@@fbxsdk_20100@@YAHPBVKFbxObject@0@PBVKFbxNode@0@@Z
	??$KFbxGetSrc@VKFbxNode@fbxsdk_20100@@@fbxsdk_20100@@YAPAVKFbxNode@0@PBVKFbxObject@0@H@Z
	??$GetSrcObject@VKFbxNode@fbxsdk_20100@@@KFbxProperty@fbxsdk_20100@@QBEPAVKFbxNode@1@PBV21@H@Z
	??$KFbxSet@N@fbxsdk_20100@@YA_NAAVKFbxProperty@0@ABN_N@Z
	??$KFbxSet@_N@fbxsdk_20100@@YA_NAAVKFbxProperty@0@AB_N_N@Z
	??$KFbxGet@N@fbxsdk_20100@@YANABVKFbxProperty@0@@Z
	??$KFbxGet@H@fbxsdk_20100@@YAHABVKFbxProperty@0@@Z
	??$KFbxSet@H@fbxsdk_20100@@YA_NAAVKFbxProperty@0@ABH_N@Z
	??$KFbxGetSrcCount@VKFbxNodeAttribute@fbxsdk_20100@@@fbxsdk_20100@@YAHPBVKFbxObject@0@PBVKFbxNodeAttribute@0@@Z
	??$KFbxGetSrc@VKFbxNodeAttribute@fbxsdk_20100@@@fbxsdk_20100@@YAPAVKFbxNodeAttribute@0@PBVKFbxObject@0@H@Z
	??$kMin@VKTime@fbxsdk_20100@@@@YA?AVKTime@fbxsdk_20100@@V01@0@Z
	??$kMax@VKTime@fbxsdk_20100@@@@YA?AVKTime@fbxsdk_20100@@V01@0@Z
	??$KFbxGet@W4ERotationOrder@fbxsdk_20100@@@fbxsdk_20100@@YA?AW4ERotationOrder@0@ABVKFbxProperty@0@@Z
	??$KFbxGet@_N@fbxsdk_20100@@YA_NABVKFbxProperty@0@@Z
	??$KFbxSet@V?$fbxVectorTemplate3@N@fbxsdk_20100@@@fbxsdk_20100@@YA_NAAVKFbxProperty@0@ABV?$fbxVectorTemplate3@N@0@_N@Z
	??$KFbxGet@V?$fbxVectorTemplate3@N@fbxsdk_20100@@@fbxsdk_20100@@YA_NABVKFbxProperty@0@AAV?$fbxVectorTemplate3@N@0@@Z
	??$KFbxGet@N@fbxsdk_20100@@YA_NABVKFbxProperty@0@AAN@Z
	??$KFbxGet@_N@fbxsdk_20100@@YA_NABVKFbxProperty@0@AA_N@Z
	??$KFbxSet@W4ERotationOrder@fbxsdk_20100@@@fbxsdk_20100@@YA_NAAVKFbxProperty@0@ABW4ERotationOrder@0@_N@Z
	??$KFbxGet@W4ERotationOrder@fbxsdk_20100@@@fbxsdk_20100@@YA_NABVKFbxProperty@0@AAW4ERotationOrder@0@@Z
	??$KFbxSet@W4ETransformInheritType@fbxsdk_20100@@@fbxsdk_20100@@YA_NAAVKFbxProperty@0@ABW4ETransformInheritType@0@_N@Z
	??$KFbxGet@W4ETransformInheritType@fbxsdk_20100@@@fbxsdk_20100@@YA_NABVKFbxProperty@0@AAW4ETransformInheritType@0@@Z
	??$GetSrcObjectCount@VKFbxNodeAttribute@fbxsdk_20100@@@KFbxProperty@fbxsdk_20100@@QBEHPBVKFbxNodeAttribute@1@@Z
	??$GetDstObjectCount@VKFbxCluster@fbxsdk_20100@@@KFbxProperty@fbxsdk_20100@@QBEHPBVKFbxCluster@1@@Z
	??$GetDstObject@VKFbxCluster@fbxsdk_20100@@@KFbxProperty@fbxsdk_20100@@QBEPAVKFbxCluster@1@PBV21@H@Z
	??$GetSrcObjectCount@VKFbxSurfaceMaterial@fbxsdk_20100@@@KFbxProperty@fbxsdk_20100@@QBEHPBVKFbxSurfaceMaterial@1@@Z
	??$GetSrcObject@VKFbxSurfaceMaterial@fbxsdk_20100@@@KFbxProperty@fbxsdk_20100@@QBEPAVKFbxSurfaceMaterial@1@PBV21@H@Z
	??$DisconnectAllSrcObject@VKFbxSurfaceMaterial@fbxsdk_20100@@@KFbxProperty@fbxsdk_20100@@QAE_NPBVKFbxSurfaceMaterial@1@@Z
	?StaticInit@?$KFbxTypedProperty@PAVfbxReference@fbxsdk_20100@@@fbxsdk_20100@@QAEABVKFbxProperty@2@PAVKFbxObject@2@PBDABVKFbxDataType@2@W4eFbxPropertyFlags@FbxPropertyFlags@2@@Z
	??0KFbxIteratorSrcBase@fbxsdk_20100@@QAE@PAVKFbxObject@1@VkFbxClassId@1@@Z
	?GetFirst@KFbxIteratorSrcBase@fbxsdk_20100@@QAEPAVKFbxObject@2@XZ
	?KmVlength@fbxsdk_20100@@YANQBN@Z
	?KmVnorm@fbxsdk_20100@@YAPANQANQBN@Z
	?KmQlength@fbxsdk_20100@@YANQBN@Z
	?KmQnorm@fbxsdk_20100@@YAPANQANQBN@Z
	?KmRtoVXYZ@fbxsdk_20100@@YAPANQANQAY03$$CBN@Z
	?KmRtoV@fbxsdk_20100@@YAPANQANQAY03$$CBN@Z
	?KmAtoVR@fbxsdk_20100@@YAPANPANPAY03$$CBN@Z
	?KgeNorm@fbxsdk_20100@@YAAAVKgeTVector@1@AAV21@ABV21@@Z
	?KgeNorm@fbxsdk_20100@@YAAAVKgeQuaternion@1@AAV21@ABV21@@Z
	?KgeSet@fbxsdk_20100@@YAAAVKgeRVector@1@AAV21@ABVKgeRMatrix@1@@Z
	?KgeSet@fbxsdk_20100@@YAAAVKgeRVector@1@AAV21@ABVKgeAMatrix@1@@Z
	??0KgeTVector@fbxsdk_20100@@QAE@XZ
	??0KgeTVector@fbxsdk_20100@@QAE@QBN@Z
	??0KgeRVector@fbxsdk_20100@@QAE@XZ
	??0KgeRVector@fbxsdk_20100@@QAE@QBN@Z
	??0KgeRVector@fbxsdk_20100@@QAE@ABVKgeAMatrix@1@@Z
	??0KgeSVector@fbxsdk_20100@@QAE@XZ
	??0KgeSVector@fbxsdk_20100@@QAE@QBN@Z
	??0KgeAMatrix@fbxsdk_20100@@QAE@XZ
	??0KgeTMatrix@fbxsdk_20100@@QAE@XZ
	??0KgeRMatrix@fbxsdk_20100@@QAE@XZ
	??0KgeSMatrix@fbxsdk_20100@@QAE@XZ
	??0KMBLimit@fbxsdk_20100@@QAE@XZ
	??0KMBRotationSpace@fbxsdk_20100@@QAE@XZ
	??0KMBTransform@fbxsdk_20100@@QAE@XZ
	?Apply@KMBLimit@fbxsdk_20100@@QAEXAAVKgeTVector@2@0@Z
	?DoF2LT@KMBTransform@fbxsdk_20100@@QAEXAAVKgeTVector@2@0AAVKgeRMatrix@2@AAVKgeSMatrix@2@@Z
	?LT2DoF@KMBTransform@fbxsdk_20100@@QAEXAAVKgeTVector@2@0AAVKgeRMatrix@2@AAVKgeSMatrix@2@@Z
	?LSM2GSM@KMBTransform@fbxsdk_20100@@QAEXAAVKgeSMatrix@2@00AAVKgeRMatrix@2@AAVKgeSVector@2@@Z
	?GSM2LSM@KMBTransform@fbxsdk_20100@@QAEXAAVKgeSMatrix@2@00AAVKgeRMatrix@2@AAVKgeSVector@2@@Z
	?Reset@KFbxPivot@KFbxNode_internal@fbxsdk_20100@@QAEXXZ
	?Reset@KFbxPivots@KFbxNode_internal@fbxsdk_20100@@QAEXXZ
	??0KFbxTRSCache@KFbxNode_internal@fbxsdk_20100@@QAE@XZ
	??0KFbxState@KFbxNode_internal@fbxsdk_20100@@QAE@XZ
	?TypedClone@KFbxNode@fbxsdk_20100@@QBEPAV12@PAVKFbxObject@2@W4ECloneType@32@@Z
	?GetParent@KFbxNode@fbxsdk_20100@@QAEPAV12@XZ
	?GetParent@KFbxNode@fbxsdk_20100@@QBEPBV12@XZ
	?AddChild@KFbxNode@fbxsdk_20100@@QAE_NPAV12@@Z
	?GetChild@KFbxNode@fbxsdk_20100@@QAEPAV12@H@Z
	?GetChild@KFbxNode@fbxsdk_20100@@QBEPBV12@H@Z
	??1?$KFbxIteratorSrc@VKFbxNode@fbxsdk_20100@@@fbxsdk_20100@@QAE@XZ
	?GetTarget@KFbxNode@fbxsdk_20100@@QBEPAV12@XZ
	?GetTargetUp@KFbxNode@fbxsdk_20100@@QBEPAV12@XZ
	?SetVisibility@KFbxNode@fbxsdk_20100@@QAEX_N@Z
	?GetVisibility@KFbxNode@fbxsdk_20100@@QBE_NXZ
	?GetDefaultNodeAttributeIndex@KFbxNode@fbxsdk_20100@@QBEHXZ
	?GetNodeAttributeCount@KFbxNode@fbxsdk_20100@@QBEHXZ
	?SetDefaultVisibility@KFbxNode@fbxsdk_20100@@QAEXN@Z
	??1KFCurveFilterMatrixConverter@fbxsdk_20100@@QAE@XZ
	?SetGlobalState@KFbxNode@fbxsdk_20100@@QAEXABVKFbxXMatrix@2@@Z
	??0?$fbxVectorTemplate3@N@fbxsdk_20100@@QAE@XZ
	?Set@?$KFbxTypedProperty@V?$fbxVectorTemplate3@N@fbxsdk_20100@@@fbxsdk_20100@@QAE_NABV?$fbxVectorTemplate3@N@2@@Z
	?Get@?$KFbxTypedProperty@V?$fbxVectorTemplate3@N@fbxsdk_20100@@@fbxsdk_20100@@QBE?AV?$fbxVectorTemplate3@N@2@XZ
	?Set@?$KFbxTypedProperty@N@fbxsdk_20100@@QAE_NABN@Z
	?Get@?$KFbxTypedProperty@N@fbxsdk_20100@@QBENXZ
	?Set@?$KFbxTypedProperty@_N@fbxsdk_20100@@QAE_NAB_N@Z
	?Get@?$KFbxTypedProperty@_N@fbxsdk_20100@@QBE_NXZ
	?Set@?$KFbxTypedProperty@W4ERotationOrder@fbxsdk_20100@@@fbxsdk_20100@@QAE_NABW4ERotationOrder@2@@Z
	?Get@?$KFbxTypedProperty@W4ERotationOrder@fbxsdk_20100@@@fbxsdk_20100@@QBE?AW4ERotationOrder@2@XZ
	?Set@?$KFbxTypedProperty@W4ETransformInheritType@fbxsdk_20100@@@fbxsdk_20100@@QAE_NABW4ETransformInheritType@2@@Z
	?Get@?$KFbxTypedProperty@W4ETransformInheritType@fbxsdk_20100@@@fbxsdk_20100@@QBE?AW4ETransformInheritType@2@XZ
	??0?$KArrayTemplate@PAVKString@fbxsdk_20100@@@fbxsdk_20100@@QAE@XZ
	??1?$KArrayTemplate@PAVKString@fbxsdk_20100@@@fbxsdk_20100@@QAE@XZ
	??A?$KArrayTemplate@PAVKString@fbxsdk_20100@@@fbxsdk_20100@@QBEAAPAVKString@1@H@Z
	?GetAt@?$KArrayTemplate@PAVKString@fbxsdk_20100@@@fbxsdk_20100@@QBEPAVKString@2@H@Z
	??A?$KArrayTemplate@H@fbxsdk_20100@@QBEAAHH@Z
	??A?$KArrayTemplate@VKFbxLinkToCharacter@KFbxNode_internal@fbxsdk_20100@@@fbxsdk_20100@@QBEAAVKFbxLinkToCharacter@KFbxNode_internal@1@H@Z
	??A?$KArrayTemplate@PAVKFbxPose@fbxsdk_20100@@@fbxsdk_20100@@QBEAAPAVKFbxPose@1@H@Z
	?GetAt@?$KArrayTemplate@PAVKFbxPose@fbxsdk_20100@@@fbxsdk_20100@@QBEPAVKFbxPose@2@H@Z
	??0?$KFbxIteratorSrc@VKFbxNode@fbxsdk_20100@@@fbxsdk_20100@@QAE@PAVKFbxObject@1@@Z
	?GetFirst@?$KFbxIteratorSrc@VKFbxNode@fbxsdk_20100@@@fbxsdk_20100@@QAEPAVKFbxNode@2@XZ
	??1?$KArrayTemplate@PAVKStringListItem@fbxsdk_20100@@@fbxsdk_20100@@QAE@XZ
	??A?$KArrayTemplate@PAVKStringListItem@fbxsdk_20100@@@fbxsdk_20100@@QBEAAPAVKStringListItem@1@H@Z
	??1?$KBaseArray@V?$KBaseArraySizeType@PAVKFbxTakeNode@fbxsdk_20100@@@fbxsdk_20100@@@fbxsdk_20100@@IAE@XZ
	??1?$KBaseArray@V?$KBaseArraySizeType@PAVKFbxDefaultTakeCallback@fbxsdk_20100@@@fbxsdk_20100@@@fbxsdk_20100@@IAE@XZ
	?Set@?$KFbxTypedProperty@V?$fbxVectorTemplate3@N@fbxsdk_20100@@@fbxsdk_20100@@QAE_NABV?$fbxVectorTemplate3@N@2@_N@Z
	?Set@?$KFbxTypedProperty@N@fbxsdk_20100@@QAE_NABN_N@Z
	?Set@?$KFbxTypedProperty@_N@fbxsdk_20100@@QAE_NAB_N_N@Z
	?Set@?$KFbxTypedProperty@W4ERotationOrder@fbxsdk_20100@@@fbxsdk_20100@@QAE_NABW4ERotationOrder@2@_N@Z
	?Set@?$KFbxTypedProperty@W4ETransformInheritType@fbxsdk_20100@@@fbxsdk_20100@@QAE_NABW4ETransformInheritType@2@_N@Z
	?Set@?$KFbxTypedProperty@H@fbxsdk_20100@@QAE_NABH_N@Z
	?GetTypeSize@?$KBaseArray@V?$KBaseArraySizeType@PAVKString@fbxsdk_20100@@@fbxsdk_20100@@@fbxsdk_20100@@QBEHXZ
	?GetArrayCount@?$KBaseArray@V?$KBaseArraySizeType@PAVKString@fbxsdk_20100@@@fbxsdk_20100@@@fbxsdk_20100@@IBEHXZ
	?SetArrayCount@?$KBaseArray@V?$KBaseArraySizeType@PAVKString@fbxsdk_20100@@@fbxsdk_20100@@@fbxsdk_20100@@IAEXH@Z
	?GetBlockCount@?$KBaseArray@V?$KBaseArraySizeType@PAVKString@fbxsdk_20100@@@fbxsdk_20100@@@fbxsdk_20100@@IBEHXZ
	?SetBlockCount@?$KBaseArray@V?$KBaseArraySizeType@PAVKString@fbxsdk_20100@@@fbxsdk_20100@@@fbxsdk_20100@@IAEXH@Z
	??1?$KBaseArray@V?$KBaseArraySizeType@H@fbxsdk_20100@@@fbxsdk_20100@@IAE@XZ
	?GetAt@?$KArrayTemplate@VKFbxLinkToCharacter@KFbxNode_internal@fbxsdk_20100@@@fbxsdk_20100@@QBE?AVKFbxLinkToCharacter@KFbxNode_internal@2@H@Z
	??1?$KBaseArray@V?$KBaseArraySizeType@VKFbxLinkToCharacter@KFbxNode_internal@fbxsdk_20100@@@fbxsdk_20100@@@fbxsdk_20100@@IAE@XZ
	?GetArrayCount@?$KBaseArray@V?$KBaseArraySizeType@VKFbxLinkToCharacter@KFbxNode_internal@fbxsdk_20100@@@fbxsdk_20100@@@fbxsdk_20100@@IBEHXZ
	??1?$KBaseArray@V?$KBaseArraySizeType@PAVKFbxPose@fbxsdk_20100@@@fbxsdk_20100@@@fbxsdk_20100@@IAE@XZ
	?GetArrayCount@?$KBaseArray@V?$KBaseArraySizeType@PAVKFbxPose@fbxsdk_20100@@@fbxsdk_20100@@@fbxsdk_20100@@IBEHXZ
	?GetArrayCount@?$KBaseArray@V?$KBaseArraySizeType@PAVKStringListItem@fbxsdk_20100@@@fbxsdk_20100@@@fbxsdk_20100@@IBEHXZ
	?InsertAt@?$KBaseArray@V?$KBaseArraySizeType@PAVKString@fbxsdk_20100@@@fbxsdk_20100@@@fbxsdk_20100@@IAEHHPAX@Z
	?GetTypeSize@?$KBaseArray@V?$KBaseArraySizeType@VKFbxLinkToCharacter@KFbxNode_internal@fbxsdk_20100@@@fbxsdk_20100@@@fbxsdk_20100@@QBEHXZ
	?SetArrayCount@?$KBaseArray@V?$KBaseArraySizeType@VKFbxLinkToCharacter@KFbxNode_internal@fbxsdk_20100@@@fbxsdk_20100@@@fbxsdk_20100@@IAEXH@Z
	??$GetSrcObjectCount@VKFbxNodeAttribute@fbxsdk_20100@@@KFbxObject@fbxsdk_20100@@QBEHPBVKFbxNodeAttribute@1@@Z
	??$GetDstObjectCount@VKFbxCluster@fbxsdk_20100@@@KFbxObject@fbxsdk_20100@@QBEHPBVKFbxCluster@1@@Z
	??$GetDstObject@VKFbxCluster@fbxsdk_20100@@@KFbxObject@fbxsdk_20100@@QBEPAVKFbxCluster@1@PBV21@H@Z
	??$KFbxGet@V?$fbxVectorTemplate3@N@fbxsdk_20100@@@fbxsdk_20100@@YA?AV?$fbxVectorTemplate3@N@0@ABVKFbxProperty@0@@Z
	??$GetSrcObjectCount@VKFbxSurfaceMaterial@fbxsdk_20100@@@KFbxObject@fbxsdk_20100@@QBEHPBVKFbxSurfaceMaterial@1@@Z
	??$GetSrcObject@VKFbxSurfaceMaterial@fbxsdk_20100@@@KFbxObject@fbxsdk_20100@@QBEPAVKFbxSurfaceMaterial@1@PBV21@H@Z
	??$DisconnectAllSrcObject@VKFbxSurfaceMaterial@fbxsdk_20100@@@KFbxObject@fbxsdk_20100@@QAE_NPBVKFbxSurfaceMaterial@1@@Z
	?KmRtoVord@fbxsdk_20100@@YAPANQANQAY03$$CBNH@Z
	?KmXYZtoR@fbxsdk_20100@@YAPAY03NQAY03NNNN@Z
	?KmIJKtoR@fbxsdk_20100@@YAPAY03NQAY03NNNNH@Z
	?KmVXYZtoR@fbxsdk_20100@@YAPAY03NQAY03NQBN@Z
	?KmVIJKtoR@fbxsdk_20100@@YAPAY03NQAY03NQBNH@Z
	?KmVtoR@fbxsdk_20100@@YAPAY03NQAY03NQBN@Z
	?KgeSet@fbxsdk_20100@@YAAAVKgeRVector@1@AAV21@ABVKgeRMatrix@1@H@Z
	?KgeSet@fbxsdk_20100@@YAAAVKgeRMatrix@1@AAV21@ABVKgeRVector@1@H@Z
	?KgeSet@fbxsdk_20100@@YAAAVKgeRMatrix@1@AAV21@ABVKgeRVector@1@@Z
	??0KgeAMatrix@fbxsdk_20100@@QAE@ABVKgeRVector@1@@Z
	??0KgeRMatrix@fbxsdk_20100@@QAE@ABVKgeRVector@1@@Z
	?V2M@KMBRotationOrder@fbxsdk_20100@@QAEXAAVKgeRMatrix@2@AAVKgeRVector@2@@Z
	?M2V@KMBRotationOrder@fbxsdk_20100@@QAEXAAVKgeRVector@2@AAVKgeRMatrix@2@@Z
	?SetPreRM@KMBRotationSpace@fbxsdk_20100@@QAEXAAVKgeRVector@2@@Z
	?SetPostRM@KMBRotationSpace@fbxsdk_20100@@QAEXAAVKgeRVector@2@@Z
	?DoF2LRM@KMBRotationSpace@fbxsdk_20100@@QAEXAAVKgeRMatrix@2@AAVKgeRVector@2@@Z
	?LRM2DoF@KMBRotationSpace@fbxsdk_20100@@QAEXAAVKgeRVector@2@AAVKgeRMatrix@2@@Z
	?DoF2LRM@KMBTransform@fbxsdk_20100@@QAEXAAVKgeRMatrix@2@AAVKgeRVector@2@_N@Z
	?LRM2DoF@KMBTransform@fbxsdk_20100@@QAEXAAVKgeRVector@2@AAVKgeRMatrix@2@_N@Z
	?ResetPivots@KFbxNode_internal@fbxsdk_20100@@QAEXXZ
	??0KFbxPivot@KFbxNode_internal@fbxsdk_20100@@QAE@XZ
	??1KFbxPivot@KFbxNode_internal@fbxsdk_20100@@QAE@XZ
	?Get@KFbxPivots@KFbxNode_internal@fbxsdk_20100@@QAEAAVKFbxPivot@23@H@Z
	?SetRotationOffset@KFbxPivots@KFbxNode_internal@fbxsdk_20100@@QAEXHABVKFbxVector4@3@@Z
	?SetRotationPivot@KFbxPivots@KFbxNode_internal@fbxsdk_20100@@QAEXHABVKFbxVector4@3@@Z
	?SetPreRotation@KFbxPivots@KFbxNode_internal@fbxsdk_20100@@QAEXHABVKFbxVector4@3@@Z
	?SetPostRotation@KFbxPivots@KFbxNode_internal@fbxsdk_20100@@QAEXHABVKFbxVector4@3@@Z
	?SetScalingOffset@KFbxPivots@KFbxNode_internal@fbxsdk_20100@@QAEXHABVKFbxVector4@3@@Z
	?SetScalingPivot@KFbxPivots@KFbxNode_internal@fbxsdk_20100@@QAEXHABVKFbxVector4@3@@Z
	?SetGeometricTranslation@KFbxPivots@KFbxNode_internal@fbxsdk_20100@@QAEXHABVKFbxVector4@3@@Z
	?SetGeometricRotation@KFbxPivots@KFbxNode_internal@fbxsdk_20100@@QAEXHABVKFbxVector4@3@@Z
	?SetGeometricScaling@KFbxPivots@KFbxNode_internal@fbxsdk_20100@@QAEXHABVKFbxVector4@3@@Z
	?SetRotationSpaceForLimitOnly@KFbxPivots@KFbxNode_internal@fbxsdk_20100@@QAEXH_N@Z
	?SetQuaternionInterpolate@KFbxPivots@KFbxNode_internal@fbxsdk_20100@@QAEXH_N@Z
	?SetRotationOrder@KFbxPivots@KFbxNode_internal@fbxsdk_20100@@QAEXHW4ERotationOrder@3@@Z
	?Reset@KFbxNode@fbxsdk_20100@@IAEXXZ
	?GetUpdateId@KFbxNode@fbxsdk_20100@@UBEHW4eFbxUpdateIdType@KFbxObject@2@@Z
	?GetChildCount@KFbxNode@fbxsdk_20100@@QBEH_N@Z
	?FindChild@KFbxNode@fbxsdk_20100@@QAEPAV12@PBD_N1@Z
	?SetDefaultNodeAttributeIndex@KFbxNode@fbxsdk_20100@@QAE_NH@Z
	?GetNodeAttributeByIndex@KFbxNode@fbxsdk_20100@@QAEPAVKFbxNodeAttribute@2@H@Z
	?GetNodeAttributeByIndex@KFbxNode@fbxsdk_20100@@QBEPBVKFbxNodeAttribute@2@H@Z
	?GetNodeAttributeIndex@KFbxNode@fbxsdk_20100@@QBEHPAVKFbxNodeAttribute@2@@Z
	?GetNodeAttribute@KFbxNode@fbxsdk_20100@@QAEPAVKFbxNodeAttribute@2@XZ
	?GetNodeAttribute@KFbxNode@fbxsdk_20100@@QBEPBVKFbxNodeAttribute@2@XZ
	?AddNodeAttribute@KFbxNode@fbxsdk_20100@@QAE_NPAVKFbxNodeAttribute@2@@Z
	?RemoveNodeAttributeByIndex@KFbxNode@fbxsdk_20100@@QAEPAVKFbxNodeAttribute@2@H@Z
	?GetLodGroup@KFbxNode@fbxsdk_20100@@QAEPAVKFbxLodGroup@2@XZ
	?GetNull@KFbxNode@fbxsdk_20100@@QAEPAVKFbxNull@2@XZ
	?GetMarker@KFbxNode@fbxsdk_20100@@QAEPAVKFbxMarker@2@XZ
	?GetSkeleton@KFbxNode@fbxsdk_20100@@QAEPAVKFbxSkeleton@2@XZ
	?GetGeometry@KFbxNode@fbxsdk_20100@@QAEPAVKFbxGeometry@2@XZ
	?GetMesh@KFbxNode@fbxsdk_20100@@QAEPAVKFbxMesh@2@XZ
	?GetNurb@KFbxNode@fbxsdk_20100@@QAEPAVKFbxNurb@2@XZ
	?GetNurbsCurve@KFbxNode@fbxsdk_20100@@QAEPAVKFbxNurbsCurve@2@XZ
	?GetNurbsSurface@KFbxNode@fbxsdk_20100@@QAEPAVKFbxNurbsSurface@2@XZ
	?GetTrimNurbsSurface@KFbxNode@fbxsdk_20100@@QAEPAVKFbxTrimNurbsSurface@2@XZ
	?GetSubdiv@KFbxNode@fbxsdk_20100@@QAEPAVKFbxSubdiv@2@XZ
	?GetPatch@KFbxNode@fbxsdk_20100@@QAEPAVKFbxPatch@2@XZ
	?GetOpticalReference@KFbxNode@fbxsdk_20100@@QAEPAVKFbxOpticalReference@2@XZ
	?GetCamera@KFbxNode@fbxsdk_20100@@QAEPAVKFbxCamera@2@XZ
	?GetCameraSwitcher@KFbxNode@fbxsdk_20100@@QAEPAVKFbxCameraSwitcher@2@XZ
	?GetLight@KFbxNode@fbxsdk_20100@@QAEPAVKFbxLight@2@XZ
	?SetDefaultT@KFbxNode@fbxsdk_20100@@QAEXABVKFbxVector4@2@@Z
	?GetDefaultT@KFbxNode@fbxsdk_20100@@QAEAAVKFbxVector4@2@AAV32@@Z
	?SetDefaultR@KFbxNode@fbxsdk_20100@@QAEXABVKFbxVector4@2@@Z
	?GetDefaultR@KFbxNode@fbxsdk_20100@@QAEAAVKFbxVector4@2@AAV32@@Z
	?SetDefaultS@KFbxNode@fbxsdk_20100@@QAEXABVKFbxVector4@2@@Z
	?GetDefaultS@KFbxNode@fbxsdk_20100@@QAEAAVKFbxVector4@2@AAV32@@Z
	?GetDefaultVisibility@KFbxNode@fbxsdk_20100@@QAENXZ
	?SetTransformationInheritType@KFbxNode@fbxsdk_20100@@QAEXW4ETransformInheritType@2@@Z
	?GetTransformationInheritType@KFbxNode@fbxsdk_20100@@QAEXAAW4ETransformInheritType@2@@Z
	?SetPivotStateRecursive@fbxsdk_20100@@YAXPAVKFbxNode@1@W4EPivotSet@21@W4EPivotState@21@@Z
	?SetRotationOrder@KFbxNode@fbxsdk_20100@@QAEXW4EPivotSet@12@W4ERotationOrder@2@@Z
	?SetUseRotationSpaceForLimitOnly@KFbxNode@fbxsdk_20100@@QAEXW4EPivotSet@12@_N@Z
	?GetRotationActive@KFbxNode@fbxsdk_20100@@QAE_NXZ
	?SetUseQuaternionForInterpolation@KFbxNode@fbxsdk_20100@@QAEXW4EPivotSet@12@_N@Z
	?SetRotationStiffness@KFbxNode@fbxsdk_20100@@QAEXVKFbxVector4@2@@Z
	?GetRotationStiffness@KFbxNode@fbxsdk_20100@@QAE?AVKFbxVector4@2@XZ
	?SetMinDampRange@KFbxNode@fbxsdk_20100@@QAEXVKFbxVector4@2@@Z
	?GetMinDampRange@KFbxNode@fbxsdk_20100@@QAE?AVKFbxVector4@2@XZ
	?SetMaxDampRange@KFbxNode@fbxsdk_20100@@QAEXVKFbxVector4@2@@Z
	?GetMaxDampRange@KFbxNode@fbxsdk_20100@@QAE?AVKFbxVector4@2@XZ
	?SetMinDampStrength@KFbxNode@fbxsdk_20100@@QAEXVKFbxVector4@2@@Z
	?GetMinDampStrength@KFbxNode@fbxsdk_20100@@QAE?AVKFbxVector4@2@XZ
	?SetMaxDampStrength@KFbxNode@fbxsdk_20100@@QAEXVKFbxVector4@2@@Z
	?GetMaxDampStrength@KFbxNode@fbxsdk_20100@@QAE?AVKFbxVector4@2@XZ
	?SetPreferedAngle@KFbxNode@fbxsdk_20100@@QAEXVKFbxVector4@2@@Z
	?GetPreferedAngle@KFbxNode@fbxsdk_20100@@QAE?AVKFbxVector4@2@XZ
	?SetRotationOffset@KFbxNode@fbxsdk_20100@@QAEXW4EPivotSet@12@VKFbxVector4@2@@Z
	?SetRotationPivot@KFbxNode@fbxsdk_20100@@QAEXW4EPivotSet@12@VKFbxVector4@2@@Z
	?SetScalingOffset@KFbxNode@fbxsdk_20100@@QAEXW4EPivotSet@12@VKFbxVector4@2@@Z
	?SetScalingPivot@KFbxNode@fbxsdk_20100@@QAEXW4EPivotSet@12@VKFbxVector4@2@@Z
	?SetGeometricTranslation@KFbxNode@fbxsdk_20100@@QAEXW4EPivotSet@12@VKFbxVector4@2@@Z
	?SetGeometricRotation@KFbxNode@fbxsdk_20100@@QAEXW4EPivotSet@12@VKFbxVector4@2@@Z
	?SetGeometricScaling@KFbxNode@fbxsdk_20100@@QAEXW4EPivotSet@12@VKFbxVector4@2@@Z
	?ConvertPivotAnimation@KFbxNode@fbxsdk_20100@@QAEXW4EPivotSet@12@N_N@Z
	?GetAnimationIntervalRecursive@KFbxNode@fbxsdk_20100@@IAE_NAAVKTime@2@0@Z
	?GetChildName@KFbxNode@fbxsdk_20100@@QAEPADI@Z
	?GetLocalTFromDefaultTake@KFbxNode@fbxsdk_20100@@QAEAAVKFbxVector4@2@_N@Z
	?GetLocalRFromDefaultTake@KFbxNode@fbxsdk_20100@@QAEAAVKFbxVector4@2@_N@Z
	?GetLocalSFromDefaultTake@KFbxNode@fbxsdk_20100@@QAEAAVKFbxVector4@2@_N@Z
	?GetLocalTFromCurrentTake@KFbxNode@fbxsdk_20100@@QAEAAVKFbxVector4@2@VKTime@2@_N@Z
	?GetLocalRFromCurrentTake@KFbxNode@fbxsdk_20100@@QAEAAVKFbxVector4@2@VKTime@2@_N@Z
	?GetLocalSFromCurrentTake@KFbxNode@fbxsdk_20100@@QAEAAVKFbxVector4@2@VKTime@2@_N@Z
	?SetDefaultTakeFromLocalState@KFbxNode@fbxsdk_20100@@QAEX_N@Z
	?SetCurrentTakeFromLocalState@KFbxNode@fbxsdk_20100@@QAEXVKTime@2@_N@Z
	?SetLocalState@KFbxNode@fbxsdk_20100@@QAEXABVKFbxVector4@2@00@Z
	?GetLocalState@KFbxNode@fbxsdk_20100@@QAEXAAVKFbxVector4@2@00@Z
	?SetGlobalStateId@KFbxNode@fbxsdk_20100@@QAEXI_N@Z
	?SetLocalStateId@KFbxNode@fbxsdk_20100@@QAEXI_N@Z
	?UpdatePropertiesFromPivotsAndLimits@KFbxNode@fbxsdk_20100@@QAEXXZ
	?SetRotationActiveProperty@KFbxNode@fbxsdk_20100@@QAEX_N@Z
	?GetTypeName@KFbxNode@fbxsdk_20100@@UBE?AVKString@2@XZ
	?GetLXFromLocalState@KFbxNode@fbxsdk_20100@@QAE?AVKFbxXMatrix@2@_N000@Z
	?AddMaterial@KFbxNode@fbxsdk_20100@@QAEHPAVKFbxSurfaceMaterial@2@@Z
	?GetMaterialCount@KFbxNode@fbxsdk_20100@@QBEHXZ
	?GetMaterial@KFbxNode@fbxsdk_20100@@QBEPAVKFbxSurfaceMaterial@2@H@Z
	?GetMaterialIndex@KFbxNode@fbxsdk_20100@@QBEHPBD@Z
	?RemoveAllMaterials@KFbxNode@fbxsdk_20100@@QAEXXZ
	??1?$KArrayTemplate@PAVKFbxTakeNode@fbxsdk_20100@@@fbxsdk_20100@@QAE@XZ
	??1?$KArrayTemplate@PAVKFbxDefaultTakeCallback@fbxsdk_20100@@@fbxsdk_20100@@QAE@XZ
	?StaticInit@?$KFbxTypedProperty@V?$fbxVectorTemplate3@N@fbxsdk_20100@@@fbxsdk_20100@@QAEABVKFbxProperty@2@PAVKFbxObject@2@PBDABVKFbxDataType@2@ABV?$fbxVectorTemplate3@N@2@_NW4eFbxPropertyFlags@FbxPropertyFlags@2@@Z
	?StaticInit@?$KFbxTypedProperty@N@fbxsdk_20100@@QAEABVKFbxProperty@2@PAVKFbxObject@2@PBDABVKFbxDataType@2@ABN_NW4eFbxPropertyFlags@FbxPropertyFlags@2@@Z
	?StaticInit@?$KFbxTypedProperty@_N@fbxsdk_20100@@QAEABVKFbxProperty@2@PAVKFbxObject@2@PBDABVKFbxDataType@2@AB_N_NW4eFbxPropertyFlags@FbxPropertyFlags@2@@Z
	?StaticInit@?$KFbxTypedProperty@W4ERotationOrder@fbxsdk_20100@@@fbxsdk_20100@@QAEABVKFbxProperty@2@PAVKFbxObject@2@PBDABVKFbxDataType@2@ABW4ERotationOrder@2@_NW4eFbxPropertyFlags@FbxPropertyFlags@2@@Z
	?StaticInit@?$KFbxTypedProperty@W4ETransformInheritType@fbxsdk_20100@@@fbxsdk_20100@@QAEABVKFbxProperty@2@PAVKFbxObject@2@PBDABVKFbxDataType@2@ABW4ETransformInheritType@2@_NW4eFbxPropertyFlags@FbxPropertyFlags@2@@Z
	?StaticInit@?$KFbxTypedProperty@H@fbxsdk_20100@@QAEABVKFbxProperty@2@PAVKFbxObject@2@PBDABVKFbxDataType@2@ABH_NW4eFbxPropertyFlags@FbxPropertyFlags@2@@Z
	?GetCount@?$KBaseArray@V?$KBaseArraySizeType@PAVKString@fbxsdk_20100@@@fbxsdk_20100@@@fbxsdk_20100@@QBEHXZ
	??0?$KArrayTemplate@H@fbxsdk_20100@@QAE@XZ
	??1?$KArrayTemplate@H@fbxsdk_20100@@QAE@XZ
	??0?$KArrayTemplate@VKFbxLinkToCharacter@KFbxNode_internal@fbxsdk_20100@@@fbxsdk_20100@@QAE@XZ
	??1?$KArrayTemplate@VKFbxLinkToCharacter@KFbxNode_internal@fbxsdk_20100@@@fbxsdk_20100@@QAE@XZ
	?GetCount@?$KBaseArray@V?$KBaseArraySizeType@VKFbxLinkToCharacter@KFbxNode_internal@fbxsdk_20100@@@fbxsdk_20100@@@fbxsdk_20100@@QBEHXZ
	??0?$KArrayTemplate@PAVKFbxPose@fbxsdk_20100@@@fbxsdk_20100@@QAE@XZ
	??1?$KArrayTemplate@PAVKFbxPose@fbxsdk_20100@@@fbxsdk_20100@@QAE@XZ
	?GetCount@?$KBaseArray@V?$KBaseArraySizeType@PAVKFbxPose@fbxsdk_20100@@@fbxsdk_20100@@@fbxsdk_20100@@QBEHXZ
	?GetCount@?$KBaseArray@V?$KBaseArraySizeType@PAVKStringListItem@fbxsdk_20100@@@fbxsdk_20100@@@fbxsdk_20100@@QBEHXZ
	?InsertAt@?$KArrayTemplate@PAVKString@fbxsdk_20100@@@fbxsdk_20100@@QAEHHPAVKString@2@@Z
	?RemoveAt@?$KBaseArray@V?$KBaseArraySizeType@VKFbxLinkToCharacter@KFbxNode_internal@fbxsdk_20100@@@fbxsdk_20100@@@fbxsdk_20100@@IAEXH@Z
	?InsertAt@?$KBaseArray@V?$KBaseArraySizeType@VKFbxLinkToCharacter@KFbxNode_internal@fbxsdk_20100@@@fbxsdk_20100@@@fbxsdk_20100@@IAEHHPAX@Z
	??$DeleteAndClear@PAVKString@fbxsdk_20100@@@fbxsdk_20100@@YAXAAV?$KArrayTemplate@PAVKString@fbxsdk_20100@@@0@@Z
	??1KFbxTakeNodeContainer@fbxsdk_20100@@UAE@XZ
	??_7KFbxTakeNodeContainer@fbxsdk_20100@@6B@
	??_R4KFbxTakeNodeContainer@fbxsdk_20100@@6B@
	??_R0?AVKFbxTakeNodeContainer@fbxsdk_20100@@@8
	??_R3KFbxTakeNodeContainer@fbxsdk_20100@@8
	??_R2KFbxTakeNodeContainer@fbxsdk_20100@@8
	??_R1A@?0A@EA@KFbxTakeNodeContainer@fbxsdk_20100@@8
	?GetClassId@KFbxTakeNodeContainer@fbxsdk_20100@@UBE?AVkFbxClassId@2@XZ
	??_GKFbxTakeNodeContainer@fbxsdk_20100@@UAEPAXI@Z
	?SetPreRM@KMBTransform@fbxsdk_20100@@QAEXAAVKgeRVector@2@@Z
	?SetPostRM@KMBTransform@fbxsdk_20100@@QAEXAAVKgeRVector@2@@Z
	??1KFbxPivots@KFbxNode_internal@fbxsdk_20100@@QAE@XZ
	?Construct@KFbxNode@fbxsdk_20100@@MAEXPBV12@@Z
	?ConstructProperties@KFbxNode@fbxsdk_20100@@MAE_N_N@Z
	?SetNodeAttribute@KFbxNode@fbxsdk_20100@@QAEPAVKFbxNodeAttribute@2@PAV32@@Z
	?RemoveNodeAttribute@KFbxNode@fbxsdk_20100@@QAEPAVKFbxNodeAttribute@2@PAV32@@Z
	?SetRotationActive@KFbxNode@fbxsdk_20100@@QAEX_N@Z
	?SetPreRotation@KFbxNode@fbxsdk_20100@@QAEXW4EPivotSet@12@VKFbxVector4@2@@Z
	?SetPostRotation@KFbxNode@fbxsdk_20100@@QAEXW4EPivotSet@12@VKFbxVector4@2@@Z
	?ConvertPivotAnimationRecursive@KFbxNode@fbxsdk_20100@@QAEXW4EPivotSet@12@N_N@Z
	?ResetPivotSet@KFbxNode@fbxsdk_20100@@QAEXW4EPivotSet@12@@Z
	?SetRotationPivotAsCenterRecursive@KFbxNode@fbxsdk_20100@@QAEXVKFbxVector4@2@@Z
	?ResetPivotSetAndConvertAnimation@KFbxNode@fbxsdk_20100@@QAEXN_N0@Z
	?GetAnimationInterval@KFbxNode@fbxsdk_20100@@UAE_NAAVKTime@2@0@Z
	?DeepCopy@KFbxNode@fbxsdk_20100@@AAEAAV12@ABV12@_N@Z
	?Clone@KFbxNode@fbxsdk_20100@@UBEPAVKFbxObject@2@PAV32@W4ECloneType@32@@Z
	?GetCharacterLinkCount@KFbxNode@fbxsdk_20100@@QAEHXZ
	?GetCharacterLink@KFbxNode@fbxsdk_20100@@QAE_NHPAPAVKFbxCharacter@2@PAH11@Z
	?FindCharacterLink@KFbxNode@fbxsdk_20100@@QAEHPAVKFbxCharacter@2@HHH@Z
	?GetChildNameCount@KFbxNode@fbxsdk_20100@@QAEIXZ
	?ComputeTRSLocalFromDefaultTake@KFbxNode@fbxsdk_20100@@IAEX_N@Z
	?ComputeTRSLocalFromCurrentTake@KFbxNode@fbxsdk_20100@@IAEXVKTime@2@_N@Z
	?SetLocalStateFromDefaultTake@KFbxNode@fbxsdk_20100@@QAEX_N0@Z
	?SetLocalStateFromCurrentTake@KFbxNode@fbxsdk_20100@@QAEXVKTime@2@_N1@Z
	?UpdatePivotsAndLimitsFromProperties@KFbxNode@fbxsdk_20100@@QAEXXZ
	?PivotSetToMBTransform@KFbxNode@fbxsdk_20100@@QAEXW4EPivotSet@12@@Z
	?Add@?$KStringListTemplate@VKStringListItem@fbxsdk_20100@@@fbxsdk_20100@@QAEHPADI@Z
	?Clear@?$KStringListTemplate@VKStringListItem@fbxsdk_20100@@@fbxsdk_20100@@UAEXXZ
	?Add@?$KArrayTemplate@PAVKString@fbxsdk_20100@@@fbxsdk_20100@@QAEHPAVKString@2@@Z
	?RemoveAt@?$KArrayTemplate@VKFbxLinkToCharacter@KFbxNode_internal@fbxsdk_20100@@@fbxsdk_20100@@QAE?AVKFbxLinkToCharacter@KFbxNode_internal@2@H@Z
	?InsertAt@?$KArrayTemplate@VKFbxLinkToCharacter@KFbxNode_internal@fbxsdk_20100@@@fbxsdk_20100@@QAEHHVKFbxLinkToCharacter@KFbxNode_internal@2@@Z
	??0KFbxNode_internal@fbxsdk_20100@@QAE@PAVKFbxNode@1@@Z
	??1KFbxNode_internal@fbxsdk_20100@@QAE@XZ
	??0KFbxNode@fbxsdk_20100@@IAE@AAVKFbxSdkManager@1@PBD@Z
	??_7KFbxNode@fbxsdk_20100@@6B@
	??_R4KFbxNode@fbxsdk_20100@@6B@
	??_R0?AVKFbxNode@fbxsdk_20100@@@8
	??_R3KFbxNode@fbxsdk_20100@@8
	??_R2KFbxNode@fbxsdk_20100@@8
	??_R1A@?0A@EA@KFbxNode@fbxsdk_20100@@8
	?GetClassId@KFbxNode@fbxsdk_20100@@UBE?AVkFbxClassId@2@XZ
	??1KFbxNode@fbxsdk_20100@@UAE@XZ
	??_GKFbxNode@fbxsdk_20100@@UAEPAXI@Z
	??4KFbxNode@fbxsdk_20100@@IAEAAV01@ABV01@@Z
	?RemoveCharacterLink@KFbxNode@fbxsdk_20100@@IAEHPAVKFbxCharacter@2@HHH@Z
	?AddChildName@KFbxNode@fbxsdk_20100@@QAEXPAD@Z
	?GetGlobalFromDefaultTake@KFbxNode@fbxsdk_20100@@QAEAAVKFbxXMatrix@2@W4EPivotSet@12@_N@Z
	?GetGlobalFromCurrentTake@KFbxNode@fbxsdk_20100@@QAEAAVKFbxXMatrix@2@VKTime@2@W4EPivotSet@12@_N@Z
	?ComputeGlobalState@KFbxNode@fbxsdk_20100@@QAEXI_NW4EPivotSet@12@0@Z
	?ComputeLocalState@KFbxNode@fbxsdk_20100@@QAEXI_N@Z
	??1?$KStringListTemplate@VKStringListItem@fbxsdk_20100@@@fbxsdk_20100@@UAE@XZ
	??_7?$KStringListTemplate@VKStringListItem@fbxsdk_20100@@@fbxsdk_20100@@6B@
	??_R4?$KStringListTemplate@VKStringListItem@fbxsdk_20100@@@fbxsdk_20100@@6B@
	??_R0?AV?$KStringListTemplate@VKStringListItem@fbxsdk_20100@@@fbxsdk_20100@@@8
	??_R3?$KStringListTemplate@VKStringListItem@fbxsdk_20100@@@fbxsdk_20100@@8
	??_R2?$KStringListTemplate@VKStringListItem@fbxsdk_20100@@@fbxsdk_20100@@8
	??_R1A@?0A@EA@?$KStringListTemplate@VKStringListItem@fbxsdk_20100@@@fbxsdk_20100@@8
	??0KStringListItem@fbxsdk_20100@@QAE@PBDI@Z
	?GetBlockCount@?$KBaseArray@V?$KBaseArraySizeType@PAVKStringListItem@fbxsdk_20100@@@fbxsdk_20100@@@fbxsdk_20100@@IBEHXZ
	?GetHeader@?$KBaseArray@V?$KBaseArraySizeType@PAVKStringListItem@fbxsdk_20100@@@fbxsdk_20100@@@fbxsdk_20100@@IAEPAUKHeader@12@XZ
	?GetTypeSize@?$KBaseArraySizeType@PAVKStringListItem@fbxsdk_20100@@@fbxsdk_20100@@QBEHXZ
	?GetAt@?$KArrayTemplate@PAVKStringListItem@fbxsdk_20100@@@fbxsdk_20100@@QBEPAVKStringListItem@2@H@Z
	?GetTypeSize@?$KBaseArray@V?$KBaseArraySizeType@PAVKStringListItem@fbxsdk_20100@@@fbxsdk_20100@@@fbxsdk_20100@@QBEHXZ
	?SetArrayCount@?$KBaseArray@V?$KBaseArraySizeType@PAVKStringListItem@fbxsdk_20100@@@fbxsdk_20100@@@fbxsdk_20100@@IAEXH@Z
	?SetBlockCount@?$KBaseArray@V?$KBaseArraySizeType@PAVKStringListItem@fbxsdk_20100@@@fbxsdk_20100@@@fbxsdk_20100@@IAEXH@Z
	?InsertAt@?$KBaseArray@V?$KBaseArraySizeType@PAVKStringListItem@fbxsdk_20100@@@fbxsdk_20100@@@fbxsdk_20100@@IAEHHPAX@Z
	?RemoveAt@?$KBaseArray@V?$KBaseArraySizeType@PAVKStringListItem@fbxsdk_20100@@@fbxsdk_20100@@@fbxsdk_20100@@IAEXH@Z
	?SetStringAt@?$KStringListTemplate@VKStringListItem@fbxsdk_20100@@@fbxsdk_20100@@UAE_NHPAD@Z
	?GetText@?$KStringListTemplate@VKStringListItem@fbxsdk_20100@@@fbxsdk_20100@@UAEXAAVKString@2@@Z
	?SetText@?$KStringListTemplate@VKStringListItem@fbxsdk_20100@@@fbxsdk_20100@@UAEHPAD@Z
	?InsertAt@?$KArrayTemplate@PAVKStringListItem@fbxsdk_20100@@@fbxsdk_20100@@QAEHHPAVKStringListItem@2@@Z
	?RemoveAt@?$KArrayTemplate@PAVKStringListItem@fbxsdk_20100@@@fbxsdk_20100@@QAEPAVKStringListItem@2@H@Z
	?InsertAt@?$KStringListTemplate@VKStringListItem@fbxsdk_20100@@@fbxsdk_20100@@UAEHHPADI@Z
	?RemoveAt@?$KStringListTemplate@VKStringListItem@fbxsdk_20100@@@fbxsdk_20100@@UAEXH@Z
	?Add@?$KArrayTemplate@VKFbxLinkToCharacter@KFbxNode_internal@fbxsdk_20100@@@fbxsdk_20100@@QAEHVKFbxLinkToCharacter@KFbxNode_internal@2@@Z
	??_G?$KStringListTemplate@VKStringListItem@fbxsdk_20100@@@fbxsdk_20100@@UAEPAXI@Z
	??1KStringList@fbxsdk_20100@@UAE@XZ
	?Destruct@KFbxNode@fbxsdk_20100@@MAEX_N0@Z
	?AddCharacterLink@KFbxNode@fbxsdk_20100@@IAEHPAVKFbxCharacter@2@HHH@Z
	?GetTypeFlags@KFbxNode@fbxsdk_20100@@UBE?AVKStringList@2@XZ
	?ClassId@KFbxNode@fbxsdk_20100@@2VkFbxClassId@2@A
	?lDefaultPivot@KFbxPivots@KFbxNode_internal@fbxsdk_20100@@0VKFbxPivot@23@A
	?smMutex@?$KFbxEvent@VKFbxObjectPropertyChanged@fbxsdk_20100@@@kfbxevents@fbxsdk_20100@@0VKFbxMutex@kfbxmp@3@A
	?lOneVector@KFbxPivot@KFbxNode_internal@fbxsdk_20100@@2VKFbxVector4@3@A
	?lZeroVector@KFbxPivot@KFbxNode_internal@fbxsdk_20100@@2VKFbxVector4@3@A
	?KmIJKtoR@fbxsdk_20100@@YAPAY03NQAY03NNNNH@Z
	?KmVXYZtoR@fbxsdk_20100@@YAPAY03NQAY03NQBN@Z
	?KmVIJKtoR@fbxsdk_20100@@YAPAY03NQAY03NQBNH@Z
	?KmVtoR@fbxsdk_20100@@YAPAY03NQAY03NQBN@Z
	?KmXYZtoQ@fbxsdk_20100@@YAPANQANNNN@Z
	?KmVXYZtoQ@fbxsdk_20100@@YAPANQANQBN@Z
	?KmVtoQ@fbxsdk_20100@@YAPANQANQBN@Z
	?KmVtoA@fbxsdk_20100@@YAPAY03NQAY03NQBN11@Z
	?KgeSet@fbxsdk_20100@@YAAAVKgeQuaternion@1@AAV21@ABVKgeRVector@1@@Z
	?KgeSet@fbxsdk_20100@@YAAAVKgeRVector@1@AAV21@ABVKgeRMatrix@1@H@Z
	?KgeSet@fbxsdk_20100@@YAAAVKgeAMatrix@1@AAV21@ABVKgeRVector@1@@Z
	?KgeSet@fbxsdk_20100@@YAAAVKgeAMatrix@1@AAV21@ABVKgeTVector@1@ABVKgeRVector@1@ABVKgeSVector@1@@Z
	?KgeSet@fbxsdk_20100@@YAAAVKgeRMatrix@1@AAV21@ABVKgeRVector@1@H@Z
	?KgeSet@fbxsdk_20100@@YAAAVKgeRMatrix@1@AAV21@ABVKgeRVector@1@@Z
	??0KgeAMatrix@fbxsdk_20100@@QAE@ABVKgeRVector@1@@Z
	??0KgeAMatrix@fbxsdk_20100@@QAE@ABVKgeTVector@1@ABVKgeRVector@1@ABVKgeSVector@1@@Z
	??0KgeRMatrix@fbxsdk_20100@@QAE@NNN@Z
	??0KgeRMatrix@fbxsdk_20100@@QAE@ABVKgeRVector@1@@Z
	?V2M@KMBRotationOrder@fbxsdk_20100@@QAEXAAVKgeRMatrix@2@AAVKgeRVector@2@@Z
	?M2V@KMBRotationOrder@fbxsdk_20100@@QAEXAAVKgeRVector@2@AAVKgeRMatrix@2@@Z
	?CreateKFbxXMatrixRotation@KFbxXMatrix@fbxsdk_20100@@QAEXNNN@Z
	??1KFbxXMatrix@fbxsdk_20100@@QAE@XZ
	?GetQ@KFbxXMatrix@fbxsdk_20100@@QBE?AVKFbxQuaternion@2@XZ
	?SetT@KFbxXMatrix@fbxsdk_20100@@QAEXABVKFbxVector4@2@@Z
	?SetR@KFbxXMatrix@fbxsdk_20100@@QAEXABVKFbxVector4@2@@Z
	?SetQ@KFbxXMatrix@fbxsdk_20100@@QAEXABVKFbxQuaternion@2@@Z
	?SetS@KFbxXMatrix@fbxsdk_20100@@QAEXABVKFbxVector4@2@@Z
	?SetTRS@KFbxXMatrix@fbxsdk_20100@@QAEXABVKFbxVector4@2@00@Z
	?MultR@KFbxXMatrix@fbxsdk_20100@@QBE?AVKFbxVector4@2@ABV32@@Z
	?V2M@KFbxXMatrix@fbxsdk_20100@@QAEXAAV12@ABVKFbxVector4@2@W4ERotationOrder@2@@Z
	?M2V@KFbxXMatrix@fbxsdk_20100@@QAEXAAVKFbxVector4@2@ABV12@W4ERotationOrder@2@@Z
	??0?$fbxVectorTemplate4@V?$fbxVectorTemplate4@N@fbxsdk_20100@@@fbxsdk_20100@@QAE@XZ
	??0KFbxXMatrix@fbxsdk_20100@@QAE@XZ
	??0KFbxXMatrix@fbxsdk_20100@@QAE@ABV01@@Z
	??0KFbxXMatrix@fbxsdk_20100@@QAE@ABVKFbxVector4@1@00@Z
	??DKFbxXMatrix@fbxsdk_20100@@QBE?AV01@N@Z
	??KKFbxXMatrix@fbxsdk_20100@@QBE?AV01@N@Z
	??GKFbxXMatrix@fbxsdk_20100@@QBE?AV01@XZ
	??DKFbxXMatrix@fbxsdk_20100@@QBE?AV01@ABV01@@Z
	?Inverse@KFbxXMatrix@fbxsdk_20100@@QBE?AV12@XZ
	?Transpose@KFbxXMatrix@fbxsdk_20100@@QBE?AV12@XZ
	?GetBlockCount@?$KBaseArray@V?$KBaseArraySizeType@PAVListItem@?$KHashMap@VkFbxClassId@fbxsdk_20100@@PAV?$KArrayTemplate@PAVKFbxPreviewGeneratorFactory@fbxsdk_20100@@@2@VClassIdHash@Impl@KFbxPreviewManager@2@V?$PtrDestruct@PAV?$KArrayTemplate@PAVKFbxPreviewGeneratorFactory@fbxsdk_20100@@@fbxsdk_20100@@@2@V?$DefaultComparator@VkFbxClassId@fbxsdk_20100@@@2@@fbxsdk_20100@@@fbxsdk_20100@@@fbxsdk_20100@@IBEHXZ
	?SetBlockCount@?$KBaseArray@V?$KBaseArraySizeType@PAVListItem@?$KHashMap@VkFbxClassId@fbxsdk_20100@@PAV?$KArrayTemplate@PAVKFbxPreviewGeneratorFactory@fbxsdk_20100@@@2@VClassIdHash@Impl@KFbxPreviewManager@2@V?$PtrDestruct@PAV?$KArrayTemplate@PAVKFbxPreviewGeneratorFactory@fbxsdk_20100@@@fbxsdk_20100@@@2@V?$DefaultComparator@VkFbxClassId@fbxsdk_20100@@@2@@fbxsdk_20100@@@fbxsdk_20100@@@fbxsdk_20100@@IAEXH@Z
	?GetTypeSize@?$KBaseArray@V?$KBaseArraySizeType@UPreviewEntry@Impl@KFbxPreviewManager@fbxsdk_20100@@@fbxsdk_20100@@@fbxsdk_20100@@QBEHXZ
	?SetArrayCount@?$KBaseArray@V?$KBaseArraySizeType@UPreviewEntry@Impl@KFbxPreviewManager@fbxsdk_20100@@@fbxsdk_20100@@@fbxsdk_20100@@IAEXH@Z
	?GetTypeSize@?$KBaseArray@V?$KBaseArraySizeType@PAVKFbxPreviewGeneratorFactory@fbxsdk_20100@@@fbxsdk_20100@@@fbxsdk_20100@@QBEHXZ
	?SetArrayCount@?$KBaseArray@V?$KBaseArraySizeType@PAVKFbxPreviewGeneratorFactory@fbxsdk_20100@@@fbxsdk_20100@@@fbxsdk_20100@@IAEXH@Z
	?SetBlockCount@?$KBaseArray@V?$KBaseArraySizeType@PAVKFbxPreviewGeneratorFactory@fbxsdk_20100@@@fbxsdk_20100@@@fbxsdk_20100@@IAEXH@Z
	??1?$KArrayTemplate@PAVKFbxPreviewGeneratorFactory@fbxsdk_20100@@@fbxsdk_20100@@QAE@XZ
	?GetRefCount@KFbxPreviewManager@fbxsdk_20100@@IBEHH@Z
	?CreatePreviewGenerator@KFbxPreviewGeneratorFactory@fbxsdk_20100@@QAEPAVKFbxPreviewGenerator@2@PBVKFbxObject@2@VKFbxPreviewDescriptor@2@@Z
	??0?$KArrayTemplate@UPreviewEntry@Impl@KFbxPreviewManager@fbxsdk_20100@@@fbxsdk_20100@@QAE@XZ
	??1?$KArrayTemplate@UPreviewEntry@Impl@KFbxPreviewManager@fbxsdk_20100@@@fbxsdk_20100@@QAE@XZ
	?GetCount@?$KBaseArray@V?$KBaseArraySizeType@UPreviewEntry@Impl@KFbxPreviewManager@fbxsdk_20100@@@fbxsdk_20100@@@fbxsdk_20100@@QBEHXZ
	??0?$KArrayTemplate@PAVKFbxPreviewGeneratorFactory@fbxsdk_20100@@@fbxsdk_20100@@QAE@XZ
	?GetCount@?$KBaseArray@V?$KBaseArraySizeType@PAVKFbxPreviewGeneratorFactory@fbxsdk_20100@@@fbxsdk_20100@@@fbxsdk_20100@@QBEHXZ
	??0?$KArrayTemplate@PAVListItem@?$KHashMap@VkFbxClassId@fbxsdk_20100@@PAV?$KArrayTemplate@PAVKFbxPreviewGeneratorFactory@fbxsdk_20100@@@2@VClassIdHash@Impl@KFbxPreviewManager@2@V?$PtrDestruct@PAV?$KArrayTemplate@PAVKFbxPreviewGeneratorFactory@fbxsdk_20100@@@fbxsdk_20100@@@2@V?$DefaultComparator@VkFbxClassId@fbxsdk_20100@@@2@@fbxsdk_20100@@@fbxsdk_20100@@QAE@XZ
	??1?$KArrayTemplate@PAVListItem@?$KHashMap@VkFbxClassId@fbxsdk_20100@@PAV?$KArrayTemplate@PAVKFbxPreviewGeneratorFactory@fbxsdk_20100@@@2@VClassIdHash@Impl@KFbxPreviewManager@2@V?$PtrDestruct@PAV?$KArrayTemplate@PAVKFbxPreviewGeneratorFactory@fbxsdk_20100@@@fbxsdk_20100@@@2@V?$DefaultComparator@VkFbxClassId@fbxsdk_20100@@@2@@fbxsdk_20100@@@fbxsdk_20100@@QAE@XZ
	?SetAt@?$KArrayTemplate@PAVListItem@?$KHashMap@VkFbxClassId@fbxsdk_20100@@PAV?$KArrayTemplate@PAVKFbxPreviewGeneratorFactory@fbxsdk_20100@@@2@VClassIdHash@Impl@KFbxPreviewManager@2@V?$PtrDestruct@PAV?$KArrayTemplate@PAVKFbxPreviewGeneratorFactory@fbxsdk_20100@@@fbxsdk_20100@@@2@V?$DefaultComparator@VkFbxClassId@fbxsdk_20100@@@2@@fbxsdk_20100@@@fbxsdk_20100@@QAEXHPAVListItem@?$KHashMap@VkFbxClassId@fbxsdk_20100@@PAV?$KArrayTemplate@PAVKFbxPreviewGeneratorFactory@fbxsdk_20100@@@2@VClassIdHash@Impl@KFbxPreviewManager@2@V?$PtrDestruct@PAV?$KArrayTemplate@PAVKFbxPreviewGeneratorFactory@fbxsdk_20100@@@fbxsdk_20100@@@2@V?$DefaultComparator@VkFbxClassId@fbxsdk_20100@@@2@@2@@Z
	?GetCount@?$KBaseArray@V?$KBaseArraySizeType@PAVListItem@?$KHashMap@VkFbxClassId@fbxsdk_20100@@PAV?$KArrayTemplate@PAVKFbxPreviewGeneratorFactory@fbxsdk_20100@@@2@VClassIdHash@Impl@KFbxPreviewManager@2@V?$PtrDestruct@PAV?$KArrayTemplate@PAVKFbxPreviewGeneratorFactory@fbxsdk_20100@@@fbxsdk_20100@@@2@V?$DefaultComparator@VkFbxClassId@fbxsdk_20100@@@2@@fbxsdk_20100@@@fbxsdk_20100@@@fbxsdk_20100@@QBEHXZ
	?Resize@?$KBaseArray@V?$KBaseArraySizeType@PAVListItem@?$KHashMap@VkFbxClassId@fbxsdk_20100@@PAV?$KArrayTemplate@PAVKFbxPreviewGeneratorFactory@fbxsdk_20100@@@2@VClassIdHash@Impl@KFbxPreviewManager@2@V?$PtrDestruct@PAV?$KArrayTemplate@PAVKFbxPreviewGeneratorFactory@fbxsdk_20100@@@fbxsdk_20100@@@2@V?$DefaultComparator@VkFbxClassId@fbxsdk_20100@@@2@@fbxsdk_20100@@@fbxsdk_20100@@@fbxsdk_20100@@QAEXH@Z
	?RemoveAt@?$KBaseArray@V?$KBaseArraySizeType@UPreviewEntry@Impl@KFbxPreviewManager@fbxsdk_20100@@@fbxsdk_20100@@@fbxsdk_20100@@IAEXH@Z
	?FindAfter@?$KArrayTemplate@PAVKFbxPreviewGeneratorFactory@fbxsdk_20100@@@fbxsdk_20100@@QBEHHPAVKFbxPreviewGeneratorFactory@2@@Z
	?InsertAt@?$KBaseArray@V?$KBaseArraySizeType@PAVKFbxPreviewGeneratorFactory@fbxsdk_20100@@@fbxsdk_20100@@@fbxsdk_20100@@IAEHHPAX@Z
	?RemoveAt@?$KBaseArray@V?$KBaseArraySizeType@PAVKFbxPreviewGeneratorFactory@fbxsdk_20100@@@fbxsdk_20100@@@fbxsdk_20100@@IAEXH@Z
	?InsertAt@?$KBaseArray@V?$KBaseArraySizeType@UPreviewEntry@Impl@KFbxPreviewManager@fbxsdk_20100@@@fbxsdk_20100@@@fbxsdk_20100@@IAEHHPAX@Z
	?FindPreview@KFbxPreviewManager@fbxsdk_20100@@IBEHPBVKFbxObject@2@0PBVKFbxSwatchScene@2@@Z
	?RefPreview@KFbxPreviewManager@fbxsdk_20100@@IAEXH@Z
	?GetPreview@KFbxPreviewManager@fbxsdk_20100@@IBEPBVKFbxObject@2@H@Z
	?GetPreviewId@KFbxPreviewManager@fbxsdk_20100@@IBEHPBVKFbxObject@2@@Z
	??0?$KHashMap@VkFbxClassId@fbxsdk_20100@@PAV?$KArrayTemplate@PAVKFbxPreviewGeneratorFactory@fbxsdk_20100@@@2@VClassIdHash@Impl@KFbxPreviewManager@2@V?$PtrDestruct@PAV?$KArrayTemplate@PAVKFbxPreviewGeneratorFactory@fbxsdk_20100@@@fbxsdk_20100@@@2@V?$DefaultComparator@VkFbxClassId@fbxsdk_20100@@@2@@fbxsdk_20100@@QAE@H@Z
	?Find@?$KHashMap@VkFbxClassId@fbxsdk_20100@@PAV?$KArrayTemplate@PAVKFbxPreviewGeneratorFactory@fbxsdk_20100@@@2@VClassIdHash@Impl@KFbxPreviewManager@2@V?$PtrDestruct@PAV?$KArrayTemplate@PAVKFbxPreviewGeneratorFactory@fbxsdk_20100@@@fbxsdk_20100@@@2@V?$DefaultComparator@VkFbxClassId@fbxsdk_20100@@@2@@fbxsdk_20100@@QBE?BVIterator@12@ABVkFbxClassId@2@@Z
	??A?$KHashMap@VkFbxClassId@fbxsdk_20100@@PAV?$KArrayTemplate@PAVKFbxPreviewGeneratorFactory@fbxsdk_20100@@@2@VClassIdHash@Impl@KFbxPreviewManager@2@V?$PtrDestruct@PAV?$KArrayTemplate@PAVKFbxPreviewGeneratorFactory@fbxsdk_20100@@@fbxsdk_20100@@@2@V?$DefaultComparator@VkFbxClassId@fbxsdk_20100@@@2@@fbxsdk_20100@@QAEAAPAV?$KArrayTemplate@PAVKFbxPreviewGeneratorFactory@fbxsdk_20100@@@1@ABVkFbxClassId@1@@Z
	?RemoveAt@?$KArrayTemplate@UPreviewEntry@Impl@KFbxPreviewManager@fbxsdk_20100@@@fbxsdk_20100@@QAE?AUPreviewEntry@Impl@KFbxPreviewManager@2@H@Z
	?InsertAt@?$KArrayTemplate@PAVKFbxPreviewGeneratorFactory@fbxsdk_20100@@@fbxsdk_20100@@QAEHHPAVKFbxPreviewGeneratorFactory@2@@Z
	?RemoveAt@?$KArrayTemplate@PAVKFbxPreviewGeneratorFactory@fbxsdk_20100@@@fbxsdk_20100@@QAEPAVKFbxPreviewGeneratorFactory@2@H@Z
	?Find@?$KArrayTemplate@PAVKFbxPreviewGeneratorFactory@fbxsdk_20100@@@fbxsdk_20100@@QBEHPAVKFbxPreviewGeneratorFactory@2@@Z
	?InsertAt@?$KArrayTemplate@UPreviewEntry@Impl@KFbxPreviewManager@fbxsdk_20100@@@fbxsdk_20100@@QAEHHUPreviewEntry@Impl@KFbxPreviewManager@2@@Z
	?DoIt@?$PtrDestruct@PAV?$KArrayTemplate@PAVKFbxPreviewGeneratorFactory@fbxsdk_20100@@@fbxsdk_20100@@@fbxsdk_20100@@SAXAAPAV?$KArrayTemplate@PAVKFbxPreviewGeneratorFactory@fbxsdk_20100@@@2@@Z
	?RegisterPreviewGeneratorFactory@KFbxPreviewManager@fbxsdk_20100@@QAE_NPAVKFbxPreviewGeneratorFactory@2@VkFbxClassId@2@H@Z
	?UnregisterPreviewGeneratorFactory@KFbxPreviewManager@fbxsdk_20100@@QAE_NPAVKFbxPreviewGeneratorFactory@2@VkFbxClassId@2@@Z
	?GetPreviewGeneratorFactoryCount@KFbxPreviewManager@fbxsdk_20100@@QBEHVkFbxClassId@2@_N@Z
	?UnrefPreview@KFbxPreviewManager@fbxsdk_20100@@IAEHHPAVKFbxPreviewGenerator@2@@Z
	?ReleasePreview@KFbxPreviewGenerator@fbxsdk_20100@@QAE_NPBVKFbxObject@2@@Z
	?Add@?$KArrayTemplate@UPreviewEntry@Impl@KFbxPreviewManager@fbxsdk_20100@@@fbxsdk_20100@@QAEHUPreviewEntry@Impl@KFbxPreviewManager@2@@Z
	??1ListItem@?$KHashMap@VkFbxClassId@fbxsdk_20100@@PAV?$KArrayTemplate@PAVKFbxPreviewGeneratorFactory@fbxsdk_20100@@@2@VClassIdHash@Impl@KFbxPreviewManager@2@V?$PtrDestruct@PAV?$KArrayTemplate@PAVKFbxPreviewGeneratorFactory@fbxsdk_20100@@@fbxsdk_20100@@@2@V?$DefaultComparator@VkFbxClassId@fbxsdk_20100@@@2@@fbxsdk_20100@@QAE@XZ
	?GetPreviewGeneratorFactory@KFbxPreviewManager@fbxsdk_20100@@QBEPAVKFbxPreviewGeneratorFactory@2@VkFbxClassId@2@H_N@Z
	?RegisterPreview@KFbxPreviewManager@fbxsdk_20100@@IAEHPBVKFbxObject@2@0PBVKFbxSwatchScene@2@PAV32@@Z
	?GetPreview@KFbxPreviewGenerator@fbxsdk_20100@@QAEPBVKFbxObject@2@PAVAbortCallback@12@@Z
	?GetPreviewGenerator@KFbxPreviewManager@fbxsdk_20100@@QBEPAVKFbxPreviewGenerator@2@PAVKFbxObject@2@VKFbxPreviewDescriptor@2@_N@Z
	?Clear@?$KHashMap@VkFbxClassId@fbxsdk_20100@@PAV?$KArrayTemplate@PAVKFbxPreviewGeneratorFactory@fbxsdk_20100@@@2@VClassIdHash@Impl@KFbxPreviewManager@2@V?$PtrDestruct@PAV?$KArrayTemplate@PAVKFbxPreviewGeneratorFactory@fbxsdk_20100@@@fbxsdk_20100@@@2@V?$DefaultComparator@VkFbxClassId@fbxsdk_20100@@@2@@fbxsdk_20100@@QAEXXZ
	??1?$KHashMap@VkFbxClassId@fbxsdk_20100@@PAV?$KArrayTemplate@PAVKFbxPreviewGeneratorFactory@fbxsdk_20100@@@2@VClassIdHash@Impl@KFbxPreviewManager@2@V?$PtrDestruct@PAV?$KArrayTemplate@PAVKFbxPreviewGeneratorFactory@fbxsdk_20100@@@fbxsdk_20100@@@2@V?$DefaultComparator@VkFbxClassId@fbxsdk_20100@@@2@@fbxsdk_20100@@QAE@XZ
	??0Impl@KFbxPreviewManager@fbxsdk_20100@@QAE@AAVKFbxSdkManager@2@@Z
	??0KFbxPreviewManager@fbxsdk_20100@@QAE@AAVKFbxSdkManager@1@@Z
	??1Impl@KFbxPreviewManager@fbxsdk_20100@@QAE@XZ
	??1KFbxPreviewManager@fbxsdk_20100@@QAE@XZ
	?smMutex@?$KFbxEvent@VKFbxObjectPropertyChanged@fbxsdk_20100@@@kfbxevents@fbxsdk_20100@@0VKFbxMutex@kfbxmp@3@A
	??Y?$_Vector_const_iterator@PAVKFbxNode@fbxsdk_20100@@V?$allocator@PAVKFbxNode@fbxsdk_20100@@@std@@@std@@QAEAAV01@H@Z
	??$GetSrcObjectCount@VKFbxNode@fbxsdk_20100@@@KFbxProperty@fbxsdk_20100@@QBEHPBVKFbxNode@1@@Z
	??$GetSrcObject@VKFbxNode@fbxsdk_20100@@@KFbxProperty@fbxsdk_20100@@QBEPAVKFbxNode@1@PBV21@H@Z
	??$KFbxCast@VKFbxCameraManipulator@fbxsdk_20100@@@fbxsdk_20100@@YAPAVKFbxCameraManipulator@0@PAVKFbxPlug@0@@Z
	??$KFbxCast@VKFbxNode@fbxsdk_20100@@@fbxsdk_20100@@YAPAVKFbxNode@0@PAVKFbxPlug@0@@Z
	??$KFbxSet@V?$fbxVectorTemplate3@N@fbxsdk_20100@@@fbxsdk_20100@@YA_NAAVKFbxProperty@0@ABV?$fbxVectorTemplate3@N@0@_N@Z
	??$KFbxGet@V?$fbxVectorTemplate3@N@fbxsdk_20100@@@fbxsdk_20100@@YA_NABVKFbxProperty@0@AAV?$fbxVectorTemplate3@N@0@@Z
	??$KFbxSet@N@fbxsdk_20100@@YA_NAAVKFbxProperty@0@ABN_N@Z
	??$KFbxGet@N@fbxsdk_20100@@YA_NABVKFbxProperty@0@AAN@Z
	??$KFbxGet@W4ECameraProjectionType@KFbxCamera@fbxsdk_20100@@@fbxsdk_20100@@YA_NABVKFbxProperty@0@AAW4ECameraProjectionType@KFbxCamera@0@@Z
	??$_Allocate@PAVKFbxNode@fbxsdk_20100@@@std@@YAPAPAVKFbxNode@fbxsdk_20100@@IPAPAV12@@Z
	??$_Ptr_cat@PAPAVKFbxNode@fbxsdk_20100@@PAPAV12@@std@@YA?AU_Scalar_ptr_iterator_tag@0@AAPAPAVKFbxNode@fbxsdk_20100@@0@Z
	??$_Destroy_range@V?$allocator@PAVKFbxNode@fbxsdk_20100@@@std@@@std@@YAXPAPAVKFbxNode@fbxsdk_20100@@0AAV?$allocator@PAVKFbxNode@fbxsdk_20100@@@0@U_Scalar_ptr_iterator_tag@0@@Z
	??$_Fill@PAPAVKFbxNode@fbxsdk_20100@@PAV12@@std@@YAXPAPAVKFbxNode@fbxsdk_20100@@0ABQAV12@@Z
	??$_Iter_random@PAPAVKFbxNode@fbxsdk_20100@@PAPAV12@@std@@YA?AUrandom_access_iterator_tag@0@ABQAPAVKFbxNode@fbxsdk_20100@@0@Z
	??$_Move_cat@PAPAVKFbxNode@fbxsdk_20100@@@std@@YA?AU_Undefined_move_tag@0@ABQAPAVKFbxNode@fbxsdk_20100@@@Z
	??$_Copy_backward_opt@PAPAVKFbxNode@fbxsdk_20100@@PAPAV12@Urandom_access_iterator_tag@std@@@std@@YAPAPAVKFbxNode@fbxsdk_20100@@PAPAV12@00Urandom_access_iterator_tag@0@U_Scalar_ptr_iterator_tag@0@U_Range_checked_iterator_tag@0@@Z
	??$_Iter_cat@PAPAVKFbxNode@fbxsdk_20100@@@std@@YA?AUrandom_access_iterator_tag@0@ABQAPAVKFbxNode@fbxsdk_20100@@@Z
	??$_Fill_n@PAPAVKFbxNode@fbxsdk_20100@@IPAV12@@std@@YAXPAPAVKFbxNode@fbxsdk_20100@@IABQAV12@U_Range_checked_iterator_tag@0@@Z
	??$_Uninit_copy@PAPAVKFbxNode@fbxsdk_20100@@PAPAV12@V?$allocator@PAVKFbxNode@fbxsdk_20100@@@std@@@std@@YAPAPAVKFbxNode@fbxsdk_20100@@PAPAV12@00AAV?$allocator@PAVKFbxNode@fbxsdk_20100@@@0@U_Scalar_ptr_iterator_tag@0@U_Range_checked_iterator_tag@0@@Z
	?KmVlength@fbxsdk_20100@@YANQBN@Z
	?KmVnorm@fbxsdk_20100@@YAPANQANQBN@Z
	?KmRtoVXYZ@fbxsdk_20100@@YAPANQANQAY03$$CBN@Z
	?KmRtoV@fbxsdk_20100@@YAPANQANQAY03$$CBN@Z
	?KgeLength@fbxsdk_20100@@YANABVKgeTVector@1@@Z
	?KgeNorm@fbxsdk_20100@@YAAAVKgeTVector@1@AAV21@ABV21@@Z
	?KgeSet@fbxsdk_20100@@YAAAVKgeRVector@1@AAV21@ABVKgeRMatrix@1@@Z
	??0KgeTVector@fbxsdk_20100@@QAE@XZ
	??0KgeTVector@fbxsdk_20100@@QAE@ABV01@@Z
	??0KgeRVector@fbxsdk_20100@@QAE@XZ
	??0KgeAMatrix@fbxsdk_20100@@QAE@XZ
	??0KgeRMatrix@fbxsdk_20100@@QAE@XZ
	?ComputeRotation@fbxsdk_20100@@YAXAAVKgeTVector@1@00ABV21@11@Z
	?ComputeMeshBoundingBox@fbxsdk_20100@@YAXAAVKgeTVector@1@0ABVKFbxMesh@1@@Z
	?ComputeCentroid@fbxsdk_20100@@YA_NAAVKgeVertex@1@ABV?$vector@PAVKFbxNode@fbxsdk_20100@@V?$allocator@PAVKFbxNode@fbxsdk_20100@@@std@@@std@@@Z
	?TypedClone@KFbxCameraManipulator@fbxsdk_20100@@QBEPAV12@PAVKFbxObject@2@W4ECloneType@32@@Z
	??0KFbxCamManip_state@fbxsdk_20100@@QAE@XZ
	?Set@?$KFbxTypedProperty@V?$fbxVectorTemplate3@N@fbxsdk_20100@@@fbxsdk_20100@@QAE_NABV?$fbxVectorTemplate3@N@2@@Z
	?Set@?$KFbxTypedProperty@N@fbxsdk_20100@@QAE_NABN@Z
	?Get@?$KFbxTypedProperty@N@fbxsdk_20100@@QBENXZ
	?Get@?$KFbxTypedProperty@W4ECameraProjectionType@KFbxCamera@fbxsdk_20100@@@fbxsdk_20100@@QBE?AW4ECameraProjectionType@KFbxCamera@2@XZ
	??1?$_Vector_val@PAVKFbxNode@fbxsdk_20100@@V?$allocator@PAVKFbxNode@fbxsdk_20100@@@std@@@std@@QAE@XZ
	??0?$fbxVectorTemplate3@N@fbxsdk_20100@@QAE@XZ
	??0?$_Vector_val@PAVKFbxNode@fbxsdk_20100@@V?$allocator@PAVKFbxNode@fbxsdk_20100@@@std@@@std@@IAE@V?$allocator@PAVKFbxNode@fbxsdk_20100@@@1@@Z
	?max_size@?$vector@PAVKFbxNode@fbxsdk_20100@@V?$allocator@PAVKFbxNode@fbxsdk_20100@@@std@@@std@@QBEIXZ
	?allocate@?$allocator@PAVKFbxNode@fbxsdk_20100@@@std@@QAEPAPAVKFbxNode@fbxsdk_20100@@I@Z
	??$_Destroy_range@V?$allocator@PAVKFbxNode@fbxsdk_20100@@@std@@@std@@YAXPAPAVKFbxNode@fbxsdk_20100@@0AAV?$allocator@PAVKFbxNode@fbxsdk_20100@@@0@@Z
	??$fill@PAPAVKFbxNode@fbxsdk_20100@@PAV12@@std@@YAXPAPAVKFbxNode@fbxsdk_20100@@0ABQAV12@@Z
	??$_Move_backward_opt@PAPAVKFbxNode@fbxsdk_20100@@PAPAV12@Urandom_access_iterator_tag@std@@U_Undefined_move_tag@4@@std@@YAPAPAVKFbxNode@fbxsdk_20100@@PAPAV12@00Urandom_access_iterator_tag@0@U_Undefined_move_tag@0@U_Range_checked_iterator_tag@0@@Z
	??$_Fill_n@PAPAVKFbxNode@fbxsdk_20100@@IPAV12@Urandom_access_iterator_tag@std@@@std@@YAXPAPAVKFbxNode@fbxsdk_20100@@IABQAV12@Urandom_access_iterator_tag@0@U_Range_checked_iterator_tag@0@@Z
	??$unchecked_uninitialized_copy@PAPAVKFbxNode@fbxsdk_20100@@PAPAV12@V?$allocator@PAVKFbxNode@fbxsdk_20100@@@std@@@stdext@@YAPAPAVKFbxNode@fbxsdk_20100@@PAPAV12@00AAV?$allocator@PAVKFbxNode@fbxsdk_20100@@@std@@@Z
	?KmXYZtoR@fbxsdk_20100@@YAPAY03NQAY03NNNN@Z
	??0KgeRMatrix@fbxsdk_20100@@QAE@NNN@Z
	?SetPosition@KFbxCamManip_state@fbxsdk_20100@@QAEXABVKFbxVector4@2@@Z
	?SetInterestPosition@KFbxCamManip_state@fbxsdk_20100@@QAEXABVKFbxVector4@2@@Z
	?SetRotation@KFbxCamManip_state@fbxsdk_20100@@QAEXABVKFbxVector4@2@@Z
	?GetTurnTable@KFbxCamManip_state@fbxsdk_20100@@QAENXZ
	?SetRoll@KFbxCamManip_state@fbxsdk_20100@@QAEXN@Z
	?GetRoll@KFbxCamManip_state@fbxsdk_20100@@QAENXZ
	?GetNearPlane@KFbxCamManip_state@fbxsdk_20100@@QAENXZ
	?GetProjectionType@KFbxCamManip_state@fbxsdk_20100@@QAE?AW4ECameraProjectionType@KFbxCamera@2@XZ
	??0KFbxCameraManipulator@fbxsdk_20100@@AAE@AAVKFbxSdkManager@1@PBD@Z
	??_7KFbxCameraManipulator@fbxsdk_20100@@6B@
	??_R4KFbxCameraManipulator@fbxsdk_20100@@6B@
	??_R0?AVKFbxCameraManipulator@fbxsdk_20100@@@8
	??_R3KFbxCameraManipulator@fbxsdk_20100@@8
	??_R2KFbxCameraManipulator@fbxsdk_20100@@8
	??_R1A@?0A@EA@KFbxCameraManipulator@fbxsdk_20100@@8
	?GetClassId@KFbxCameraManipulator@fbxsdk_20100@@UBE?AVkFbxClassId@2@XZ
	??1KFbxCameraManipulator@fbxsdk_20100@@UAE@XZ
	??_GKFbxCameraManipulator@fbxsdk_20100@@UAEPAXI@Z
	?Destruct@KFbxCameraManipulator@fbxsdk_20100@@EAEX_N0@Z
	?Get@?$KFbxTypedProperty@V?$fbxVectorTemplate3@N@fbxsdk_20100@@@fbxsdk_20100@@QBE?AV?$fbxVectorTemplate3@N@2@XZ
	?_Destroy@?$vector@PAVKFbxNode@fbxsdk_20100@@V?$allocator@PAVKFbxNode@fbxsdk_20100@@@std@@@std@@IAEXPAPAVKFbxNode@fbxsdk_20100@@0@Z
	??$_Unchecked_move_backward@PAPAVKFbxNode@fbxsdk_20100@@PAPAV12@@stdext@@YAPAPAVKFbxNode@fbxsdk_20100@@PAPAV12@00@Z
	??$unchecked_fill_n@PAPAVKFbxNode@fbxsdk_20100@@IPAV12@@stdext@@YAXPAPAVKFbxNode@fbxsdk_20100@@IABQAV12@@Z
	??$_Uninit_move@PAPAVKFbxNode@fbxsdk_20100@@PAPAV12@V?$allocator@PAVKFbxNode@fbxsdk_20100@@@std@@U_Undefined_move_tag@4@@std@@YAPAPAVKFbxNode@fbxsdk_20100@@PAPAV12@00AAV?$allocator@PAVKFbxNode@fbxsdk_20100@@@0@U_Undefined_move_tag@0@U_Range_checked_iterator_tag@0@@Z
	?GetPosition@KFbxCamManip_state@fbxsdk_20100@@QAE?AVKFbxVector4@2@XZ
	?GetInterestPosition@KFbxCamManip_state@fbxsdk_20100@@QAE?AVKFbxVector4@2@XZ
	?GetRotation@KFbxCamManip_state@fbxsdk_20100@@QAE?AVKFbxVector4@2@XZ
	?StoreCameraState@KFbxCamManip_state@fbxsdk_20100@@QAEXXZ
	?UpdateCameraRotation@KFbxCamManip_state@fbxsdk_20100@@QAEXXZ
	?Initialize@KFbxCameraManipulator@fbxsdk_20100@@QAEXABVKFbxCamera@2@W4eAlignment@12@@Z
	?ManipBegin@KFbxCameraManipulator@fbxsdk_20100@@QAE_NW4eAction@12@HH@Z
	?ManipNotify@KFbxCameraManipulator@fbxsdk_20100@@QAE_NHH@Z
	?_Tidy@?$vector@PAVKFbxNode@fbxsdk_20100@@V?$allocator@PAVKFbxNode@fbxsdk_20100@@@std@@@std@@IAEXXZ
	??$_Uninit_fill_n@PAPAVKFbxNode@fbxsdk_20100@@IPAV12@V?$allocator@PAVKFbxNode@fbxsdk_20100@@@std@@@std@@YAXPAPAVKFbxNode@fbxsdk_20100@@IABQAV12@AAV?$allocator@PAVKFbxNode@fbxsdk_20100@@@0@U_Scalar_ptr_iterator_tag@0@U_Range_checked_iterator_tag@0@@Z
	??$_Unchecked_uninitialized_move@PAPAVKFbxNode@fbxsdk_20100@@PAPAV12@V?$allocator@PAVKFbxNode@fbxsdk_20100@@@std@@@stdext@@YAPAPAVKFbxNode@fbxsdk_20100@@PAPAV12@00AAV?$allocator@PAVKFbxNode@fbxsdk_20100@@@std@@@Z
	??1?$vector@PAVKFbxNode@fbxsdk_20100@@V?$allocator@PAVKFbxNode@fbxsdk_20100@@@std@@@std@@QAE@XZ
	??$unchecked_uninitialized_fill_n@PAPAVKFbxNode@fbxsdk_20100@@IPAV12@V?$allocator@PAVKFbxNode@fbxsdk_20100@@@std@@@stdext@@YAXPAPAVKFbxNode@fbxsdk_20100@@IABQAV12@AAV?$allocator@PAVKFbxNode@fbxsdk_20100@@@std@@@Z
	??$_Umove@PAPAVKFbxNode@fbxsdk_20100@@@?$vector@PAVKFbxNode@fbxsdk_20100@@V?$allocator@PAVKFbxNode@fbxsdk_20100@@@std@@@std@@IAEPAPAVKFbxNode@fbxsdk_20100@@PAPAV23@00@Z
	?_Ufill@?$vector@PAVKFbxNode@fbxsdk_20100@@V?$allocator@PAVKFbxNode@fbxsdk_20100@@@std@@@std@@IAEPAPAVKFbxNode@fbxsdk_20100@@PAPAV34@IABQAV34@@Z
	?_Xlen@?$vector@PAVKFbxNode@fbxsdk_20100@@V?$allocator@PAVKFbxNode@fbxsdk_20100@@@std@@@std@@KAXXZ
	?_Buy@?$vector@PAVKFbxNode@fbxsdk_20100@@V?$allocator@PAVKFbxNode@fbxsdk_20100@@@std@@@std@@IAE_NI@Z
	?_Insert_n@?$vector@PAVKFbxNode@fbxsdk_20100@@V?$allocator@PAVKFbxNode@fbxsdk_20100@@@std@@@std@@IAEXV?$_Vector_const_iterator@PAVKFbxNode@fbxsdk_20100@@V?$allocator@PAVKFbxNode@fbxsdk_20100@@@std@@@2@IABQAVKFbxNode@fbxsdk_20100@@@Z
	??0?$vector@PAVKFbxNode@fbxsdk_20100@@V?$allocator@PAVKFbxNode@fbxsdk_20100@@@std@@@std@@QAE@XZ
	?push_back@?$vector@PAVKFbxNode@fbxsdk_20100@@V?$allocator@PAVKFbxNode@fbxsdk_20100@@@std@@@std@@QAEXABQAVKFbxNode@fbxsdk_20100@@@Z
	?FrameAll@KFbxCameraManipulator@fbxsdk_20100@@QAEXXZ
	?FrameSelected@KFbxCameraManipulator@fbxsdk_20100@@QAEXXZ
	?smMutex@?$KFbxEvent@VKFbxObjectPropertyChanged@fbxsdk_20100@@@kfbxevents@fbxsdk_20100@@0VKFbxMutex@kfbxmp@3@A
	?ClassId@KFbxCameraManipulator@fbxsdk_20100@@2VkFbxClassId@2@A
	?SendToExtraDevices@KFbxUserNotification@fbxsdk_20100@@MAE_N_NAAV?$KArrayTemplate@PAVAESequence@KFbxUserNotification@fbxsdk_20100@@@2@@Z
	??1KFbxUserNotificationFilteredIterator@fbxsdk_20100@@UAE@XZ
	??_7KFbxUserNotificationFilteredIterator@fbxsdk_20100@@6B@
	??_R4KFbxUserNotificationFilteredIterator@fbxsdk_20100@@6B@
	??_R0?AVKFbxUserNotificationFilteredIterator@fbxsdk_20100@@@8
	??_R3KFbxUserNotificationFilteredIterator@fbxsdk_20100@@8
	??_R2KFbxUserNotificationFilteredIterator@fbxsdk_20100@@8
	??_R1A@?0A@EA@KFbxUserNotificationFilteredIterator@fbxsdk_20100@@8
	?GetNbItems@KFbxUserNotificationFilteredIterator@fbxsdk_20100@@QBEHXZ
	?First@KFbxUserNotificationFilteredIterator@fbxsdk_20100@@QAEQAVAccumulatorEntry@2@XZ
	?Previous@KFbxUserNotificationFilteredIterator@fbxsdk_20100@@QAEQAVAccumulatorEntry@2@XZ
	?Next@KFbxUserNotificationFilteredIterator@fbxsdk_20100@@QAEQAVAccumulatorEntry@2@XZ
	?Add@?$KArrayTemplate@PAVKString@fbxsdk_20100@@@fbxsdk_20100@@QAEHPAVKString@2@@Z
	?InsertAt@?$KArrayTemplate@PAVAccumulatorEntry@fbxsdk_20100@@@fbxsdk_20100@@QAEHHPAVAccumulatorEntry@2@@Z
	?InsertAt@?$KArrayTemplate@PAVAESequence@KFbxUserNotification@fbxsdk_20100@@@fbxsdk_20100@@QAEHHPAVAESequence@KFbxUserNotification@2@@Z
	??0AccumulatorEntry@fbxsdk_20100@@QAE@W4AEClass@01@ABVKString@1@1V31@_N@Z
	??0AccumulatorEntry@fbxsdk_20100@@QAE@ABV01@_N@Z
	?ResetAccumulator@KFbxUserNotification@fbxsdk_20100@@IAEXXZ
	?ClearAccumulator@KFbxUserNotification@fbxsdk_20100@@QAEXXZ
	?OutputById@KFbxUserNotification@fbxsdk_20100@@QAE_NW4AEid@12@W4OutputSource@12@_N@Z
	?Output@KFbxUserNotification@fbxsdk_20100@@QAE_NABVKString@2@0W4AEClass@AccumulatorEntry@2@_N@Z
	?Output@KFbxUserNotification@fbxsdk_20100@@QAE_NAAVKFbxUserNotificationFilteredIterator@2@_N@Z
	?SendToLog@KFbxUserNotification@fbxsdk_20100@@IAEXW4OutputSource@12@H@Z
	??_GKFbxUserNotificationFilteredIterator@fbxsdk_20100@@UAEPAXI@Z
	?Add@?$KArrayTemplate@PAVAccumulatorEntry@fbxsdk_20100@@@fbxsdk_20100@@QAEHPAVAccumulatorEntry@2@@Z
	?Add@?$KArrayTemplate@PAVAESequence@KFbxUserNotification@fbxsdk_20100@@@fbxsdk_20100@@QAEHPAVAESequence@KFbxUserNotification@2@@Z
	?Destroy@KFbxUserNotification@fbxsdk_20100@@SAXPAVKFbxSdkManager@2@@Z
	?AddEntry@KFbxUserNotification@fbxsdk_20100@@QAEHHABVKString@2@0W4AEClass@AccumulatorEntry@2@@Z
	?AddDetail@KFbxUserNotification@fbxsdk_20100@@QAEHHVKString@2@@Z
	?AddDetail@KFbxUserNotification@fbxsdk_20100@@QAEHH@Z
	?AddDetail@KFbxUserNotification@fbxsdk_20100@@QAEHHPAVKFbxNode@2@@Z
	?Output@KFbxUserNotification@fbxsdk_20100@@QAE_NW4OutputSource@12@H_N@Z
	?BuildFilteredList@KFbxUserNotificationFilteredIterator@fbxsdk_20100@@MAEXAAVKFbxUserNotification@2@@Z
	?InitAccumulator@KFbxUserNotification@fbxsdk_20100@@QAEXXZ
	??0KFbxUserNotificationFilteredIterator@fbxsdk_20100@@QAE@AAVKFbxUserNotification@1@HW4OutputSource@21@_N@Z
	?Create@KFbxUserNotification@fbxsdk_20100@@SAPAV12@PAVKFbxSdkManager@2@ABVKString@2@1@Z
	?smMutex@?$KFbxEvent@VKFbxObjectPropertyChanged@fbxsdk_20100@@@kfbxevents@fbxsdk_20100@@0VKFbxMutex@kfbxmp@3@A
	?Serialize@KFbxMessageSerializer@fbxsdk_20100@@SAXPAVKFbxMessage@2@AAPAXAAK@Z
	?WriteOneMessage@KFbxPipeForwarder@fbxsdk_20100@@SA_NAAVKFbxNamedPipe@2@AAVKFbxMessage@2@@Z
	?Deserialize@KFbxMessageSerializer@fbxsdk_20100@@SAPAVKFbxMessage@2@PBXH@Z
	?ReceiveLogMessage@KFbxPipeForwarder@fbxsdk_20100@@UAEXPAVKFbxMessage@2@@Z
	?ReadOneMessage@KFbxPipeRetransmitter@fbxsdk_20100@@SAPAVKFbxMessage@2@PBDH@Z
	?ReadOneMessage@KFbxPipeRetransmitter@fbxsdk_20100@@SAPAVKFbxMessage@2@AAVKFbxNamedPipe@2@H@Z
	?RetransmitPipeMessage@KFbxPipeRetransmitter@fbxsdk_20100@@QAE_NPAVKFbxSdkManager@2@H@Z
	?smMutex@?$KFbxEvent@VKFbxObjectPropertyChanged@fbxsdk_20100@@@kfbxevents@fbxsdk_20100@@0VKFbxMutex@kfbxmp@3@A
	?AddListener@KFbxMessageEmitter@fbxsdk_20100@@UAEXAAVKFbxMessageListener@2@@Z
	?RemoveListener@KFbxMessageEmitter@fbxsdk_20100@@UAEXAAVKFbxMessageListener@2@@Z
	??0?$KMap@VKString@fbxsdk_20100@@V12@U?$KFbxLessCompare@VKString@fbxsdk_20100@@@2@VKBaseAllocator@2@@fbxsdk_20100@@QAE@XZ
	??1?$KMap@VKString@fbxsdk_20100@@V12@U?$KFbxLessCompare@VKString@fbxsdk_20100@@@2@VKBaseAllocator@2@@fbxsdk_20100@@QAE@XZ
	??0KFbxMessage@fbxsdk_20100@@IAE@PBD@Z
	??_7KFbxMessage@fbxsdk_20100@@6B@
	??_R4KFbxMessage@fbxsdk_20100@@6B@
	??_R0?AVKFbxMessage@fbxsdk_20100@@@8
	??_R3KFbxMessage@fbxsdk_20100@@8
	??_R2KFbxMessage@fbxsdk_20100@@8
	??_R1A@?0A@EA@KFbxMessage@fbxsdk_20100@@8
	?GetClassName@KFbxMessage@fbxsdk_20100@@MAE?AVKString@2@XZ
	??0KFbxMessage@fbxsdk_20100@@IAE@XZ
	??1KFbxMessage@fbxsdk_20100@@MAE@XZ
	?Create@KFbxMessage@fbxsdk_20100@@SAPAV12@PBD@Z
	??_GKFbxMessage@fbxsdk_20100@@MAEPAXI@Z
	?max_size@?$allocator@U?$pair@$$CBVKString@fbxsdk_20100@@V12@@std@@@std@@QBEIXZ
	??0?$pair@$$CBVKString@fbxsdk_20100@@V12@@std@@QAE@ABU01@@Z
	??0?$_Container_base_aux_alloc_empty@V?$allocator@U?$pair@$$CBVKString@fbxsdk_20100@@V12@@std@@@std@@@std@@IAE@V?$allocator@U?$pair@$$CBVKString@fbxsdk_20100@@V12@@std@@@1@@Z
	?Create@KFbxLogMsg@fbxsdk_20100@@SAPAV12@PBD@Z
	??_GKFbxLogMsg@fbxsdk_20100@@MAEPAXI@Z
	?Format@KFbxLogMsg@fbxsdk_20100@@UAE_NPADHPAVKFbxLocalization@2@@Z
	??_GKFbxLogConsole@fbxsdk_20100@@UAEPAXI@Z
	??0KFbxLogBase@fbxsdk_20100@@QAE@XZ
	??_7KFbxLogBase@fbxsdk_20100@@6B@
	??_R4KFbxLogBase@fbxsdk_20100@@6B@
	??_GKFbxLogBase@fbxsdk_20100@@UAEPAXI@Z
	??0KFbxLogCallback@fbxsdk_20100@@QAE@PBD@Z
	??_GKFbxLogCallback@fbxsdk_20100@@UAEPAXI@Z
	??0KFbxLogFile@fbxsdk_20100@@QAE@PBD@Z
	??_7KFbxLogFile@fbxsdk_20100@@6B@
	??_R4KFbxLogFile@fbxsdk_20100@@6B@
	??_R0?AVKFbxLogFile@fbxsdk_20100@@@8
	??_R3KFbxLogFile@fbxsdk_20100@@8
	??_R2KFbxLogFile@fbxsdk_20100@@8
	??_R1A@?0A@EA@KFbxLogFile@fbxsdk_20100@@8
	??1KFbxLogFile@fbxsdk_20100@@UAE@XZ
	??0KFbxLogConsole@fbxsdk_20100@@QAE@PBD@Z
	??_GKFbxLogFile@fbxsdk_20100@@UAEPAXI@Z
	?GetMessagePrefix@KFbxLogMsg@fbxsdk_20100@@UBEPBDXZ
	??1?$map@VKString@fbxsdk_20100@@V12@U?$less@VKString@fbxsdk_20100@@@std@@V?$allocator@U?$pair@$$CBVKString@fbxsdk_20100@@V12@@std@@@4@@std@@QAE@XZ
	?UnregisterMessagePrefix@KFbxLogMsg@fbxsdk_20100@@SAXPBD@Z
	??0?$map@VKString@fbxsdk_20100@@V12@U?$less@VKString@fbxsdk_20100@@@std@@V?$allocator@U?$pair@$$CBVKString@fbxsdk_20100@@V12@@std@@@4@@std@@QAE@XZ
	??A?$map@VKString@fbxsdk_20100@@V12@U?$less@VKString@fbxsdk_20100@@@std@@V?$allocator@U?$pair@$$CBVKString@fbxsdk_20100@@V12@@std@@@4@@std@@QAEAAVKString@fbxsdk_20100@@ABV23@@Z
	?RegisterMessagePrefix@KFbxLogMsg@fbxsdk_20100@@SAXPBD0@Z
	?smMutex@?$KFbxEvent@VKFbxObjectPropertyChanged@fbxsdk_20100@@@kfbxevents@fbxsdk_20100@@0VKFbxMutex@kfbxmp@3@A
	?GetTargetCount@KFbxLocalizationData@fbxsdk_20100@@QBEHXZ
	?GetLocalizedCount@KFbxLocalization@fbxsdk_20100@@QBEHXZ
	?GetLocalizationRepositoryFolder@KFbxLocalizationManager@fbxsdk_20100@@QBE?AVKString@2@XZ
	?SetLocalizationRepositoryFolder@KFbxLocalizationManager@fbxsdk_20100@@QAEXPBD@Z
	?GetLocalizationBaseNamePrefix@KFbxLocalizationManager@fbxsdk_20100@@QBE?AVKString@2@XZ
	?SetLocalizationBaseNamePrefix@KFbxLocalizationManager@fbxsdk_20100@@QAEXPBD@Z
	?GetLocalizationFileName@KFbxLocalizationManager@fbxsdk_20100@@QBE?AVKString@2@PBD@Z
	?Get@KFbxLocalizationData@fbxsdk_20100@@QBEPBDPBD@Z
	?GetAll@KFbxLocalizationData@fbxsdk_20100@@QBE_NHPAVKString@2@00@Z
	?GetLocalizedMessage@KFbxLocalization@fbxsdk_20100@@QBEPBDPBD0@Z
	?HasLocalizedMessage@KFbxLocalization@fbxsdk_20100@@QBE_NPBD@Z
	?GetLocalizedMessageByIndex@KFbxLocalization@fbxsdk_20100@@QBE_NHPAVKString@2@00@Z
	?SaveXLIFF@fbxsdk_20100@@YA_NPBVKFbxLocalization@1@PBD@Z
	?Add@KFbxLocalizationData@fbxsdk_20100@@QAEPBDPBD@Z
	??A?$map@PBDUKFbxLocalizationTriplet@fbxsdk_20100@@UStringCompare@2@V?$allocator@U?$pair@QBDUKFbxLocalizationTriplet@fbxsdk_20100@@@std@@@std@@@std@@QAEAAUKFbxLocalizationTriplet@fbxsdk_20100@@ABQBD@Z
	??A?$map@VKString@fbxsdk_20100@@PAVKFbxLocalization@2@UCaseInsensitiveCompare@2@V?$allocator@U?$pair@$$CBVKString@fbxsdk_20100@@PAVKFbxLocalization@2@@std@@@std@@@std@@QAEAAPAVKFbxLocalization@fbxsdk_20100@@ABVKString@3@@Z
	?Add@KFbxLocalizationData@fbxsdk_20100@@QAE_NPBD00@Z
	??1?$map@PBDUKFbxLocalizationTriplet@fbxsdk_20100@@UStringCompare@2@V?$allocator@U?$pair@QBDUKFbxLocalizationTriplet@fbxsdk_20100@@@std@@@std@@@std@@QAE@XZ
	??1?$set@PBDUStringCompare@fbxsdk_20100@@V?$allocator@PBD@std@@@std@@QAE@XZ
	?AddLocalizedMessage@KFbxLocalization@fbxsdk_20100@@QAEXPBD00@Z
	??1?$map@VKString@fbxsdk_20100@@PAVKFbxLocalization@2@UCaseInsensitiveCompare@2@V?$allocator@U?$pair@$$CBVKString@fbxsdk_20100@@PAVKFbxLocalization@2@@std@@@std@@@std@@QAE@XZ
	??1KFbxLocalizationManagerData@fbxsdk_20100@@QAE@XZ
	??0?$map@PBDUKFbxLocalizationTriplet@fbxsdk_20100@@UStringCompare@2@V?$allocator@U?$pair@QBDUKFbxLocalizationTriplet@fbxsdk_20100@@@std@@@std@@@std@@QAE@XZ
	??0?$set@PBDUStringCompare@fbxsdk_20100@@V?$allocator@PBD@std@@@std@@QAE@XZ
	??0?$map@VKString@fbxsdk_20100@@PAVKFbxLocalization@2@UCaseInsensitiveCompare@2@V?$allocator@U?$pair@$$CBVKString@fbxsdk_20100@@PAVKFbxLocalization@2@@std@@@std@@@std@@QAE@XZ
	??1KFbxLocalizationData@fbxsdk_20100@@QAE@XZ
	?LoadXLIFF@fbxsdk_20100@@YA_NPAVKFbxLocalization@1@PBD@Z
	??0KFbxLocalizationData@fbxsdk_20100@@QAE@XZ
	??0KFbxLocalizationManagerData@fbxsdk_20100@@QAE@XZ
	??0KFbxLocalizationManager@fbxsdk_20100@@QAE@XZ
	??0KFbxLocalization@fbxsdk_20100@@IAE@PBD@Z
	??1KFbxLocalization@fbxsdk_20100@@QAE@XZ
	?Create@KFbxLocalization@fbxsdk_20100@@SAPAV12@PBD@Z
	?ResetKnownLocales@KFbxLocalizationManager@fbxsdk_20100@@QAEXXZ
	?LoadXLIFF@fbxsdk_20100@@YAPAVKFbxLocalization@1@PBD0@Z
	??1KFbxLocalizationManager@fbxsdk_20100@@QAE@XZ
	?GetLocalization@KFbxLocalizationManager@fbxsdk_20100@@QBEPAVKFbxLocalization@2@PBD@Z
	?InitializeKnownLocales@KFbxLocalizationManager@fbxsdk_20100@@QBEXXZ
	?GetKnownLocaleCount@KFbxLocalizationManager@fbxsdk_20100@@QBEHXZ
	?GetKnownLocale@KFbxLocalizationManager@fbxsdk_20100@@QBE?AVKString@2@H@Z
	?GetCurrentLocalization@KFbxLocalizationManager@fbxsdk_20100@@QBEPAVKFbxLocalization@2@XZ
	?SetCurrentLocalization@KFbxLocalizationManager@fbxsdk_20100@@QAE_NPBD@Z
	?smMutex@?$KFbxEvent@VKFbxObjectPropertyChanged@fbxsdk_20100@@@kfbxevents@fbxsdk_20100@@0VKFbxMutex@kfbxmp@3@A
	??1?$map@VKString@fbxsdk_20100@@HU?$less@VKString@fbxsdk_20100@@@std@@V?$allocator@U?$pair@$$CBVKString@fbxsdk_20100@@H@std@@@4@@std@@QAE@XZ
	??0?$map@VKString@fbxsdk_20100@@HU?$less@VKString@fbxsdk_20100@@@std@@V?$allocator@U?$pair@$$CBVKString@fbxsdk_20100@@H@std@@@4@@std@@QAE@XZ
	?GetStaticTypeId@KFbxEventBase@kfbxevents@fbxsdk_20100@@KAHPBD@Z
	?smMutex@KFbxEventBase@kfbxevents@fbxsdk_20100@@0VKFbxMutex@kfbxmp@3@A
	?Fill@?$KDynamicArray@UFilePathData@KFbxProcessorShaderDependency@fbxsdk_20100@@VKBaseAllocator@3@@fbxsdk_20100@@CAXPAUFilePathData@KFbxProcessorShaderDependency@2@ABU342@I@Z
	??1ListItem@?$KHashMap@VKString@fbxsdk_20100@@UDependency@KFbxProcessorShaderDependency@2@VKStringHash@42@V?$NoOpDestruct@UDependency@KFbxProcessorShaderDependency@fbxsdk_20100@@@2@V?$DefaultComparator@VKString@fbxsdk_20100@@@2@@fbxsdk_20100@@QAE@XZ
	?GetArray@?$KArrayTemplate@PAVListItem@?$KHashMap@VKString@fbxsdk_20100@@UDependency@KFbxProcessorShaderDependency@2@VKStringHash@42@V?$NoOpDestruct@UDependency@KFbxProcessorShaderDependency@fbxsdk_20100@@@2@V?$DefaultComparator@VKString@fbxsdk_20100@@@2@@fbxsdk_20100@@@fbxsdk_20100@@QBEPAPAVListItem@?$KHashMap@VKString@fbxsdk_20100@@UDependency@KFbxProcessorShaderDependency@2@VKStringHash@42@V?$NoOpDestruct@UDependency@KFbxProcessorShaderDependency@fbxsdk_20100@@@2@V?$DefaultComparator@VKString@fbxsdk_20100@@@2@@2@XZ
	??1?$KBaseArray@V?$KBaseArraySizeType@PAVListItem@?$KHashMap@VKString@fbxsdk_20100@@UDependency@KFbxProcessorShaderDependency@2@VKStringHash@42@V?$NoOpDestruct@UDependency@KFbxProcessorShaderDependency@fbxsdk_20100@@@2@V?$DefaultComparator@VKString@fbxsdk_20100@@@2@@fbxsdk_20100@@@fbxsdk_20100@@@fbxsdk_20100@@IAE@XZ
	?GetTypeSize@?$KBaseArray@V?$KBaseArraySizeType@PAVListItem@?$KHashMap@VKString@fbxsdk_20100@@UDependency@KFbxProcessorShaderDependency@2@VKStringHash@42@V?$NoOpDestruct@UDependency@KFbxProcessorShaderDependency@fbxsdk_20100@@@2@V?$DefaultComparator@VKString@fbxsdk_20100@@@2@@fbxsdk_20100@@@fbxsdk_20100@@@fbxsdk_20100@@QBEHXZ
	?GetArrayCount@?$KBaseArray@V?$KBaseArraySizeType@PAVListItem@?$KHashMap@VKString@fbxsdk_20100@@UDependency@KFbxProcessorShaderDependency@2@VKStringHash@42@V?$NoOpDestruct@UDependency@KFbxProcessorShaderDependency@fbxsdk_20100@@@2@V?$DefaultComparator@VKString@fbxsdk_20100@@@2@@fbxsdk_20100@@@fbxsdk_20100@@@fbxsdk_20100@@IBEHXZ
	?SetArrayCount@?$KBaseArray@V?$KBaseArraySizeType@PAVListItem@?$KHashMap@VKString@fbxsdk_20100@@UDependency@KFbxProcessorShaderDependency@2@VKStringHash@42@V?$NoOpDestruct@UDependency@KFbxProcessorShaderDependency@fbxsdk_20100@@@2@V?$DefaultComparator@VKString@fbxsdk_20100@@@2@@fbxsdk_20100@@@fbxsdk_20100@@@fbxsdk_20100@@IAEXH@Z
	?GetBlockCount@?$KBaseArray@V?$KBaseArraySizeType@PAVListItem@?$KHashMap@VKString@fbxsdk_20100@@UDependency@KFbxProcessorShaderDependency@2@VKStringHash@42@V?$NoOpDestruct@UDependency@KFbxProcessorShaderDependency@fbxsdk_20100@@@2@V?$DefaultComparator@VKString@fbxsdk_20100@@@2@@fbxsdk_20100@@@fbxsdk_20100@@@fbxsdk_20100@@IBEHXZ
	?SetBlockCount@?$KBaseArray@V?$KBaseArraySizeType@PAVListItem@?$KHashMap@VKString@fbxsdk_20100@@UDependency@KFbxProcessorShaderDependency@2@VKStringHash@42@V?$NoOpDestruct@UDependency@KFbxProcessorShaderDependency@fbxsdk_20100@@@2@V?$DefaultComparator@VKString@fbxsdk_20100@@@2@@fbxsdk_20100@@@fbxsdk_20100@@@fbxsdk_20100@@IAEXH@Z
	?Clone@KFbxProcessorShaderDependency@fbxsdk_20100@@MBEPAVKFbxObject@2@PAV32@W4ECloneType@32@@Z
	?ClearProcessedFiles@KFbxProcessorShaderDependency@fbxsdk_20100@@QAEXXZ
	?StaticInit@?$KFbxTypedProperty@VKString@fbxsdk_20100@@@fbxsdk_20100@@QAEABVKFbxProperty@2@PAVKFbxObject@2@PBDABVKFbxDataType@2@ABVKString@2@_NW4eFbxPropertyFlags@FbxPropertyFlags@2@@Z
	?StaticInit@?$KFbxTypedProperty@_N@fbxsdk_20100@@QAEABVKFbxProperty@2@PAVKFbxObject@2@PBDABVKFbxDataType@2@AB_N_NW4eFbxPropertyFlags@FbxPropertyFlags@2@@Z
	??DIterator@?$KHashMap@VKString@fbxsdk_20100@@UDependency@KFbxProcessorShaderDependency@2@VKStringHash@42@V?$NoOpDestruct@UDependency@KFbxProcessorShaderDependency@fbxsdk_20100@@@2@V?$DefaultComparator@VKString@fbxsdk_20100@@@2@@fbxsdk_20100@@QBE?AV?$KPair@VKString@fbxsdk_20100@@UDependency@KFbxProcessorShaderDependency@2@@2@XZ
	?PushBack@?$KDynamicArray@UFilePathData@KFbxProcessorShaderDependency@fbxsdk_20100@@VKBaseAllocator@3@@fbxsdk_20100@@QAEXABUFilePathData@KFbxProcessorShaderDependency@2@I@Z
	??0?$KArrayTemplate@PAVListItem@?$KHashMap@VKString@fbxsdk_20100@@UDependency@KFbxProcessorShaderDependency@2@VKStringHash@42@V?$NoOpDestruct@UDependency@KFbxProcessorShaderDependency@fbxsdk_20100@@@2@V?$DefaultComparator@VKString@fbxsdk_20100@@@2@@fbxsdk_20100@@@fbxsdk_20100@@QAE@XZ
	??1?$KArrayTemplate@PAVListItem@?$KHashMap@VKString@fbxsdk_20100@@UDependency@KFbxProcessorShaderDependency@2@VKStringHash@42@V?$NoOpDestruct@UDependency@KFbxProcessorShaderDependency@fbxsdk_20100@@@2@V?$DefaultComparator@VKString@fbxsdk_20100@@@2@@fbxsdk_20100@@@fbxsdk_20100@@QAE@XZ
	?SetAt@?$KArrayTemplate@PAVListItem@?$KHashMap@VKString@fbxsdk_20100@@UDependency@KFbxProcessorShaderDependency@2@VKStringHash@42@V?$NoOpDestruct@UDependency@KFbxProcessorShaderDependency@fbxsdk_20100@@@2@V?$DefaultComparator@VKString@fbxsdk_20100@@@2@@fbxsdk_20100@@@fbxsdk_20100@@QAEXHPAVListItem@?$KHashMap@VKString@fbxsdk_20100@@UDependency@KFbxProcessorShaderDependency@2@VKStringHash@42@V?$NoOpDestruct@UDependency@KFbxProcessorShaderDependency@fbxsdk_20100@@@2@V?$DefaultComparator@VKString@fbxsdk_20100@@@2@@2@@Z
	?GetCount@?$KBaseArray@V?$KBaseArraySizeType@PAVListItem@?$KHashMap@VKString@fbxsdk_20100@@UDependency@KFbxProcessorShaderDependency@2@VKStringHash@42@V?$NoOpDestruct@UDependency@KFbxProcessorShaderDependency@fbxsdk_20100@@@2@V?$DefaultComparator@VKString@fbxsdk_20100@@@2@@fbxsdk_20100@@@fbxsdk_20100@@@fbxsdk_20100@@QBEHXZ
	?Resize@?$KBaseArray@V?$KBaseArraySizeType@PAVListItem@?$KHashMap@VKString@fbxsdk_20100@@UDependency@KFbxProcessorShaderDependency@2@VKStringHash@42@V?$NoOpDestruct@UDependency@KFbxProcessorShaderDependency@fbxsdk_20100@@@2@V?$DefaultComparator@VKString@fbxsdk_20100@@@2@@fbxsdk_20100@@@fbxsdk_20100@@@fbxsdk_20100@@QAEXH@Z
	?Destruct@KFbxProcessorShaderDependency@fbxsdk_20100@@MAEX_N0@Z
	?ConstructProperties@KFbxProcessorShaderDependency@fbxsdk_20100@@MAE_N_N@Z
	?GetIncludePaths@KFbxProcessorShaderDependency@fbxsdk_20100@@MBE_NAAVKString@2@AAV?$KDynamicArray@UFilePathData@KFbxProcessorShaderDependency@fbxsdk_20100@@VKBaseAllocator@3@@2@AAVKFbxXRefManager@2@@Z
	??0?$KHashMap@VKString@fbxsdk_20100@@UDependency@KFbxProcessorShaderDependency@2@VKStringHash@42@V?$NoOpDestruct@UDependency@KFbxProcessorShaderDependency@fbxsdk_20100@@@2@V?$DefaultComparator@VKString@fbxsdk_20100@@@2@@fbxsdk_20100@@QAE@XZ
	?Clear@?$KHashMap@VKString@fbxsdk_20100@@UDependency@KFbxProcessorShaderDependency@2@VKStringHash@42@V?$NoOpDestruct@UDependency@KFbxProcessorShaderDependency@fbxsdk_20100@@@2@V?$DefaultComparator@VKString@fbxsdk_20100@@@2@@fbxsdk_20100@@QAEXXZ
	?Find@?$KHashMap@VKString@fbxsdk_20100@@UDependency@KFbxProcessorShaderDependency@2@VKStringHash@42@V?$NoOpDestruct@UDependency@KFbxProcessorShaderDependency@fbxsdk_20100@@@2@V?$DefaultComparator@VKString@fbxsdk_20100@@@2@@fbxsdk_20100@@QBE?BVIterator@12@ABVKString@2@@Z
	??A?$KHashMap@VKString@fbxsdk_20100@@UDependency@KFbxProcessorShaderDependency@2@VKStringHash@42@V?$NoOpDestruct@UDependency@KFbxProcessorShaderDependency@fbxsdk_20100@@@2@V?$DefaultComparator@VKString@fbxsdk_20100@@@2@@fbxsdk_20100@@QAEAAUDependency@KFbxProcessorShaderDependency@1@ABVKString@1@@Z
	?Start@?$KHashMap@VKString@fbxsdk_20100@@UDependency@KFbxProcessorShaderDependency@2@VKStringHash@42@V?$NoOpDestruct@UDependency@KFbxProcessorShaderDependency@fbxsdk_20100@@@2@V?$DefaultComparator@VKString@fbxsdk_20100@@@2@@fbxsdk_20100@@QBE?AVIterator@12@XZ
	?Next@Iterator@?$KHashMap@VKString@fbxsdk_20100@@UDependency@KFbxProcessorShaderDependency@2@VKStringHash@42@V?$NoOpDestruct@UDependency@KFbxProcessorShaderDependency@fbxsdk_20100@@@2@V?$DefaultComparator@VKString@fbxsdk_20100@@@2@@fbxsdk_20100@@QAEXXZ
	?AddDependency@KFbxProcessorShaderDependency@fbxsdk_20100@@AAE_NAAVKString@2@@Z
	?ReplaceUrls@KFbxProcessorShaderDependency@fbxsdk_20100@@MBE_NABVKString@2@0ABV?$KDynamicArray@UFilePathData@KFbxProcessorShaderDependency@fbxsdk_20100@@VKBaseAllocator@3@@2@@Z
	??1?$KHashMap@VKString@fbxsdk_20100@@UDependency@KFbxProcessorShaderDependency@2@VKStringHash@42@V?$NoOpDestruct@UDependency@KFbxProcessorShaderDependency@fbxsdk_20100@@@2@V?$DefaultComparator@VKString@fbxsdk_20100@@@2@@fbxsdk_20100@@QAE@XZ
	??0KFbxProcessorShaderDependency@fbxsdk_20100@@IAE@AAVKFbxSdkManager@1@PBD@Z
	??_7KFbxProcessorShaderDependency@fbxsdk_20100@@6B@
	??_R4KFbxProcessorShaderDependency@fbxsdk_20100@@6B@
	??_R0?AVKFbxProcessorShaderDependency@fbxsdk_20100@@@8
	??_R3KFbxProcessorShaderDependency@fbxsdk_20100@@8
	??_R2KFbxProcessorShaderDependency@fbxsdk_20100@@8
	??_R1A@?0A@EA@KFbxProcessorShaderDependency@fbxsdk_20100@@8
	?GetClassId@KFbxProcessorShaderDependency@fbxsdk_20100@@UBE?AVkFbxClassId@2@XZ
	??1KFbxProcessorShaderDependency@fbxsdk_20100@@UAE@XZ
	??_GKFbxProcessorShaderDependency@fbxsdk_20100@@UAEPAXI@Z
	?ParseDependencies@KFbxProcessorShaderDependency@fbxsdk_20100@@AAE_NABVKFbxBindingTable@2@@Z
	?internal_ProcessObject@KFbxProcessorShaderDependency@fbxsdk_20100@@MAE_NPAVKFbxObject@2@@Z
