EXPORTS
   ??0KFbxMutex@kfbxmp@fbxsdk_20102@@QAE@XZ
   ??1KFbxMutex@kfbxmp@fbxsdk_20102@@QAE@XZ
   ??$?0PAVInitializer@awUtil@fbxsdk_20102@@PAV012@@?$pair@PAVInitializer@awUtil@fbxsdk_20102@@PAV123@@aw@fbxsdk_20102@@QAE@ABQAVInitializer@awUtil@2@0@Z
   ??$?0VKString@fbxsdk_20102@@H@?$pair@$$CBVKString@fbxsdk_20102@@H@std@@QAE@ABU?$pair@VKString@fbxsdk_20102@@H@1@@Z
   ??$?8PAU_xmlDoc@fbxsdk_20102@@PAU01@@std@@YA_NABV?$allocator@PAU_xmlDoc@fbxsdk_20102@@@0@0@Z
   ??$?8PAVCacheItem@awUtil@fbxsdk_20102@@PAV012@@std@@YA_NABV?$allocator@PAVCacheItem@awUtil@fbxsdk_20102@@@0@0@Z
   ??$_Adjust_heap@PAPAVInitializer@awUtil@fbxsdk_20102@@HPAV123@VCountOrdering@?A0x1cd43906@3@@std@@YAXPAPAVInitializer@awUtil@fbxsdk_20102@@HHPAV123@VCountOrdering@?A0x1cd43906@3@@Z
   ??$_Adjust_heap@PAVCString@awString@fbxsdk_20102@@HV123@@std@@YAXPAVCString@awString@fbxsdk_20102@@HHV123@@Z
   ??$_Allocate@PAPAU_xmlNode@fbxsdk_20102@@@std@@YAPAPAPAU_xmlNode@fbxsdk_20102@@IPAPAPAU12@@Z
   ??$_Allocate@PAPAVInitializer@awUtil@fbxsdk_20102@@@std@@YAPAPAPAVInitializer@awUtil@fbxsdk_20102@@IPAPAPAV123@@Z
   ??$_Allocate@PAU_xmlNode@fbxsdk_20102@@@std@@YAPAPAU_xmlNode@fbxsdk_20102@@IPAPAU12@@Z
   ??$_Allocate@PAVawCacheChannel@fbxsdk_20102@@@std@@YAPAPAVawCacheChannel@fbxsdk_20102@@IPAPAV12@@Z
   ??$_Allocate@PAVawCacheData@fbxsdk_20102@@@std@@YAPAPAVawCacheData@fbxsdk_20102@@IPAPAV12@@Z
   ??$_Allocate@PAVInitializer@awUtil@fbxsdk_20102@@@std@@YAPAPAVInitializer@awUtil@fbxsdk_20102@@IPAPAV123@@Z
   ??$_Allocate@PAVKFbxDocument@fbxsdk_20102@@@std@@YAPAPAVKFbxDocument@fbxsdk_20102@@IPAPAV12@@Z
   ??$_Allocate@PAVKFbxNode@fbxsdk_20102@@@std@@YAPAPAVKFbxNode@fbxsdk_20102@@IPAPAV12@@Z
   ??$_Allocate@PAVKFbxProperty@fbxsdk_20102@@@std@@YAPAPAVKFbxProperty@fbxsdk_20102@@IPAPAV12@@Z
   ??$_Allocate@PAVThread@awThread@fbxsdk_20102@@@std@@YAPAPAVThread@awThread@fbxsdk_20102@@IPAPAV123@@Z
   ??$_Allocate@UMemoryBlock@?A0xefc851d3@fbxsdk_20102@@@std@@YAPAUMemoryBlock@?A0xefc851d3@fbxsdk_20102@@IPAU123@@Z
   ??$_Allocate@UProgressState@?A0x88b70b57@fbxsdk_20102@@@std@@YAPAUProgressState@?A0x88b70b57@fbxsdk_20102@@IPAU123@@Z
   ??$_Allocate@V?$KPair@HH@fbxsdk_20102@@@std@@YAPAV?$KPair@HH@fbxsdk_20102@@IPAV12@@Z
   ??$_Allocate@VawCachePerChannelInfo@fbxsdk_20102@@@std@@YAPAVawCachePerChannelInfo@fbxsdk_20102@@IPAV12@@Z
   ??$_Allocate@VIString@awString@fbxsdk_20102@@@std@@YAPAVIString@awString@fbxsdk_20102@@IPAV123@@Z
   ??$_Allocate@VKFbxProperty@fbxsdk_20102@@@std@@YAPAVKFbxProperty@fbxsdk_20102@@IPAV12@@Z
   ??$_Construct@PAU_xmlNode@fbxsdk_20102@@PAU12@@std@@YAXPAPAU_xmlNode@fbxsdk_20102@@ABQAU12@@Z
   ??$_Construct@PAVCacheItem@awUtil@fbxsdk_20102@@PAV123@@std@@YAXPAPAVCacheItem@awUtil@fbxsdk_20102@@ABQAV123@@Z
   ??$_Construct@PAVInitializer@awUtil@fbxsdk_20102@@PAV123@@std@@YAXPAPAVInitializer@awUtil@fbxsdk_20102@@ABQAV123@@Z
   ??$_Construct@PAVKFbxDocument@fbxsdk_20102@@PAV12@@std@@YAXPAPAVKFbxDocument@fbxsdk_20102@@ABQAV12@@Z
   ??$_Construct@PAVKFbxImplementation@fbxsdk_20102@@PAV12@@std@@YAXPAPAVKFbxImplementation@fbxsdk_20102@@ABQAV12@@Z
   ??$_Construct@UFileInformation@Impl@KFbxAssetWriter@fbxsdk_20102@@U1234@@std@@YAXPAUFileInformation@Impl@KFbxAssetWriter@fbxsdk_20102@@ABU1234@@Z
   ??$_Construct@UKReferenceDepth@?A0xce6eb6f4@fbxsdk_20102@@U123@@std@@YAXPAUKReferenceDepth@?A0xce6eb6f4@fbxsdk_20102@@ABU123@@Z
   ??$_Construct@UMemoryBlock@?A0xefc851d3@fbxsdk_20102@@U123@@std@@YAXPAUMemoryBlock@?A0xefc851d3@fbxsdk_20102@@ABU123@@Z
   ??$_Construct@UProgressState@?A0x88b70b57@fbxsdk_20102@@U123@@std@@YAXPAUProgressState@?A0x88b70b57@fbxsdk_20102@@ABU123@@Z
   ??$_Construct@V?$KPair@HH@fbxsdk_20102@@V12@@std@@YAXPAV?$KPair@HH@fbxsdk_20102@@ABV12@@Z
   ??$_Construct@VawCachePerChannelInfo@fbxsdk_20102@@V12@@std@@YAXPAVawCachePerChannelInfo@fbxsdk_20102@@ABV12@@Z
   ??$_Construct@VIString@awString@fbxsdk_20102@@V123@@std@@YAXPAVIString@awString@fbxsdk_20102@@ABV123@@Z
   ??$_Construct@VKFbxProperty@fbxsdk_20102@@V12@@std@@YAXPAVKFbxProperty@fbxsdk_20102@@ABV12@@Z
   ??$_Construct@VKString@fbxsdk_20102@@V12@@std@@YAXPAVKString@fbxsdk_20102@@ABV12@@Z
   ??$_Destroy@PAPAU_xmlNode@fbxsdk_20102@@@std@@YAXPAPAPAU_xmlNode@fbxsdk_20102@@@Z
   ??$_Destroy@PAPAVInitializer@awUtil@fbxsdk_20102@@@std@@YAXPAPAPAVInitializer@awUtil@fbxsdk_20102@@@Z
   ??$_Destroy@PAU_xmlNode@fbxsdk_20102@@@std@@YAXPAPAU_xmlNode@fbxsdk_20102@@@Z
   ??$_Destroy@PAVInitializer@awUtil@fbxsdk_20102@@@std@@YAXPAPAVInitializer@awUtil@fbxsdk_20102@@@Z
   ??$_Destroy@PAVKFbxProperty@fbxsdk_20102@@@std@@YAXPAPAVKFbxProperty@fbxsdk_20102@@@Z
   ??$_Destroy@UMemoryBlock@?A0xefc851d3@fbxsdk_20102@@@std@@YAXPAUMemoryBlock@?A0xefc851d3@fbxsdk_20102@@@Z
   ??$_Destroy@UProgressState@?A0x88b70b57@fbxsdk_20102@@@std@@YAXPAUProgressState@?A0x88b70b57@fbxsdk_20102@@@Z
   ??$_Destroy@V?$KPair@HH@fbxsdk_20102@@@std@@YAXPAV?$KPair@HH@fbxsdk_20102@@@Z
   ??$_Destroy@VawCachePerChannelInfo@fbxsdk_20102@@@std@@YAXPAVawCachePerChannelInfo@fbxsdk_20102@@@Z
   ??$_Destroy@VIString@awString@fbxsdk_20102@@@std@@YAXPAVIString@awString@fbxsdk_20102@@@Z
   ??$_Destroy@VKFbxProperty@fbxsdk_20102@@@std@@YAXPAVKFbxProperty@fbxsdk_20102@@@Z
   ??$_Dist_type@PAPAVInitializer@awUtil@fbxsdk_20102@@@std@@YAPAHPAPAVInitializer@awUtil@fbxsdk_20102@@@Z
   ??$_Dist_type@PAVCString@awString@fbxsdk_20102@@@std@@YAPAHPAVCString@awString@fbxsdk_20102@@@Z
   ??$_doJoin@VCString@awString@fbxsdk_20102@@@fbxsdk_20102@@YA?AVCString@awString@0@ABV?$vector@VCString@awString@fbxsdk_20102@@@aw@0@@Z
   ??$_doJoin@VIString@awString@fbxsdk_20102@@@fbxsdk_20102@@YA?AVIString@awString@0@ABV?$vector@VIString@awString@fbxsdk_20102@@@aw@0@@Z
   ??$_doSplitWithChar@VCString@awString@fbxsdk_20102@@D@fbxsdk_20102@@YA?AV?$vector@VCString@awString@fbxsdk_20102@@@aw@0@ABVCString@awString@0@D_N1@Z
   ??$_doSplitWithChar@VIString@awString@fbxsdk_20102@@_W@fbxsdk_20102@@YA?AV?$vector@VIString@awString@fbxsdk_20102@@@aw@0@ABVIString@awString@0@_W_N2@Z
   ??$_doSplitWithTestFunc@VCString@awString@fbxsdk_20102@@D@fbxsdk_20102@@YA?AV?$vector@VCString@awString@fbxsdk_20102@@@aw@0@ABVCString@awString@0@P6A_ND@Z_N2@Z
   ??$_doSplitWithTestFunc@VIString@awString@fbxsdk_20102@@_W@fbxsdk_20102@@YA?AV?$vector@VIString@awString@fbxsdk_20102@@@aw@0@ABVIString@awString@0@P6A_N_W@Z_N3@Z
   ??$_FbxTypeOf@I@fbxsdk_20102@@YA?AW4EFbxType@0@ABQAI@Z
   ??$_FbxTypeOf@VKFbxLayerElementArray@fbxsdk_20102@@@fbxsdk_20102@@YA?AW4EFbxType@0@ABQAVKFbxLayerElementArray@0@@Z
   ??$_FbxTypeOf@VKFbxSurfaceMaterial@fbxsdk_20102@@@fbxsdk_20102@@YA?AW4EFbxType@0@ABQAVKFbxSurfaceMaterial@0@@Z
   ??$_FbxTypeOf@VKFbxTexture@fbxsdk_20102@@@fbxsdk_20102@@YA?AW4EFbxType@0@ABQAVKFbxTexture@0@@Z
   ??$_Fill@PAPAVawCacheChannel@fbxsdk_20102@@PAV12@@std@@YAXPAPAVawCacheChannel@fbxsdk_20102@@0ABQAV12@@Z
   ??$_Fill@PAPAVawCacheData@fbxsdk_20102@@PAV12@@std@@YAXPAPAVawCacheData@fbxsdk_20102@@0ABQAV12@@Z
   ??$_Fill@PAPAVKFbxDocument@fbxsdk_20102@@PAV12@@std@@YAXPAPAVKFbxDocument@fbxsdk_20102@@0ABQAV12@@Z
   ??$_Fill@PAPAVKFbxNode@fbxsdk_20102@@PAV12@@std@@YAXPAPAVKFbxNode@fbxsdk_20102@@0ABQAV12@@Z
   ??$_Fill@PAPAVThread@awThread@fbxsdk_20102@@PAV123@@std@@YAXPAPAVThread@awThread@fbxsdk_20102@@0ABQAV123@@Z
   ??$_Fill@PAUMemoryBlock@?A0xefc851d3@fbxsdk_20102@@U123@@std@@YAXPAUMemoryBlock@?A0xefc851d3@fbxsdk_20102@@0ABU123@@Z
   ??$_Fill@PAUProgressState@?A0x88b70b57@fbxsdk_20102@@U123@@std@@YAXPAUProgressState@?A0x88b70b57@fbxsdk_20102@@0ABU123@@Z
   ??$_Fill@PAV?$KPair@HH@fbxsdk_20102@@V12@@std@@YAXPAV?$KPair@HH@fbxsdk_20102@@0ABV12@@Z
   ??$_Fill@PAVawCachePerChannelInfo@fbxsdk_20102@@V12@@std@@YAXPAVawCachePerChannelInfo@fbxsdk_20102@@0ABV12@@Z
   ??$_Fill@PAVIString@awString@fbxsdk_20102@@V123@@std@@YAXPAVIString@awString@fbxsdk_20102@@0ABV123@@Z
   ??$_Fill_n@PAPAPAU_xmlNode@fbxsdk_20102@@IPAPAU12@@std@@YAXPAPAPAU_xmlNode@fbxsdk_20102@@IABQAPAU12@U_Range_checked_iterator_tag@0@@Z
   ??$_Fill_n@PAPAPAVInitializer@awUtil@fbxsdk_20102@@IPAPAV123@@std@@YAXPAPAPAVInitializer@awUtil@fbxsdk_20102@@IABQAPAV123@U_Range_checked_iterator_tag@0@@Z
   ??$_Fill_n@PAPAVawCacheChannel@fbxsdk_20102@@IPAV12@@std@@YAXPAPAVawCacheChannel@fbxsdk_20102@@IABQAV12@U_Range_checked_iterator_tag@0@@Z
   ??$_Fill_n@PAPAVawCacheData@fbxsdk_20102@@IPAV12@@std@@YAXPAPAVawCacheData@fbxsdk_20102@@IABQAV12@U_Range_checked_iterator_tag@0@@Z
   ??$_Fill_n@PAPAVKFbxDocument@fbxsdk_20102@@IPAV12@@std@@YAXPAPAVKFbxDocument@fbxsdk_20102@@IABQAV12@U_Range_checked_iterator_tag@0@@Z
   ??$_Fill_n@PAPAVKFbxNode@fbxsdk_20102@@IPAV12@@std@@YAXPAPAVKFbxNode@fbxsdk_20102@@IABQAV12@U_Range_checked_iterator_tag@0@@Z
   ??$_Fill_n@PAPAVKFbxProperty@fbxsdk_20102@@IPAV12@@std@@YAXPAPAVKFbxProperty@fbxsdk_20102@@IABQAV12@U_Range_checked_iterator_tag@0@@Z
   ??$_Fill_n@PAPAVThread@awThread@fbxsdk_20102@@IPAV123@@std@@YAXPAPAVThread@awThread@fbxsdk_20102@@IABQAV123@U_Range_checked_iterator_tag@0@@Z
   ??$_Insertion_sort@PAPAVInitializer@awUtil@fbxsdk_20102@@VCountOrdering@?A0x1cd43906@3@@std@@YAXPAPAVInitializer@awUtil@fbxsdk_20102@@0VCountOrdering@?A0x1cd43906@3@@Z
   ??$_Insertion_sort@PAVCString@awString@fbxsdk_20102@@@std@@YAXPAVCString@awString@fbxsdk_20102@@0@Z
   ??$_Insertion_sort1@PAPAVInitializer@awUtil@fbxsdk_20102@@VCountOrdering@?A0x1cd43906@3@PAV123@@std@@YAXPAPAVInitializer@awUtil@fbxsdk_20102@@0VCountOrdering@?A0x1cd43906@3@0@Z
   ??$_Insertion_sort1@PAVCString@awString@fbxsdk_20102@@V123@@std@@YAXPAVCString@awString@fbxsdk_20102@@00@Z
   ??$_Iter_cat@PAPAPAU_xmlNode@fbxsdk_20102@@@std@@YA?AUrandom_access_iterator_tag@0@ABQAPAPAU_xmlNode@fbxsdk_20102@@@Z
   ??$_Iter_cat@PAPAPAVInitializer@awUtil@fbxsdk_20102@@@std@@YA?AUrandom_access_iterator_tag@0@ABQAPAPAVInitializer@awUtil@fbxsdk_20102@@@Z
   ??$_Iter_cat@PAPAVawCacheChannel@fbxsdk_20102@@@std@@YA?AUrandom_access_iterator_tag@0@ABQAPAVawCacheChannel@fbxsdk_20102@@@Z
   ??$_Iter_cat@PAPAVawCacheData@fbxsdk_20102@@@std@@YA?AUrandom_access_iterator_tag@0@ABQAPAVawCacheData@fbxsdk_20102@@@Z
   ??$_Iter_cat@PAPAVKFbxDocument@fbxsdk_20102@@@std@@YA?AUrandom_access_iterator_tag@0@ABQAPAVKFbxDocument@fbxsdk_20102@@@Z
   ??$_Iter_cat@PAPAVKFbxNode@fbxsdk_20102@@@std@@YA?AUrandom_access_iterator_tag@0@ABQAPAVKFbxNode@fbxsdk_20102@@@Z
   ??$_Iter_cat@PAPAVKFbxProperty@fbxsdk_20102@@@std@@YA?AUrandom_access_iterator_tag@0@ABQAPAVKFbxProperty@fbxsdk_20102@@@Z
   ??$_Iter_cat@PAPAVThread@awThread@fbxsdk_20102@@@std@@YA?AUrandom_access_iterator_tag@0@ABQAPAVThread@awThread@fbxsdk_20102@@@Z
   ??$_Iter_random@PAPAVawCacheChannel@fbxsdk_20102@@PAPAV12@@std@@YA?AUrandom_access_iterator_tag@0@ABQAPAVawCacheChannel@fbxsdk_20102@@0@Z
   ??$_Iter_random@PAPAVawCacheData@fbxsdk_20102@@PAPAV12@@std@@YA?AUrandom_access_iterator_tag@0@ABQAPAVawCacheData@fbxsdk_20102@@0@Z
   ??$_Iter_random@PAPAVInitializer@awUtil@fbxsdk_20102@@PAPAV123@@std@@YA?AUrandom_access_iterator_tag@0@ABQAPAVInitializer@awUtil@fbxsdk_20102@@0@Z
   ??$_Iter_random@PAPAVKFbxDocument@fbxsdk_20102@@PAPAV12@@std@@YA?AUrandom_access_iterator_tag@0@ABQAPAVKFbxDocument@fbxsdk_20102@@0@Z
   ??$_Iter_random@PAPAVKFbxNode@fbxsdk_20102@@PAPAV12@@std@@YA?AUrandom_access_iterator_tag@0@ABQAPAVKFbxNode@fbxsdk_20102@@0@Z
   ??$_Iter_random@PAPAVThread@awThread@fbxsdk_20102@@PAPAV123@@std@@YA?AUrandom_access_iterator_tag@0@ABQAPAVThread@awThread@fbxsdk_20102@@0@Z
   ??$_Iter_random@PAUMemoryBlock@?A0xefc851d3@fbxsdk_20102@@PAU123@@std@@YA?AUrandom_access_iterator_tag@0@ABQAUMemoryBlock@?A0xefc851d3@fbxsdk_20102@@0@Z
   ??$_Iter_random@PAUProgressState@?A0x88b70b57@fbxsdk_20102@@PAU123@@std@@YA?AUrandom_access_iterator_tag@0@ABQAUProgressState@?A0x88b70b57@fbxsdk_20102@@0@Z
   ??$_Iter_random@PAV?$KPair@HH@fbxsdk_20102@@PAV12@@std@@YA?AUrandom_access_iterator_tag@0@ABQAV?$KPair@HH@fbxsdk_20102@@0@Z
   ??$_Iter_random@PAVawCachePerChannelInfo@fbxsdk_20102@@PAV12@@std@@YA?AUrandom_access_iterator_tag@0@ABQAVawCachePerChannelInfo@fbxsdk_20102@@0@Z
   ??$_Iter_random@PAVCString@awString@fbxsdk_20102@@PAV123@@std@@YA?AUrandom_access_iterator_tag@0@ABQAVCString@awString@fbxsdk_20102@@0@Z
   ??$_Iter_random@PAVIString@awString@fbxsdk_20102@@PAV123@@std@@YA?AUrandom_access_iterator_tag@0@ABQAVIString@awString@fbxsdk_20102@@0@Z
   ??$_Make_heap@PAPAVInitializer@awUtil@fbxsdk_20102@@HPAV123@VCountOrdering@?A0x1cd43906@3@@std@@YAXPAPAVInitializer@awUtil@fbxsdk_20102@@0VCountOrdering@?A0x1cd43906@3@PAH0@Z
   ??$_Make_heap@PAVCString@awString@fbxsdk_20102@@HV123@@std@@YAXPAVCString@awString@fbxsdk_20102@@0PAH0@Z
   ??$_Med3@PAPAVInitializer@awUtil@fbxsdk_20102@@VCountOrdering@?A0x1cd43906@3@@std@@YAXPAPAVInitializer@awUtil@fbxsdk_20102@@00VCountOrdering@?A0x1cd43906@3@@Z
   ??$_Med3@PAVCString@awString@fbxsdk_20102@@@std@@YAXPAVCString@awString@fbxsdk_20102@@00@Z
   ??$_Median@PAPAVInitializer@awUtil@fbxsdk_20102@@VCountOrdering@?A0x1cd43906@3@@std@@YAXPAPAVInitializer@awUtil@fbxsdk_20102@@00VCountOrdering@?A0x1cd43906@3@@Z
   ??$_Median@PAVCString@awString@fbxsdk_20102@@@std@@YAXPAVCString@awString@fbxsdk_20102@@00@Z
   ??$_Move_backward_opt@PAPAVawCacheChannel@fbxsdk_20102@@PAPAV12@Urandom_access_iterator_tag@std@@U_Undefined_move_tag@4@@std@@YAPAPAVawCacheChannel@fbxsdk_20102@@PAPAV12@00Urandom_access_iterator_tag@0@U_Undefined_move_tag@0@U_Range_checked_iterator_tag@0@@Z
   ??$_Move_backward_opt@PAPAVawCacheData@fbxsdk_20102@@PAPAV12@Urandom_access_iterator_tag@std@@U_Undefined_move_tag@4@@std@@YAPAPAVawCacheData@fbxsdk_20102@@PAPAV12@00Urandom_access_iterator_tag@0@U_Undefined_move_tag@0@U_Range_checked_iterator_tag@0@@Z
   ??$_Move_backward_opt@PAPAVKFbxDocument@fbxsdk_20102@@PAPAV12@Urandom_access_iterator_tag@std@@U_Undefined_move_tag@4@@std@@YAPAPAVKFbxDocument@fbxsdk_20102@@PAPAV12@00Urandom_access_iterator_tag@0@U_Undefined_move_tag@0@U_Range_checked_iterator_tag@0@@Z
   ??$_Move_backward_opt@PAPAVKFbxNode@fbxsdk_20102@@PAPAV12@Urandom_access_iterator_tag@std@@U_Undefined_move_tag@4@@std@@YAPAPAVKFbxNode@fbxsdk_20102@@PAPAV12@00Urandom_access_iterator_tag@0@U_Undefined_move_tag@0@U_Range_checked_iterator_tag@0@@Z
   ??$_Move_backward_opt@PAPAVThread@awThread@fbxsdk_20102@@PAPAV123@Urandom_access_iterator_tag@std@@U_Undefined_move_tag@5@@std@@YAPAPAVThread@awThread@fbxsdk_20102@@PAPAV123@00Urandom_access_iterator_tag@0@U_Undefined_move_tag@0@U_Range_checked_iterator_tag@0@@Z
   ??$_Move_backward_opt@PAUMemoryBlock@?A0xefc851d3@fbxsdk_20102@@PAU123@Urandom_access_iterator_tag@std@@U_Undefined_move_tag@5@@std@@YAPAUMemoryBlock@?A0xefc851d3@fbxsdk_20102@@PAU123@00Urandom_access_iterator_tag@0@U_Undefined_move_tag@0@U_Range_checked_iterator_tag@0@@Z
   ??$_Move_backward_opt@PAUProgressState@?A0x88b70b57@fbxsdk_20102@@PAU123@Urandom_access_iterator_tag@std@@U_Undefined_move_tag@5@@std@@YAPAUProgressState@?A0x88b70b57@fbxsdk_20102@@PAU123@00Urandom_access_iterator_tag@0@U_Undefined_move_tag@0@U_Range_checked_iterator_tag@0@@Z
   ??$_Move_backward_opt@PAV?$KPair@HH@fbxsdk_20102@@PAV12@Urandom_access_iterator_tag@std@@U_Undefined_move_tag@4@@std@@YAPAV?$KPair@HH@fbxsdk_20102@@PAV12@00Urandom_access_iterator_tag@0@U_Undefined_move_tag@0@U_Range_checked_iterator_tag@0@@Z
   ??$_Move_backward_opt@PAVawCachePerChannelInfo@fbxsdk_20102@@PAV12@Urandom_access_iterator_tag@std@@U_Undefined_move_tag@4@@std@@YAPAVawCachePerChannelInfo@fbxsdk_20102@@PAV12@00Urandom_access_iterator_tag@0@U_Undefined_move_tag@0@U_Range_checked_iterator_tag@0@@Z
   ??$_Move_backward_opt@PAVIString@awString@fbxsdk_20102@@PAV123@Urandom_access_iterator_tag@std@@U_Undefined_move_tag@5@@std@@YAPAVIString@awString@fbxsdk_20102@@PAV123@00Urandom_access_iterator_tag@0@U_Undefined_move_tag@0@U_Range_checked_iterator_tag@0@@Z
   ??$_Move_cat@PAPAVawCacheChannel@fbxsdk_20102@@@std@@YA?AU_Undefined_move_tag@0@ABQAPAVawCacheChannel@fbxsdk_20102@@@Z
   ??$_Move_cat@PAPAVawCacheData@fbxsdk_20102@@@std@@YA?AU_Undefined_move_tag@0@ABQAPAVawCacheData@fbxsdk_20102@@@Z
   ??$_Move_cat@PAPAVKFbxDocument@fbxsdk_20102@@@std@@YA?AU_Undefined_move_tag@0@ABQAPAVKFbxDocument@fbxsdk_20102@@@Z
   ??$_Move_cat@PAPAVKFbxNode@fbxsdk_20102@@@std@@YA?AU_Undefined_move_tag@0@ABQAPAVKFbxNode@fbxsdk_20102@@@Z
   ??$_Move_cat@PAPAVThread@awThread@fbxsdk_20102@@@std@@YA?AU_Undefined_move_tag@0@ABQAPAVThread@awThread@fbxsdk_20102@@@Z
   ??$_Move_cat@PAUMemoryBlock@?A0xefc851d3@fbxsdk_20102@@@std@@YA?AU_Undefined_move_tag@0@ABQAUMemoryBlock@?A0xefc851d3@fbxsdk_20102@@@Z
   ??$_Move_cat@PAUProgressState@?A0x88b70b57@fbxsdk_20102@@@std@@YA?AU_Undefined_move_tag@0@ABQAUProgressState@?A0x88b70b57@fbxsdk_20102@@@Z
   ??$_Move_cat@PAV?$KPair@HH@fbxsdk_20102@@@std@@YA?AU_Undefined_move_tag@0@ABQAV?$KPair@HH@fbxsdk_20102@@@Z
   ??$_Move_cat@PAVawCachePerChannelInfo@fbxsdk_20102@@@std@@YA?AU_Undefined_move_tag@0@ABQAVawCachePerChannelInfo@fbxsdk_20102@@@Z
   ??$_Move_cat@PAVIString@awString@fbxsdk_20102@@@std@@YA?AU_Undefined_move_tag@0@ABQAVIString@awString@fbxsdk_20102@@@Z
   ??$_Pop_heap@PAPAVInitializer@awUtil@fbxsdk_20102@@HPAV123@VCountOrdering@?A0x1cd43906@3@@std@@YAXPAPAVInitializer@awUtil@fbxsdk_20102@@00PAV123@VCountOrdering@?A0x1cd43906@3@PAH@Z
   ??$_Pop_heap@PAVCString@awString@fbxsdk_20102@@HV123@@std@@YAXPAVCString@awString@fbxsdk_20102@@00V123@PAH@Z
   ??$_Pop_heap_0@PAPAVInitializer@awUtil@fbxsdk_20102@@PAV123@VCountOrdering@?A0x1cd43906@3@@std@@YAXPAPAVInitializer@awUtil@fbxsdk_20102@@0VCountOrdering@?A0x1cd43906@3@0@Z
   ??$_Pop_heap_0@PAVCString@awString@fbxsdk_20102@@V123@@std@@YAXPAVCString@awString@fbxsdk_20102@@00@Z
   ??$_Ptr_cat@PAPAPAU_xmlNode@fbxsdk_20102@@PAPAPAU12@@std@@YA?AU_Scalar_ptr_iterator_tag@0@AAPAPAPAU_xmlNode@fbxsdk_20102@@0@Z
   ??$_Ptr_cat@PAPAPAVInitializer@awUtil@fbxsdk_20102@@PAPAPAV123@@std@@YA?AU_Scalar_ptr_iterator_tag@0@AAPAPAPAVInitializer@awUtil@fbxsdk_20102@@0@Z
   ??$_Ptr_cat@PAPAVawCacheChannel@fbxsdk_20102@@PAPAV12@@std@@YA?AU_Scalar_ptr_iterator_tag@0@AAPAPAVawCacheChannel@fbxsdk_20102@@0@Z
   ??$_Ptr_cat@PAPAVawCacheData@fbxsdk_20102@@PAPAV12@@std@@YA?AU_Scalar_ptr_iterator_tag@0@AAPAPAVawCacheData@fbxsdk_20102@@0@Z
   ??$_Ptr_cat@PAPAVInitializer@awUtil@fbxsdk_20102@@PAPAV123@@std@@YA?AU_Scalar_ptr_iterator_tag@0@AAPAPAVInitializer@awUtil@fbxsdk_20102@@0@Z
   ??$_Ptr_cat@PAPAVKFbxDocument@fbxsdk_20102@@PAPAV12@@std@@YA?AU_Scalar_ptr_iterator_tag@0@AAPAPAVKFbxDocument@fbxsdk_20102@@0@Z
   ??$_Ptr_cat@PAPAVKFbxNode@fbxsdk_20102@@PAPAV12@@std@@YA?AU_Scalar_ptr_iterator_tag@0@AAPAPAVKFbxNode@fbxsdk_20102@@0@Z
   ??$_Ptr_cat@PAPAVKFbxProperty@fbxsdk_20102@@PAPAV12@@std@@YA?AU_Scalar_ptr_iterator_tag@0@AAPAPAVKFbxProperty@fbxsdk_20102@@0@Z
   ??$_Ptr_cat@PAPAVThread@awThread@fbxsdk_20102@@PAPAV123@@std@@YA?AU_Scalar_ptr_iterator_tag@0@AAPAPAVThread@awThread@fbxsdk_20102@@0@Z
   ??$_Ptr_cat@PAUMemoryBlock@?A0xefc851d3@fbxsdk_20102@@PAU123@@std@@YA?AU_Nonscalar_ptr_iterator_tag@0@AAPAUMemoryBlock@?A0xefc851d3@fbxsdk_20102@@0@Z
   ??$_Ptr_cat@PAUProgressState@?A0x88b70b57@fbxsdk_20102@@PAU123@@std@@YA?AU_Nonscalar_ptr_iterator_tag@0@AAPAUProgressState@?A0x88b70b57@fbxsdk_20102@@0@Z
   ??$_Ptr_cat@PAV?$KPair@HH@fbxsdk_20102@@PAV12@@std@@YA?AU_Nonscalar_ptr_iterator_tag@0@AAPAV?$KPair@HH@fbxsdk_20102@@0@Z
   ??$_Ptr_cat@PAVawCachePerChannelInfo@fbxsdk_20102@@PAV12@@std@@YA?AU_Nonscalar_ptr_iterator_tag@0@AAPAVawCachePerChannelInfo@fbxsdk_20102@@0@Z
   ??$_Ptr_cat@PAVCString@awString@fbxsdk_20102@@PAV123@@std@@YA?AU_Nonscalar_ptr_iterator_tag@0@AAPAVCString@awString@fbxsdk_20102@@0@Z
   ??$_Ptr_cat@PAVIString@awString@fbxsdk_20102@@PAV123@@std@@YA?AU_Nonscalar_ptr_iterator_tag@0@AAPAVIString@awString@fbxsdk_20102@@0@Z
   ??$_Push_heap@PAPAVInitializer@awUtil@fbxsdk_20102@@HPAV123@VCountOrdering@?A0x1cd43906@3@@std@@YAXPAPAVInitializer@awUtil@fbxsdk_20102@@HHPAV123@VCountOrdering@?A0x1cd43906@3@@Z
   ??$_Push_heap@PAVCString@awString@fbxsdk_20102@@HV123@@std@@YAXPAVCString@awString@fbxsdk_20102@@HHV123@@Z
   ??$_Sort@PAPAVInitializer@awUtil@fbxsdk_20102@@HVCountOrdering@?A0x1cd43906@3@@std@@YAXPAPAVInitializer@awUtil@fbxsdk_20102@@0HVCountOrdering@?A0x1cd43906@3@@Z
   ??$_Sort@PAVCString@awString@fbxsdk_20102@@H@std@@YAXPAVCString@awString@fbxsdk_20102@@0H@Z
   ??$_Sort_heap@PAPAVInitializer@awUtil@fbxsdk_20102@@VCountOrdering@?A0x1cd43906@3@@std@@YAXPAPAVInitializer@awUtil@fbxsdk_20102@@0VCountOrdering@?A0x1cd43906@3@@Z
   ??$_Sort_heap@PAVCString@awString@fbxsdk_20102@@@std@@YAXPAVCString@awString@fbxsdk_20102@@0@Z
   ??$_Unchecked_move_backward@PAPAVawCacheChannel@fbxsdk_20102@@PAPAV12@@stdext@@YAPAPAVawCacheChannel@fbxsdk_20102@@PAPAV12@00@Z
   ??$_Unchecked_move_backward@PAPAVawCacheData@fbxsdk_20102@@PAPAV12@@stdext@@YAPAPAVawCacheData@fbxsdk_20102@@PAPAV12@00@Z
   ??$_Unchecked_move_backward@PAPAVKFbxDocument@fbxsdk_20102@@PAPAV12@@stdext@@YAPAPAVKFbxDocument@fbxsdk_20102@@PAPAV12@00@Z
   ??$_Unchecked_move_backward@PAPAVKFbxNode@fbxsdk_20102@@PAPAV12@@stdext@@YAPAPAVKFbxNode@fbxsdk_20102@@PAPAV12@00@Z
   ??$_Unchecked_move_backward@PAPAVThread@awThread@fbxsdk_20102@@PAPAV123@@stdext@@YAPAPAVThread@awThread@fbxsdk_20102@@PAPAV123@00@Z
   ??$_Unchecked_move_backward@PAUMemoryBlock@?A0xefc851d3@fbxsdk_20102@@PAU123@@stdext@@YAPAUMemoryBlock@?A0xefc851d3@fbxsdk_20102@@PAU123@00@Z
   ??$_Unchecked_move_backward@PAUProgressState@?A0x88b70b57@fbxsdk_20102@@PAU123@@stdext@@YAPAUProgressState@?A0x88b70b57@fbxsdk_20102@@PAU123@00@Z
   ??$_Unchecked_move_backward@PAV?$KPair@HH@fbxsdk_20102@@PAV12@@stdext@@YAPAV?$KPair@HH@fbxsdk_20102@@PAV12@00@Z
   ??$_Unchecked_move_backward@PAVawCachePerChannelInfo@fbxsdk_20102@@PAV12@@stdext@@YAPAVawCachePerChannelInfo@fbxsdk_20102@@PAV12@00@Z
   ??$_Unchecked_move_backward@PAVIString@awString@fbxsdk_20102@@PAV123@@stdext@@YAPAVIString@awString@fbxsdk_20102@@PAV123@00@Z
   ??$_Unchecked_uninitialized_move@PAPAVawCacheChannel@fbxsdk_20102@@PAPAV12@V?$allocator@PAVawCacheChannel@fbxsdk_20102@@@std@@@stdext@@YAPAPAVawCacheChannel@fbxsdk_20102@@PAPAV12@00AAV?$allocator@PAVawCacheChannel@fbxsdk_20102@@@std@@@Z
   ??$_Unchecked_uninitialized_move@PAPAVawCacheData@fbxsdk_20102@@PAPAV12@V?$allocator@PAVawCacheData@fbxsdk_20102@@@std@@@stdext@@YAPAPAVawCacheData@fbxsdk_20102@@PAPAV12@00AAV?$allocator@PAVawCacheData@fbxsdk_20102@@@std@@@Z
   ??$_Unchecked_uninitialized_move@PAPAVKFbxDocument@fbxsdk_20102@@PAPAV12@V?$allocator@PAVKFbxDocument@fbxsdk_20102@@@std@@@stdext@@YAPAPAVKFbxDocument@fbxsdk_20102@@PAPAV12@00AAV?$allocator@PAVKFbxDocument@fbxsdk_20102@@@std@@@Z
   ??$_Unchecked_uninitialized_move@PAPAVKFbxNode@fbxsdk_20102@@PAPAV12@V?$allocator@PAVKFbxNode@fbxsdk_20102@@@std@@@stdext@@YAPAPAVKFbxNode@fbxsdk_20102@@PAPAV12@00AAV?$allocator@PAVKFbxNode@fbxsdk_20102@@@std@@@Z
   ??$_Unchecked_uninitialized_move@PAPAVThread@awThread@fbxsdk_20102@@PAPAV123@V?$allocator@PAVThread@awThread@fbxsdk_20102@@@std@@@stdext@@YAPAPAVThread@awThread@fbxsdk_20102@@PAPAV123@00AAV?$allocator@PAVThread@awThread@fbxsdk_20102@@@std@@@Z
   ??$_Unchecked_uninitialized_move@PAUMemoryBlock@?A0xefc851d3@fbxsdk_20102@@PAU123@V?$allocator@UMemoryBlock@?A0xefc851d3@fbxsdk_20102@@@std@@@stdext@@YAPAUMemoryBlock@?A0xefc851d3@fbxsdk_20102@@PAU123@00AAV?$allocator@UMemoryBlock@?A0xefc851d3@fbxsdk_20102@@@std@@@Z
   ??$_Unchecked_uninitialized_move@PAUProgressState@?A0x88b70b57@fbxsdk_20102@@PAU123@V?$allocator@UProgressState@?A0x88b70b57@fbxsdk_20102@@@std@@@stdext@@YAPAUProgressState@?A0x88b70b57@fbxsdk_20102@@PAU123@00AAV?$allocator@UProgressState@?A0x88b70b57@fbxsdk_20102@@@std@@@Z
   ??$_Unchecked_uninitialized_move@PAV?$KPair@HH@fbxsdk_20102@@PAV12@V?$allocator@V?$KPair@HH@fbxsdk_20102@@@std@@@stdext@@YAPAV?$KPair@HH@fbxsdk_20102@@PAV12@00AAV?$allocator@V?$KPair@HH@fbxsdk_20102@@@std@@@Z
   ??$_Unchecked_uninitialized_move@PAVawCachePerChannelInfo@fbxsdk_20102@@PAV12@V?$allocator@VawCachePerChannelInfo@fbxsdk_20102@@@std@@@stdext@@YAPAVawCachePerChannelInfo@fbxsdk_20102@@PAV12@00AAV?$allocator@VawCachePerChannelInfo@fbxsdk_20102@@@std@@@Z
   ??$_Unchecked_uninitialized_move@PAVIString@awString@fbxsdk_20102@@PAV123@V?$allocator@VIString@awString@fbxsdk_20102@@@std@@@stdext@@YAPAVIString@awString@fbxsdk_20102@@PAV123@00AAV?$allocator@VIString@awString@fbxsdk_20102@@@std@@@Z
   ??$_Unguarded_partition@PAPAVInitializer@awUtil@fbxsdk_20102@@VCountOrdering@?A0x1cd43906@3@@std@@YA?AU?$pair@PAPAVInitializer@awUtil@fbxsdk_20102@@PAPAV123@@0@PAPAVInitializer@awUtil@fbxsdk_20102@@0VCountOrdering@?A0x1cd43906@4@@Z
   ??$_Unguarded_partition@PAVCString@awString@fbxsdk_20102@@@std@@YA?AU?$pair@PAVCString@awString@fbxsdk_20102@@PAV123@@0@PAVCString@awString@fbxsdk_20102@@0@Z
   ??$_Uninit_move@PAPAVawCacheChannel@fbxsdk_20102@@PAPAV12@V?$allocator@PAVawCacheChannel@fbxsdk_20102@@@std@@U_Undefined_move_tag@4@@std@@YAPAPAVawCacheChannel@fbxsdk_20102@@PAPAV12@00AAV?$allocator@PAVawCacheChannel@fbxsdk_20102@@@0@U_Undefined_move_tag@0@U_Range_checked_iterator_tag@0@@Z
   ??$_Uninit_move@PAPAVawCacheData@fbxsdk_20102@@PAPAV12@V?$allocator@PAVawCacheData@fbxsdk_20102@@@std@@U_Undefined_move_tag@4@@std@@YAPAPAVawCacheData@fbxsdk_20102@@PAPAV12@00AAV?$allocator@PAVawCacheData@fbxsdk_20102@@@0@U_Undefined_move_tag@0@U_Range_checked_iterator_tag@0@@Z
   ??$_Uninit_move@PAPAVKFbxDocument@fbxsdk_20102@@PAPAV12@V?$allocator@PAVKFbxDocument@fbxsdk_20102@@@std@@U_Undefined_move_tag@4@@std@@YAPAPAVKFbxDocument@fbxsdk_20102@@PAPAV12@00AAV?$allocator@PAVKFbxDocument@fbxsdk_20102@@@0@U_Undefined_move_tag@0@U_Range_checked_iterator_tag@0@@Z
   ??$_Uninit_move@PAPAVKFbxNode@fbxsdk_20102@@PAPAV12@V?$allocator@PAVKFbxNode@fbxsdk_20102@@@std@@U_Undefined_move_tag@4@@std@@YAPAPAVKFbxNode@fbxsdk_20102@@PAPAV12@00AAV?$allocator@PAVKFbxNode@fbxsdk_20102@@@0@U_Undefined_move_tag@0@U_Range_checked_iterator_tag@0@@Z
   ??$_Uninit_move@PAPAVThread@awThread@fbxsdk_20102@@PAPAV123@V?$allocator@PAVThread@awThread@fbxsdk_20102@@@std@@U_Undefined_move_tag@5@@std@@YAPAPAVThread@awThread@fbxsdk_20102@@PAPAV123@00AAV?$allocator@PAVThread@awThread@fbxsdk_20102@@@0@U_Undefined_move_tag@0@U_Range_checked_iterator_tag@0@@Z
   ??$_Uninit_move@PAUMemoryBlock@?A0xefc851d3@fbxsdk_20102@@PAU123@V?$allocator@UMemoryBlock@?A0xefc851d3@fbxsdk_20102@@@std@@U_Undefined_move_tag@5@@std@@YAPAUMemoryBlock@?A0xefc851d3@fbxsdk_20102@@PAU123@00AAV?$allocator@UMemoryBlock@?A0xefc851d3@fbxsdk_20102@@@0@U_Undefined_move_tag@0@U_Range_checked_iterator_tag@0@@Z
   ??$_Uninit_move@PAUProgressState@?A0x88b70b57@fbxsdk_20102@@PAU123@V?$allocator@UProgressState@?A0x88b70b57@fbxsdk_20102@@@std@@U_Undefined_move_tag@5@@std@@YAPAUProgressState@?A0x88b70b57@fbxsdk_20102@@PAU123@00AAV?$allocator@UProgressState@?A0x88b70b57@fbxsdk_20102@@@0@U_Undefined_move_tag@0@U_Range_checked_iterator_tag@0@@Z
   ??$_Uninit_move@PAV?$KPair@HH@fbxsdk_20102@@PAV12@V?$allocator@V?$KPair@HH@fbxsdk_20102@@@std@@U_Undefined_move_tag@4@@std@@YAPAV?$KPair@HH@fbxsdk_20102@@PAV12@00AAV?$allocator@V?$KPair@HH@fbxsdk_20102@@@0@U_Undefined_move_tag@0@U_Range_checked_iterator_tag@0@@Z
   ??$_Uninit_move@PAVawCachePerChannelInfo@fbxsdk_20102@@PAV12@V?$allocator@VawCachePerChannelInfo@fbxsdk_20102@@@std@@U_Undefined_move_tag@4@@std@@YAPAVawCachePerChannelInfo@fbxsdk_20102@@PAV12@00AAV?$allocator@VawCachePerChannelInfo@fbxsdk_20102@@@0@U_Undefined_move_tag@0@U_Range_checked_iterator_tag@0@@Z
   ??$_Uninit_move@PAVIString@awString@fbxsdk_20102@@PAV123@V?$allocator@VIString@awString@fbxsdk_20102@@@std@@U_Undefined_move_tag@5@@std@@YAPAVIString@awString@fbxsdk_20102@@PAV123@00AAV?$allocator@VIString@awString@fbxsdk_20102@@@0@U_Undefined_move_tag@0@U_Range_checked_iterator_tag@0@@Z
   ??$_Val_type@PAPAVInitializer@awUtil@fbxsdk_20102@@@std@@YAPAPAVInitializer@awUtil@fbxsdk_20102@@PAPAV123@@Z
   ??$_Val_type@PAVCString@awString@fbxsdk_20102@@@std@@YAPAVCString@awString@fbxsdk_20102@@PAV123@@Z
   ??$Add@H@KFbxLayerElementArray@fbxsdk_20102@@QAEHABH@Z
   ??$Add@PAVKFbxSurfaceMaterial@fbxsdk_20102@@@KFbxLayerElementArray@fbxsdk_20102@@QAEHABQAVKFbxSurfaceMaterial@1@@Z
   ??$Add@PAVKFbxTexture@fbxsdk_20102@@@KFbxLayerElementArray@fbxsdk_20102@@QAEHABQAVKFbxTexture@1@@Z
   ??$Add@VKFbxColor@fbxsdk_20102@@@KFbxLayerElementArray@fbxsdk_20102@@QAEHABVKFbxColor@1@@Z
   ??$Add@VKFbxVector2@fbxsdk_20102@@@KFbxLayerElementArray@fbxsdk_20102@@QAEHABVKFbxVector2@1@@Z
   ??$Add@VKFbxVector4@fbxsdk_20102@@@KFbxLayerElementArray@fbxsdk_20102@@QAEHABVKFbxVector4@1@@Z
   ??$ASCIIFieldWriteArray@_J@KFbxImpl@KFbx@fbxsdk_20102@@QAEXHPB_JHH@Z
   ??$ASCIIFieldWriteArray@_K@KFbxImpl@KFbx@fbxsdk_20102@@QAEXHPB_KHH@Z
   ??$ASCIIFieldWriteArray@_N@KFbxImpl@KFbx@fbxsdk_20102@@QAEXHPB_NHH@Z
   ??$ASCIIFieldWriteArray@C@KFbxImpl@KFbx@fbxsdk_20102@@QAEXHPBCHH@Z
   ??$ASCIIFieldWriteArray@E@KFbxImpl@KFbx@fbxsdk_20102@@QAEXHPBEHH@Z
   ??$ASCIIFieldWriteArray@F@KFbxImpl@KFbx@fbxsdk_20102@@QAEXHPBFHH@Z
   ??$ASCIIFieldWriteArray@G@KFbxImpl@KFbx@fbxsdk_20102@@QAEXHPBGHH@Z
   ??$ASCIIFieldWriteArray@H@KFbxImpl@KFbx@fbxsdk_20102@@QAEXHPBHHH@Z
   ??$ASCIIFieldWriteArray@I@KFbxImpl@KFbx@fbxsdk_20102@@QAEXHPBIHH@Z
   ??$ASCIIFieldWriteArray@M@KFbxImpl@KFbx@fbxsdk_20102@@QAEXHPBMHH@Z
   ??$ASCIIFieldWriteArray@N@KFbxImpl@KFbx@fbxsdk_20102@@QAEXHPBNHH@Z
   ??$BinaryFieldWriteArray@_J@KFbxImpl@KFbx@fbxsdk_20102@@QAEHHPB_JHH_N@Z
   ??$BinaryFieldWriteArray@_K@KFbxImpl@KFbx@fbxsdk_20102@@QAEHHPB_KHH_N@Z
   ??$BinaryFieldWriteArray@_N@KFbxImpl@KFbx@fbxsdk_20102@@QAEHHPB_NHH_N@Z
   ??$BinaryFieldWriteArray@C@KFbxImpl@KFbx@fbxsdk_20102@@QAEHHPBCHH_N@Z
   ??$BinaryFieldWriteArray@E@KFbxImpl@KFbx@fbxsdk_20102@@QAEHHPBEHH_N@Z
   ??$BinaryFieldWriteArray@F@KFbxImpl@KFbx@fbxsdk_20102@@QAEHHPBFHH_N@Z
   ??$BinaryFieldWriteArray@G@KFbxImpl@KFbx@fbxsdk_20102@@QAEHHPBGHH_N@Z
   ??$BinaryFieldWriteArray@H@KFbxImpl@KFbx@fbxsdk_20102@@QAEHHPBHHH_N@Z
   ??$BinaryFieldWriteArray@I@KFbxImpl@KFbx@fbxsdk_20102@@QAEHHPBIHH_N@Z
   ??$BinaryFieldWriteArray@M@KFbxImpl@KFbx@fbxsdk_20102@@QAEHHPBMHH_N@Z
   ??$BinaryFieldWriteArray@N@KFbxImpl@KFbx@fbxsdk_20102@@QAEHHPBNHH_N@Z
   ??$BinaryFieldWriteArraySwap@_J@KFbxImpl@KFbx@fbxsdk_20102@@QAEHHPB_JHH_N@Z
   ??$BinaryFieldWriteArraySwap@_K@KFbxImpl@KFbx@fbxsdk_20102@@QAEHHPB_KHH_N@Z
   ??$BinaryFieldWriteArraySwap@_N@KFbxImpl@KFbx@fbxsdk_20102@@QAEHHPB_NHH_N@Z
   ??$BinaryFieldWriteArraySwap@C@KFbxImpl@KFbx@fbxsdk_20102@@QAEHHPBCHH_N@Z
   ??$BinaryFieldWriteArraySwap@E@KFbxImpl@KFbx@fbxsdk_20102@@QAEHHPBEHH_N@Z
   ??$BinaryFieldWriteArraySwap@F@KFbxImpl@KFbx@fbxsdk_20102@@QAEHHPBFHH_N@Z
   ??$BinaryFieldWriteArraySwap@G@KFbxImpl@KFbx@fbxsdk_20102@@QAEHHPBGHH_N@Z
   ??$BinaryFieldWriteArraySwap@H@KFbxImpl@KFbx@fbxsdk_20102@@QAEHHPBHHH_N@Z
   ??$BinaryFieldWriteArraySwap@I@KFbxImpl@KFbx@fbxsdk_20102@@QAEHHPBIHH_N@Z
   ??$BinaryFieldWriteArraySwap@M@KFbxImpl@KFbx@fbxsdk_20102@@QAEHHPBMHH_N@Z
   ??$BinaryFieldWriteArraySwap@N@KFbxImpl@KFbx@fbxsdk_20102@@QAEHHPBNHH_N@Z
   ??$Bind@VKFbxObjectPropertyChanged@fbxsdk_20102@@VKFbxUINode@2@@KFbxListener@kfbxevents@fbxsdk_20102@@QAEPAVKFbxEventHandler@12@AAVKFbxEmitter@12@P8KFbxUINode@2@AEXPBVKFbxObjectPropertyChanged@2@@Z@Z
   ??$Bind@VKFbxScriptEvent@fbxsdk_20102@@VKFbxUIInstance@2@@KFbxListener@kfbxevents@fbxsdk_20102@@QAEPAVKFbxEventHandler@12@AAVKFbxEmitter@12@P8KFbxUIInstance@2@AEXPBVKFbxScriptEvent@2@@Z@Z
   ??$Bind@VKFbxUIUpdateEvent@fbxsdk_20102@@VKFbxUIInstance@2@@KFbxListener@kfbxevents@fbxsdk_20102@@QAEPAVKFbxEventHandler@12@AAVKFbxEmitter@12@P8KFbxUIInstance@2@AEXPBVKFbxUIUpdateEvent@2@@Z@Z
   ??$ChangePropertyItemState@VKFbxPropertyFlags@fbxsdk_20102@@@KFbxPropertyPage@fbxsdk_20102@@QAEPAVKFbxPropertyFlags@1@PBV21@HW4KFbxInheritType@1@@Z
   ??$ChangePropertyItemState@VKFbxPropertyInfo@fbxsdk_20102@@@KFbxPropertyPage@fbxsdk_20102@@QAEPAVKFbxPropertyInfo@1@PBV21@HW4KFbxInheritType@1@@Z
   ??$ChangePropertyItemState@VKFbxPropertyValue@fbxsdk_20102@@@KFbxPropertyPage@fbxsdk_20102@@QAEPAVKFbxPropertyValue@1@PBV21@HW4KFbxInheritType@1@@Z
   ??$CheckRuntimeClass@$$CBVKFbxGeometry@fbxsdk_20102@@@?A0xa88da042@fbxsdk_20102@@YA?AVkFbxClassId@1@PBVKFbxGeometry@1@ABVKString@1@1AAVKFbxSdkManager@1@@Z
   ??$CheckRuntimeClass@$$CBVKFbxNodeAttribute@fbxsdk_20102@@@?A0xa88da042@fbxsdk_20102@@YA?AVkFbxClassId@1@PBVKFbxNodeAttribute@1@ABVKString@1@1AAVKFbxSdkManager@1@@Z
   ??$CheckRuntimeClass@$$CBVKFbxTakeNodeContainer@fbxsdk_20102@@@?A0xa88da042@fbxsdk_20102@@YA?AVkFbxClassId@1@PBVKFbxTakeNodeContainer@1@ABVKString@1@1AAVKFbxSdkManager@1@@Z
   ??$clamp@H@fbxsdk_20102@@YAHHHH@Z
   ??$clamp@N@fbxsdk_20102@@YANNNN@Z
   ??$CompressBuffer@_J@KFbxFieldZlib@fbxsdk_20102@@QAEHAAVKFbxFieldZlibConsumer@1@PB_JHHH@Z
   ??$CompressBuffer@_K@KFbxFieldZlib@fbxsdk_20102@@QAEHAAVKFbxFieldZlibConsumer@1@PB_KHHH@Z
   ??$CompressBuffer@_N@KFbxFieldZlib@fbxsdk_20102@@QAEHAAVKFbxFieldZlibConsumer@1@PB_NHHH@Z
   ??$CompressBuffer@C@KFbxFieldZlib@fbxsdk_20102@@QAEHAAVKFbxFieldZlibConsumer@1@PBCHHH@Z
   ??$CompressBuffer@D@KFbxFieldZlib@fbxsdk_20102@@QAEHAAVKFbxFieldZlibConsumer@1@PBDHHH@Z
   ??$CompressBuffer@E@KFbxFieldZlib@fbxsdk_20102@@QAEHAAVKFbxFieldZlibConsumer@1@PBEHHH@Z
   ??$CompressBuffer@F@KFbxFieldZlib@fbxsdk_20102@@QAEHAAVKFbxFieldZlibConsumer@1@PBFHHH@Z
   ??$CompressBuffer@G@KFbxFieldZlib@fbxsdk_20102@@QAEHAAVKFbxFieldZlibConsumer@1@PBGHHH@Z
   ??$CompressBuffer@H@KFbxFieldZlib@fbxsdk_20102@@QAEHAAVKFbxFieldZlibConsumer@1@PBHHHH@Z
   ??$CompressBuffer@I@KFbxFieldZlib@fbxsdk_20102@@QAEHAAVKFbxFieldZlibConsumer@1@PBIHHH@Z
   ??$CompressBuffer@M@KFbxFieldZlib@fbxsdk_20102@@QAEHAAVKFbxFieldZlibConsumer@1@PBMHHH@Z
   ??$CompressBuffer@N@KFbxFieldZlib@fbxsdk_20102@@QAEHAAVKFbxFieldZlibConsumer@1@PBNHHH@Z
   ??$CompressBufferChunk@_J@KFbxFieldZlib@fbxsdk_20102@@QAEHPAUKFbxCookie@01@AAVKFbxFieldZlibConsumer@1@PB_JHHH@Z
   ??$CompressBufferChunk@_K@KFbxFieldZlib@fbxsdk_20102@@QAEHPAUKFbxCookie@01@AAVKFbxFieldZlibConsumer@1@PB_KHHH@Z
   ??$CompressBufferChunk@C@KFbxFieldZlib@fbxsdk_20102@@QAEHPAUKFbxCookie@01@AAVKFbxFieldZlibConsumer@1@PBCHHH@Z
   ??$CompressBufferChunk@E@KFbxFieldZlib@fbxsdk_20102@@QAEHPAUKFbxCookie@01@AAVKFbxFieldZlibConsumer@1@PBEHHH@Z
   ??$CompressBufferChunk@F@KFbxFieldZlib@fbxsdk_20102@@QAEHPAUKFbxCookie@01@AAVKFbxFieldZlibConsumer@1@PBFHHH@Z
   ??$CompressBufferChunk@G@KFbxFieldZlib@fbxsdk_20102@@QAEHPAUKFbxCookie@01@AAVKFbxFieldZlibConsumer@1@PBGHHH@Z
   ??$CompressBufferChunk@H@KFbxFieldZlib@fbxsdk_20102@@QAEHPAUKFbxCookie@01@AAVKFbxFieldZlibConsumer@1@PBHHHH@Z
   ??$CompressBufferChunk@I@KFbxFieldZlib@fbxsdk_20102@@QAEHPAUKFbxCookie@01@AAVKFbxFieldZlibConsumer@1@PBIHHH@Z
   ??$CompressBufferChunk@M@KFbxFieldZlib@fbxsdk_20102@@QAEHPAUKFbxCookie@01@AAVKFbxFieldZlibConsumer@1@PBMHHH@Z
   ??$CompressBufferChunk@N@KFbxFieldZlib@fbxsdk_20102@@QAEHPAUKFbxCookie@01@AAVKFbxFieldZlibConsumer@1@PBNHHH@Z
   ??$connect@VSignalBase@awRTB@fbxsdk_20102@@@SignalClient@awRTB@fbxsdk_20102@@QAEPAXPAVSignalBase@12@P8312@AEXPAV012@@Z@Z
   ??$connect@VThreadPoolImpl@?A0xfd60b238@fbxsdk_20102@@V123@@SignalVoid@awRTB@fbxsdk_20102@@QAEPAXPAVThreadPoolImpl@?A0xfd60b238@2@P8342@AEXXZ@Z
   ??$ConvertAndReorder@EE@KFbxImagePixelFormat@fbxsdk_20102@@ABEXPBXHABV01@PAX@Z
   ??$ConvertAndReorder@EG@KFbxImagePixelFormat@fbxsdk_20102@@ABEXPBXHABV01@PAX@Z
   ??$ConvertAndReorder@EM@KFbxImagePixelFormat@fbxsdk_20102@@ABEXPBXHABV01@PAX@Z
   ??$ConvertAndReorder@GE@KFbxImagePixelFormat@fbxsdk_20102@@ABEXPBXHABV01@PAX@Z
   ??$ConvertAndReorder@GG@KFbxImagePixelFormat@fbxsdk_20102@@ABEXPBXHABV01@PAX@Z
   ??$ConvertAndReorder@GM@KFbxImagePixelFormat@fbxsdk_20102@@ABEXPBXHABV01@PAX@Z
   ??$ConvertAndReorder@ME@KFbxImagePixelFormat@fbxsdk_20102@@ABEXPBXHABV01@PAX@Z
   ??$ConvertAndReorder@MG@KFbxImagePixelFormat@fbxsdk_20102@@ABEXPBXHABV01@PAX@Z
   ??$ConvertAndReorder@MM@KFbxImagePixelFormat@fbxsdk_20102@@ABEXPBXHABV01@PAX@Z
   ??$ConvertNurbs@VKFbxNurb@fbxsdk_20102@@VKFbxNurbsSurface@2@@KFbxGeometryConverter@fbxsdk_20102@@IAEXPAVKFbxNurb@1@PAVKFbxNurbsSurface@1@@Z
   ??$ConvertNurbs@VKFbxNurbsSurface@fbxsdk_20102@@VKFbxNurb@2@@KFbxGeometryConverter@fbxsdk_20102@@IAEXPAVKFbxNurbsSurface@1@PAVKFbxNurb@1@@Z
   ??$ConvertStoredItemArray@_J@KFbxFieldInfo@KFbxFieldInstance@fbxsdk_20102@@AAEPA_JPA_JH_N@Z
   ??$ConvertStoredItemArray@_K@KFbxFieldInfo@KFbxFieldInstance@fbxsdk_20102@@AAEPA_KPA_KH_N@Z
   ??$ConvertStoredItemArray@C@KFbxFieldInfo@KFbxFieldInstance@fbxsdk_20102@@AAEPACPACH_N@Z
   ??$ConvertStoredItemArray@E@KFbxFieldInfo@KFbxFieldInstance@fbxsdk_20102@@AAEPAEPAEH_N@Z
   ??$ConvertStoredItemArray@F@KFbxFieldInfo@KFbxFieldInstance@fbxsdk_20102@@AAEPAFPAFH_N@Z
   ??$ConvertStoredItemArray@G@KFbxFieldInfo@KFbxFieldInstance@fbxsdk_20102@@AAEPAGPAGH_N@Z
   ??$ConvertStoredItemArray@H@KFbxFieldInfo@KFbxFieldInstance@fbxsdk_20102@@AAEPAHPAHH_N@Z
   ??$ConvertStoredItemArray@I@KFbxFieldInfo@KFbxFieldInstance@fbxsdk_20102@@AAEPAIPAIH_N@Z
   ??$ConvertStoredItemArray@M@KFbxFieldInfo@KFbxFieldInstance@fbxsdk_20102@@AAEPAMPAMH_N@Z
   ??$ConvertStoredItemArray@N@KFbxFieldInfo@KFbxFieldInstance@fbxsdk_20102@@AAEPANPANH_N@Z
   ??$CopyTo@VKFbxColor@fbxsdk_20102@@@KFbxLayerElementArray@fbxsdk_20102@@QAEXAAV?$KArrayTemplate@VKFbxColor@fbxsdk_20102@@@1@@Z
   ??$CopyTo@VKFbxVector2@fbxsdk_20102@@@KFbxLayerElementArray@fbxsdk_20102@@QAEXAAV?$KArrayTemplate@VKFbxVector2@fbxsdk_20102@@@1@@Z
   ??$CopyTo@VKFbxVector4@fbxsdk_20102@@@KFbxLayerElementArray@fbxsdk_20102@@QAEXAAV?$KArrayTemplate@VKFbxVector4@fbxsdk_20102@@@1@@Z
   ??$DecompressArray@_J@KFbxFieldInfo@KFbxFieldInstance@fbxsdk_20102@@QAEPA_JPB_JHH@Z
   ??$DecompressArray@_K@KFbxFieldInfo@KFbxFieldInstance@fbxsdk_20102@@QAEPA_KPB_KHH@Z
   ??$DecompressArray@_N@KFbxFieldInfo@KFbxFieldInstance@fbxsdk_20102@@QAEPA_NPB_NHH@Z
   ??$DecompressArray@C@KFbxFieldInfo@KFbxFieldInstance@fbxsdk_20102@@QAEPACPBCHH@Z
   ??$DecompressArray@E@KFbxFieldInfo@KFbxFieldInstance@fbxsdk_20102@@QAEPAEPBEHH@Z
   ??$DecompressArray@F@KFbxFieldInfo@KFbxFieldInstance@fbxsdk_20102@@QAEPAFPBFHH@Z
   ??$DecompressArray@G@KFbxFieldInfo@KFbxFieldInstance@fbxsdk_20102@@QAEPAGPBGHH@Z
   ??$DecompressArray@H@KFbxFieldInfo@KFbxFieldInstance@fbxsdk_20102@@QAEPAHPBHHH@Z
   ??$DecompressArray@I@KFbxFieldInfo@KFbxFieldInstance@fbxsdk_20102@@QAEPAIPBIHH@Z
   ??$DecompressArray@M@KFbxFieldInfo@KFbxFieldInstance@fbxsdk_20102@@QAEPAMPBMHH@Z
   ??$DecompressArray@N@KFbxFieldInfo@KFbxFieldInstance@fbxsdk_20102@@QAEPANPBNHH@Z
   ??$DeleteAndClear@PA_W@fbxsdk_20102@@YAXAAV?$KArrayTemplate@PA_W@0@@Z
   ??$DeleteAndClear@PAUFbx6TypeReadReferenceInfo@fbxsdk_20102@@@fbxsdk_20102@@YAXAAV?$KArrayTemplate@PAUFbx6TypeReadReferenceInfo@fbxsdk_20102@@@0@@Z
   ??$DeleteAndClear@PAUKFbxTimeMarker@KFbxGlobalTimeSettings@fbxsdk_20102@@@fbxsdk_20102@@YAXAAV?$KArrayTemplate@PAUKFbxTimeMarker@KFbxGlobalTimeSettings@fbxsdk_20102@@@0@@Z
   ??$DeleteAndClear@PAUKLayerInfo@fbxsdk_20102@@@fbxsdk_20102@@YAXAAV?$KArrayTemplate@PAUKLayerInfo@fbxsdk_20102@@@0@@Z
   ??$DeleteAndClear@PAUKTypeObjectHierarchyInfo@fbxsdk_20102@@@fbxsdk_20102@@YAXAAV?$KArrayTemplate@PAUKTypeObjectHierarchyInfo@fbxsdk_20102@@@0@@Z
   ??$DeleteAndClear@PAUKTypeReadReferenceInfo@?A0xa88da042@fbxsdk_20102@@@fbxsdk_20102@@YAXAAV?$KArrayTemplate@PAUKTypeReadReferenceInfo@?A0xa88da042@fbxsdk_20102@@@0@@Z
   ??$DeleteAndClear@PAUKTypeWriteReferenceInfo@?A0xce6eb6f4@fbxsdk_20102@@@fbxsdk_20102@@YAXAAV?$KArrayTemplate@PAUKTypeWriteReferenceInfo@?A0xce6eb6f4@fbxsdk_20102@@@0@@Z
   ??$DeleteAndClear@PAUKTypeWriteReferenceInfo@fbxsdk_20102@@@fbxsdk_20102@@YAXAAV?$KArrayTemplate@PAUKTypeWriteReferenceInfo@fbxsdk_20102@@@0@@Z
   ??$DeleteAndClear@PAUNameCell@KFbxRenamingStrategy@fbxsdk_20102@@@fbxsdk_20102@@YAXAAV?$KArrayTemplate@PAUNameCell@KFbxRenamingStrategy@fbxsdk_20102@@@0@@Z
   ??$DeleteAndClear@PAUNameCell@KNumberRenamingStrategy@fbxsdk_20102@@@fbxsdk_20102@@YAXAAV?$KArrayTemplate@PAUNameCell@KNumberRenamingStrategy@fbxsdk_20102@@@0@@Z
   ??$DeleteAndClear@PAUNameCell@KRenamingStrategy3DS@fbxsdk_20102@@@fbxsdk_20102@@YAXAAV?$KArrayTemplate@PAUNameCell@KRenamingStrategy3DS@fbxsdk_20102@@@0@@Z
   ??$DeleteAndClear@PAV?$KArrayTemplate@UKElement@KFbxWeightedMapping@fbxsdk_20102@@@fbxsdk_20102@@@fbxsdk_20102@@YAXAAV?$KArrayTemplate@PAV?$KArrayTemplate@UKElement@KFbxWeightedMapping@fbxsdk_20102@@@fbxsdk_20102@@@0@@Z
   ??$DeleteAndClear@PAV?$KArrayTemplate@VKDuplicateVertex@KFbxMesh@fbxsdk_20102@@@fbxsdk_20102@@@fbxsdk_20102@@YAXAAV?$KArrayTemplate@PAV?$KArrayTemplate@VKDuplicateVertex@KFbxMesh@fbxsdk_20102@@@fbxsdk_20102@@@0@@Z
   ??$DeleteAndClear@PAVFbx5ObjectTypeInfo@fbxsdk_20102@@@fbxsdk_20102@@YAXAAV?$KArrayTemplate@PAVFbx5ObjectTypeInfo@fbxsdk_20102@@@0@@Z
   ??$DeleteAndClear@PAVFbx6ObjectTypeInfo@fbxsdk_20102@@@fbxsdk_20102@@YAXAAV?$KArrayTemplate@PAVFbx6ObjectTypeInfo@fbxsdk_20102@@@0@@Z
   ??$DeleteAndClear@PAVFbx6TypeDefinitionInfo@fbxsdk_20102@@@fbxsdk_20102@@YAXAAV?$KArrayTemplate@PAVFbx6TypeDefinitionInfo@fbxsdk_20102@@@0@@Z
   ??$DeleteAndClear@PAVKBVHJoint@fbxsdk_20102@@@fbxsdk_20102@@YAXAAV?$KArrayTemplate@PAVKBVHJoint@fbxsdk_20102@@@0@@Z
   ??$DeleteAndClear@PAVKFbxHtrSegment@fbxsdk_20102@@@fbxsdk_20102@@YAXAAV?$KArrayTemplate@PAVKFbxHtrSegment@fbxsdk_20102@@@0@@Z
   ??$DeleteAndClear@PAVKFbxTakeInfo@fbxsdk_20102@@@fbxsdk_20102@@YAXAAV?$KArrayTemplate@PAVKFbxTakeInfo@fbxsdk_20102@@@0@@Z
   ??$DeleteAndClear@PAVKFbxTakeNode@fbxsdk_20102@@@fbxsdk_20102@@YAXAAV?$KArrayTemplate@PAVKFbxTakeNode@fbxsdk_20102@@@0@@Z
   ??$DeleteAndClear@PAVKFbxWeightInfo@fbxsdk_20102@@@fbxsdk_20102@@YAXAAV?$KArrayTemplate@PAVKFbxWeightInfo@fbxsdk_20102@@@0@@Z
   ??$DeleteAndClear@PAVKFCurve@fbxsdk_20102@@@fbxsdk_20102@@YAXAAV?$KArrayTemplate@PAVKFCurve@fbxsdk_20102@@@0@@Z
   ??$DeleteAndClear@PAVKString@fbxsdk_20102@@@fbxsdk_20102@@YAXAAV?$KArrayTemplate@PAVKString@fbxsdk_20102@@@0@@Z
   ??$DeleteAndClear@PAVKTypeDefinitionInfo@?A0xce6eb6f4@fbxsdk_20102@@@fbxsdk_20102@@YAXAAV?$KArrayTemplate@PAVKTypeDefinitionInfo@?A0xce6eb6f4@fbxsdk_20102@@@0@@Z
   ??$DeleteAndClear@PAVPropertyAssociation@fbxsdk_20102@@@fbxsdk_20102@@YAXAAV?$KArrayTemplate@PAVPropertyAssociation@fbxsdk_20102@@@0@@Z
   ??$destructElement@D@?$rbtree@DV?$Reference@Vparse@impl@fbxsdk_20102@@@aw@fbxsdk_20102@@U?$less@D@23@@aw@fbxsdk_20102@@CAXAADU?$int_switch@$0A@@12@@Z
   ??$destructElement@H@?$rbtree@VCString@awString@fbxsdk_20102@@HU?$less@VCString@awString@fbxsdk_20102@@@aw@3@@aw@fbxsdk_20102@@CAXAAHU?$int_switch@$0A@@12@@Z
   ??$destructElement@K@?$rbtree@KPA_NU?$less@K@aw@fbxsdk_20102@@@aw@fbxsdk_20102@@CAXAAKU?$int_switch@$0A@@12@@Z
   ??$destructElement@PA_N@?$rbtree@KPA_NU?$less@K@aw@fbxsdk_20102@@@aw@fbxsdk_20102@@CAXAAPA_NU?$int_switch@$0A@@12@@Z
   ??$destructElement@V?$Reference@VIdleTask@awUtil@fbxsdk_20102@@@aw@fbxsdk_20102@@@?$rbtree@V?$Reference@VIdleTask@awUtil@fbxsdk_20102@@@aw@fbxsdk_20102@@Viterator@?$list@V?$Reference@VIdleTask@awUtil@fbxsdk_20102@@@aw@fbxsdk_20102@@@23@U?$less@V?$Reference@VIdleTask@awUtil@fbxsdk_20102@@@aw@fbxsdk_20102@@@23@@aw@fbxsdk_20102@@CAXAAV?$Reference@VIdleTask@awUtil@fbxsdk_20102@@@12@U?$int_switch@$00@12@@Z
   ??$destructElement@V?$Reference@Vparse@impl@fbxsdk_20102@@@aw@fbxsdk_20102@@@?$rbtree@DV?$Reference@Vparse@impl@fbxsdk_20102@@@aw@fbxsdk_20102@@U?$less@D@23@@aw@fbxsdk_20102@@CAXAAV?$Reference@Vparse@impl@fbxsdk_20102@@@12@U?$int_switch@$00@12@@Z
   ??$destructElement@VCString@awString@fbxsdk_20102@@@?$rbtree@VCString@awString@fbxsdk_20102@@HU?$less@VCString@awString@fbxsdk_20102@@@aw@3@@aw@fbxsdk_20102@@CAXAAVCString@awString@2@U?$int_switch@$00@12@@Z
   ??$destructElement@Viterator@?$list@V?$Reference@VIdleTask@awUtil@fbxsdk_20102@@@aw@fbxsdk_20102@@@aw@fbxsdk_20102@@@?$rbtree@V?$Reference@VIdleTask@awUtil@fbxsdk_20102@@@aw@fbxsdk_20102@@Viterator@?$list@V?$Reference@VIdleTask@awUtil@fbxsdk_20102@@@aw@fbxsdk_20102@@@23@U?$less@V?$Reference@VIdleTask@awUtil@fbxsdk_20102@@@aw@fbxsdk_20102@@@23@@aw@fbxsdk_20102@@CAXAAViterator@?$list@V?$Reference@VIdleTask@awUtil@fbxsdk_20102@@@aw@fbxsdk_20102@@@12@U?$int_switch@$00@12@@Z
   ??$DisconnectAllSrcObject@VKFbxSurfaceMaterial@fbxsdk_20102@@@KFbxObject@fbxsdk_20102@@QAE_NPBVKFbxSurfaceMaterial@1@@Z
   ??$DisconnectAllSrcObject@VKFbxSurfaceMaterial@fbxsdk_20102@@@KFbxProperty@fbxsdk_20102@@QAE_NPBVKFbxSurfaceMaterial@1@@Z
   ??$DisconnectAllSrcObject@VKFbxTexture@fbxsdk_20102@@@KFbxObject@fbxsdk_20102@@QAE_NPBVKFbxTexture@1@@Z
   ??$DisconnectAllSrcObject@VKFbxTexture@fbxsdk_20102@@@KFbxProperty@fbxsdk_20102@@QAE_NPBVKFbxTexture@1@@Z
   ??$doNothing@V?$Reference@VIdleTask@awUtil@fbxsdk_20102@@@aw@fbxsdk_20102@@@?$rbtree@V?$Reference@VIdleTask@awUtil@fbxsdk_20102@@@aw@fbxsdk_20102@@Viterator@?$list@V?$Reference@VIdleTask@awUtil@fbxsdk_20102@@@aw@fbxsdk_20102@@@23@U?$less@V?$Reference@VIdleTask@awUtil@fbxsdk_20102@@@aw@fbxsdk_20102@@@23@@aw@fbxsdk_20102@@CAXAAV?$Reference@VIdleTask@awUtil@fbxsdk_20102@@@12@@Z
   ??$doNothing@V?$Reference@Vparse@impl@fbxsdk_20102@@@aw@fbxsdk_20102@@@?$rbtree@DV?$Reference@Vparse@impl@fbxsdk_20102@@@aw@fbxsdk_20102@@U?$less@D@23@@aw@fbxsdk_20102@@CAXAAV?$Reference@Vparse@impl@fbxsdk_20102@@@12@@Z
   ??$doNothing@VCString@awString@fbxsdk_20102@@@?$rbtree@VCString@awString@fbxsdk_20102@@HU?$less@VCString@awString@fbxsdk_20102@@@aw@3@@aw@fbxsdk_20102@@CAXAAVCString@awString@2@@Z
   ??$doNothing@Viterator@?$list@V?$Reference@VIdleTask@awUtil@fbxsdk_20102@@@aw@fbxsdk_20102@@@aw@fbxsdk_20102@@@?$rbtree@V?$Reference@VIdleTask@awUtil@fbxsdk_20102@@@aw@fbxsdk_20102@@Viterator@?$list@V?$Reference@VIdleTask@awUtil@fbxsdk_20102@@@aw@fbxsdk_20102@@@23@U?$less@V?$Reference@VIdleTask@awUtil@fbxsdk_20102@@@aw@fbxsdk_20102@@@23@@aw@fbxsdk_20102@@CAXAAViterator@?$list@V?$Reference@VIdleTask@awUtil@fbxsdk_20102@@@aw@fbxsdk_20102@@@12@@Z
   ??$Emit@VKFbxEventBase@kfbxevents@fbxsdk_20102@@@KFbxEmitter@kfbxevents@fbxsdk_20102@@QBEXABVKFbxEventBase@12@@Z
   ??$Emit@VKFbxEventReferencedDocument@fbxsdk_20102@@@KFbxEmitter@kfbxevents@fbxsdk_20102@@QBEXABVKFbxEventReferencedDocument@2@@Z
   ??$Emit@VKFbxObjectPropertyChanged@fbxsdk_20102@@@KFbxEmitter@kfbxevents@fbxsdk_20102@@QBEXABVKFbxObjectPropertyChanged@2@@Z
   ??$Emit@VKFbxScriptEvent@fbxsdk_20102@@@KFbxEmitter@kfbxevents@fbxsdk_20102@@QBEXABVKFbxScriptEvent@2@@Z
   ??$Emit@VKFbxUIUpdateEvent@fbxsdk_20102@@@KFbxEmitter@kfbxevents@fbxsdk_20102@@QBEXABVKFbxUIUpdateEvent@2@@Z
   ??$EvaluateEntry@_N@KFbxBindingOperator@fbxsdk_20102@@QBE_NPBVKFbxObject@1@PBDPA_N@Z
   ??$EvaluateEntry@H@KFbxBindingOperator@fbxsdk_20102@@QBE_NPBVKFbxObject@1@PBDPAH@Z
   ??$EvaluateEntry@M@KFbxBindingOperator@fbxsdk_20102@@QBE_NPBVKFbxObject@1@PBDPAM@Z
   ??$EvaluateEntry@V?$fbxVectorTemplate3@N@fbxsdk_20102@@@KFbxBindingOperator@fbxsdk_20102@@QBE_NPBVKFbxObject@1@PBDPAV?$fbxVectorTemplate3@N@1@@Z
   ??$EvaluateEntry@VfbxDistance@fbxsdk_20102@@@KFbxBindingOperator@fbxsdk_20102@@QBE_NPBVKFbxObject@1@PBDPAVfbxDistance@1@@Z
   ??$EvaluateEntry@VKString@fbxsdk_20102@@@KFbxBindingOperator@fbxsdk_20102@@QBE_NPBVKFbxObject@1@PBDPAVKString@1@@Z
   ??$fbxCopy@_J@fbxsdk_20102@@YA_NPAXW4EFbxType@0@AB_J@Z
   ??$fbxCopy@_K@fbxsdk_20102@@YA_NPAXW4EFbxType@0@AB_K@Z
   ??$fbxCopy@_N@fbxsdk_20102@@YA_NAA_NPBXW4EFbxType@0@@Z
   ??$fbxCopy@_N@fbxsdk_20102@@YA_NPAXW4EFbxType@0@AB_N@Z
   ??$fbxCopy@D@fbxsdk_20102@@YA_NPAXW4EFbxType@0@ABD@Z
   ??$fbxCopy@E@fbxsdk_20102@@YA_NPAXW4EFbxType@0@ABE@Z
   ??$fbxCopy@F@fbxsdk_20102@@YA_NPAXW4EFbxType@0@ABF@Z
   ??$fbxCopy@G@fbxsdk_20102@@YA_NPAXW4EFbxType@0@ABG@Z
   ??$fbxCopy@H@fbxsdk_20102@@YA_NAAHPBXW4EFbxType@0@@Z
   ??$fbxCopy@H@fbxsdk_20102@@YA_NPAXW4EFbxType@0@ABH@Z
   ??$fbxCopy@I@fbxsdk_20102@@YA_NPAXW4EFbxType@0@ABI@Z
   ??$fbxCopy@M@fbxsdk_20102@@YA_NAAMPBXW4EFbxType@0@@Z
   ??$fbxCopy@M@fbxsdk_20102@@YA_NPAXW4EFbxType@0@ABM@Z
   ??$fbxCopy@N@fbxsdk_20102@@YA_NPAXW4EFbxType@0@ABN@Z
   ??$fbxCopy@NVfbxBlob@fbxsdk_20102@@@fbxsdk_20102@@YA_NAANABVfbxBlob@0@@Z
   ??$fbxCopy@NVfbxDateTime@fbxsdk_20102@@@fbxsdk_20102@@YA_NAANABVfbxDateTime@0@@Z
   ??$fbxCopy@V?$fbxVectorTemplate2@N@fbxsdk_20102@@@fbxsdk_20102@@YA_NPAXW4EFbxType@0@ABV?$fbxVectorTemplate2@N@0@@Z
   ??$fbxCopy@V?$fbxVectorTemplate2@N@fbxsdk_20102@@V?$fbxVectorTemplate3@N@2@@fbxsdk_20102@@YA_NAAV?$fbxVectorTemplate2@N@0@ABV?$fbxVectorTemplate3@N@0@@Z
   ??$fbxCopy@V?$fbxVectorTemplate2@N@fbxsdk_20102@@V?$fbxVectorTemplate4@N@2@@fbxsdk_20102@@YA_NAAV?$fbxVectorTemplate2@N@0@ABV?$fbxVectorTemplate4@N@0@@Z
   ??$fbxCopy@V?$fbxVectorTemplate2@N@fbxsdk_20102@@V?$fbxVectorTemplate4@V?$fbxVectorTemplate4@N@fbxsdk_20102@@@2@@fbxsdk_20102@@YA_NAAV?$fbxVectorTemplate2@N@0@ABV?$fbxVectorTemplate4@V?$fbxVectorTemplate4@N@fbxsdk_20102@@@0@@Z
   ??$fbxCopy@V?$fbxVectorTemplate2@N@fbxsdk_20102@@VfbxBlob@2@@fbxsdk_20102@@YA_NAAV?$fbxVectorTemplate2@N@0@ABVfbxBlob@0@@Z
   ??$fbxCopy@V?$fbxVectorTemplate2@N@fbxsdk_20102@@VfbxDateTime@2@@fbxsdk_20102@@YA_NAAV?$fbxVectorTemplate2@N@0@ABVfbxDateTime@0@@Z
   ??$fbxCopy@V?$fbxVectorTemplate2@N@fbxsdk_20102@@VfbxDistance@2@@fbxsdk_20102@@YA_NAAV?$fbxVectorTemplate2@N@0@ABVfbxDistance@0@@Z
   ??$fbxCopy@V?$fbxVectorTemplate2@N@fbxsdk_20102@@VKString@2@@fbxsdk_20102@@YA_NAAV?$fbxVectorTemplate2@N@0@ABVKString@0@@Z
   ??$fbxCopy@V?$fbxVectorTemplate2@N@fbxsdk_20102@@VKTime@2@@fbxsdk_20102@@YA_NAAV?$fbxVectorTemplate2@N@0@ABVKTime@0@@Z
   ??$fbxCopy@V?$fbxVectorTemplate3@N@fbxsdk_20102@@@fbxsdk_20102@@YA_NAAV?$fbxVectorTemplate3@N@0@PBXW4EFbxType@0@@Z
   ??$fbxCopy@V?$fbxVectorTemplate3@N@fbxsdk_20102@@@fbxsdk_20102@@YA_NPAXW4EFbxType@0@ABV?$fbxVectorTemplate3@N@0@@Z
   ??$fbxCopy@V?$fbxVectorTemplate4@N@fbxsdk_20102@@@fbxsdk_20102@@YA_NPAXW4EFbxType@0@ABV?$fbxVectorTemplate4@N@0@@Z
   ??$fbxCopy@V?$fbxVectorTemplate4@V?$fbxVectorTemplate4@N@fbxsdk_20102@@@fbxsdk_20102@@@fbxsdk_20102@@YA_NPAXW4EFbxType@0@ABV?$fbxVectorTemplate4@V?$fbxVectorTemplate4@N@fbxsdk_20102@@@0@@Z
   ??$fbxCopy@V?$fbxVectorTemplate4@V?$fbxVectorTemplate4@N@fbxsdk_20102@@@fbxsdk_20102@@_J@fbxsdk_20102@@YA_NAAV?$fbxVectorTemplate4@V?$fbxVectorTemplate4@N@fbxsdk_20102@@@0@AB_J@Z
   ??$fbxCopy@V?$fbxVectorTemplate4@V?$fbxVectorTemplate4@N@fbxsdk_20102@@@fbxsdk_20102@@_K@fbxsdk_20102@@YA_NAAV?$fbxVectorTemplate4@V?$fbxVectorTemplate4@N@fbxsdk_20102@@@0@AB_K@Z
   ??$fbxCopy@V?$fbxVectorTemplate4@V?$fbxVectorTemplate4@N@fbxsdk_20102@@@fbxsdk_20102@@_N@fbxsdk_20102@@YA_NAAV?$fbxVectorTemplate4@V?$fbxVectorTemplate4@N@fbxsdk_20102@@@0@AB_N@Z
   ??$fbxCopy@V?$fbxVectorTemplate4@V?$fbxVectorTemplate4@N@fbxsdk_20102@@@fbxsdk_20102@@D@fbxsdk_20102@@YA_NAAV?$fbxVectorTemplate4@V?$fbxVectorTemplate4@N@fbxsdk_20102@@@0@ABD@Z
   ??$fbxCopy@V?$fbxVectorTemplate4@V?$fbxVectorTemplate4@N@fbxsdk_20102@@@fbxsdk_20102@@E@fbxsdk_20102@@YA_NAAV?$fbxVectorTemplate4@V?$fbxVectorTemplate4@N@fbxsdk_20102@@@0@ABE@Z
   ??$fbxCopy@V?$fbxVectorTemplate4@V?$fbxVectorTemplate4@N@fbxsdk_20102@@@fbxsdk_20102@@F@fbxsdk_20102@@YA_NAAV?$fbxVectorTemplate4@V?$fbxVectorTemplate4@N@fbxsdk_20102@@@0@ABF@Z
   ??$fbxCopy@V?$fbxVectorTemplate4@V?$fbxVectorTemplate4@N@fbxsdk_20102@@@fbxsdk_20102@@G@fbxsdk_20102@@YA_NAAV?$fbxVectorTemplate4@V?$fbxVectorTemplate4@N@fbxsdk_20102@@@0@ABG@Z
   ??$fbxCopy@V?$fbxVectorTemplate4@V?$fbxVectorTemplate4@N@fbxsdk_20102@@@fbxsdk_20102@@H@fbxsdk_20102@@YA_NAAV?$fbxVectorTemplate4@V?$fbxVectorTemplate4@N@fbxsdk_20102@@@0@ABH@Z
   ??$fbxCopy@V?$fbxVectorTemplate4@V?$fbxVectorTemplate4@N@fbxsdk_20102@@@fbxsdk_20102@@I@fbxsdk_20102@@YA_NAAV?$fbxVectorTemplate4@V?$fbxVectorTemplate4@N@fbxsdk_20102@@@0@ABI@Z
   ??$fbxCopy@V?$fbxVectorTemplate4@V?$fbxVectorTemplate4@N@fbxsdk_20102@@@fbxsdk_20102@@M@fbxsdk_20102@@YA_NAAV?$fbxVectorTemplate4@V?$fbxVectorTemplate4@N@fbxsdk_20102@@@0@ABM@Z
   ??$fbxCopy@V?$fbxVectorTemplate4@V?$fbxVectorTemplate4@N@fbxsdk_20102@@@fbxsdk_20102@@N@fbxsdk_20102@@YA_NAAV?$fbxVectorTemplate4@V?$fbxVectorTemplate4@N@fbxsdk_20102@@@0@ABN@Z
   ??$fbxCopy@V?$fbxVectorTemplate4@V?$fbxVectorTemplate4@N@fbxsdk_20102@@@fbxsdk_20102@@V?$fbxVectorTemplate2@N@2@@fbxsdk_20102@@YA_NAAV?$fbxVectorTemplate4@V?$fbxVectorTemplate4@N@fbxsdk_20102@@@0@ABV?$fbxVectorTemplate2@N@0@@Z
   ??$fbxCopy@V?$fbxVectorTemplate4@V?$fbxVectorTemplate4@N@fbxsdk_20102@@@fbxsdk_20102@@V?$fbxVectorTemplate3@N@2@@fbxsdk_20102@@YA_NAAV?$fbxVectorTemplate4@V?$fbxVectorTemplate4@N@fbxsdk_20102@@@0@ABV?$fbxVectorTemplate3@N@0@@Z
   ??$fbxCopy@V?$fbxVectorTemplate4@V?$fbxVectorTemplate4@N@fbxsdk_20102@@@fbxsdk_20102@@V?$fbxVectorTemplate4@N@2@@fbxsdk_20102@@YA_NAAV?$fbxVectorTemplate4@V?$fbxVectorTemplate4@N@fbxsdk_20102@@@0@ABV?$fbxVectorTemplate4@N@0@@Z
   ??$fbxCopy@V?$fbxVectorTemplate4@V?$fbxVectorTemplate4@N@fbxsdk_20102@@@fbxsdk_20102@@VfbxBlob@2@@fbxsdk_20102@@YA_NAAV?$fbxVectorTemplate4@V?$fbxVectorTemplate4@N@fbxsdk_20102@@@0@ABVfbxBlob@0@@Z
   ??$fbxCopy@V?$fbxVectorTemplate4@V?$fbxVectorTemplate4@N@fbxsdk_20102@@@fbxsdk_20102@@VfbxDateTime@2@@fbxsdk_20102@@YA_NAAV?$fbxVectorTemplate4@V?$fbxVectorTemplate4@N@fbxsdk_20102@@@0@ABVfbxDateTime@0@@Z
   ??$fbxCopy@V?$fbxVectorTemplate4@V?$fbxVectorTemplate4@N@fbxsdk_20102@@@fbxsdk_20102@@VfbxDistance@2@@fbxsdk_20102@@YA_NAAV?$fbxVectorTemplate4@V?$fbxVectorTemplate4@N@fbxsdk_20102@@@0@ABVfbxDistance@0@@Z
   ??$fbxCopy@V?$fbxVectorTemplate4@V?$fbxVectorTemplate4@N@fbxsdk_20102@@@fbxsdk_20102@@VfbxHalfFloat@2@@fbxsdk_20102@@YA_NAAV?$fbxVectorTemplate4@V?$fbxVectorTemplate4@N@fbxsdk_20102@@@0@ABVfbxHalfFloat@0@@Z
   ??$fbxCopy@V?$fbxVectorTemplate4@V?$fbxVectorTemplate4@N@fbxsdk_20102@@@fbxsdk_20102@@VKString@2@@fbxsdk_20102@@YA_NAAV?$fbxVectorTemplate4@V?$fbxVectorTemplate4@N@fbxsdk_20102@@@0@ABVKString@0@@Z
   ??$fbxCopy@V?$fbxVectorTemplate4@V?$fbxVectorTemplate4@N@fbxsdk_20102@@@fbxsdk_20102@@VKTime@2@@fbxsdk_20102@@YA_NAAV?$fbxVectorTemplate4@V?$fbxVectorTemplate4@N@fbxsdk_20102@@@0@ABVKTime@0@@Z
   ??$fbxCopy@VfbxBlob@fbxsdk_20102@@@fbxsdk_20102@@YA_NPAXW4EFbxType@0@ABVfbxBlob@0@@Z
   ??$fbxCopy@VfbxDateTime@fbxsdk_20102@@@fbxsdk_20102@@YA_NPAXW4EFbxType@0@ABVfbxDateTime@0@@Z
   ??$fbxCopy@VfbxDistance@fbxsdk_20102@@@fbxsdk_20102@@YA_NAAVfbxDistance@0@PBXW4EFbxType@0@@Z
   ??$fbxCopy@VfbxDistance@fbxsdk_20102@@@fbxsdk_20102@@YA_NPAXW4EFbxType@0@ABVfbxDistance@0@@Z
   ??$fbxCopy@VfbxHalfFloat@fbxsdk_20102@@@fbxsdk_20102@@YA_NPAXW4EFbxType@0@ABVfbxHalfFloat@0@@Z
   ??$fbxCopy@VKString@fbxsdk_20102@@@fbxsdk_20102@@YA_NAAVKString@0@PBXW4EFbxType@0@@Z
   ??$fbxCopy@VKString@fbxsdk_20102@@@fbxsdk_20102@@YA_NPAXW4EFbxType@0@ABVKString@0@@Z
   ??$fbxCopy@VKTime@fbxsdk_20102@@@fbxsdk_20102@@YA_NPAXW4EFbxType@0@ABVKTime@0@@Z
   ??$fbxCopy@VKTime@fbxsdk_20102@@_J@fbxsdk_20102@@YA_NAAVKTime@0@AB_J@Z
   ??$fbxCopy@VKTime@fbxsdk_20102@@_K@fbxsdk_20102@@YA_NAAVKTime@0@AB_K@Z
   ??$fbxCopy@VKTime@fbxsdk_20102@@_N@fbxsdk_20102@@YA_NAAVKTime@0@AB_N@Z
   ??$fbxCopy@VKTime@fbxsdk_20102@@D@fbxsdk_20102@@YA_NAAVKTime@0@ABD@Z
   ??$fbxCopy@VKTime@fbxsdk_20102@@E@fbxsdk_20102@@YA_NAAVKTime@0@ABE@Z
   ??$fbxCopy@VKTime@fbxsdk_20102@@F@fbxsdk_20102@@YA_NAAVKTime@0@ABF@Z
   ??$fbxCopy@VKTime@fbxsdk_20102@@G@fbxsdk_20102@@YA_NAAVKTime@0@ABG@Z
   ??$fbxCopy@VKTime@fbxsdk_20102@@H@fbxsdk_20102@@YA_NAAVKTime@0@ABH@Z
   ??$fbxCopy@VKTime@fbxsdk_20102@@I@fbxsdk_20102@@YA_NAAVKTime@0@ABI@Z
   ??$fbxCopy@VKTime@fbxsdk_20102@@M@fbxsdk_20102@@YA_NAAVKTime@0@ABM@Z
   ??$fbxCopy@VKTime@fbxsdk_20102@@N@fbxsdk_20102@@YA_NAAVKTime@0@ABN@Z
   ??$fbxCopy@VKTime@fbxsdk_20102@@V?$fbxVectorTemplate2@N@2@@fbxsdk_20102@@YA_NAAVKTime@0@ABV?$fbxVectorTemplate2@N@0@@Z
   ??$fbxCopy@VKTime@fbxsdk_20102@@V?$fbxVectorTemplate3@N@2@@fbxsdk_20102@@YA_NAAVKTime@0@ABV?$fbxVectorTemplate3@N@0@@Z
   ??$fbxCopy@VKTime@fbxsdk_20102@@V?$fbxVectorTemplate4@N@2@@fbxsdk_20102@@YA_NAAVKTime@0@ABV?$fbxVectorTemplate4@N@0@@Z
   ??$fbxCopy@VKTime@fbxsdk_20102@@V?$fbxVectorTemplate4@V?$fbxVectorTemplate4@N@fbxsdk_20102@@@2@@fbxsdk_20102@@YA_NAAVKTime@0@ABV?$fbxVectorTemplate4@V?$fbxVectorTemplate4@N@fbxsdk_20102@@@0@@Z
   ??$fbxCopy@VKTime@fbxsdk_20102@@VfbxBlob@2@@fbxsdk_20102@@YA_NAAVKTime@0@ABVfbxBlob@0@@Z
   ??$fbxCopy@VKTime@fbxsdk_20102@@VfbxDateTime@2@@fbxsdk_20102@@YA_NAAVKTime@0@ABVfbxDateTime@0@@Z
   ??$fbxCopy@VKTime@fbxsdk_20102@@VfbxDistance@2@@fbxsdk_20102@@YA_NAAVKTime@0@ABVfbxDistance@0@@Z
   ??$fbxCopy@VKTime@fbxsdk_20102@@VfbxHalfFloat@2@@fbxsdk_20102@@YA_NAAVKTime@0@ABVfbxHalfFloat@0@@Z
   ??$fbxCopy@VKTime@fbxsdk_20102@@VKString@2@@fbxsdk_20102@@YA_NAAVKTime@0@ABVKString@0@@Z
   ??$FEB@P6A_NH_NPAX@Z@KBitSetForEachImpl@fbxsdk_20102@@SA_NAAVKBitSet@1@AAP6A_NH_NPAX@Z2PAH4PA_N@Z
   ??$FEB@VKFindNextSetBit@fbxsdk_20102@@@KBitSetForEachImpl@fbxsdk_20102@@SA_NAAVKBitSet@1@AAVKFindNextSetBit@1@PAXPAH3PA_N@Z
   ??$FieldReadArrayImpl@_J@KFbxImpl@KFbx@fbxsdk_20102@@QAEPB_JAAHDPA_J@Z
   ??$FieldReadArrayImpl@_K@KFbxImpl@KFbx@fbxsdk_20102@@QAEPB_KAAHDPA_K@Z
   ??$FieldReadArrayImpl@_N@KFbxImpl@KFbx@fbxsdk_20102@@QAEPB_NAAHDPA_N@Z
   ??$FieldReadArrayImpl@C@KFbxImpl@KFbx@fbxsdk_20102@@QAEPBCAAHDPAC@Z
   ??$FieldReadArrayImpl@E@KFbxImpl@KFbx@fbxsdk_20102@@QAEPBEAAHDPAE@Z
   ??$FieldReadArrayImpl@F@KFbxImpl@KFbx@fbxsdk_20102@@QAEPBFAAHDPAF@Z
   ??$FieldReadArrayImpl@G@KFbxImpl@KFbx@fbxsdk_20102@@QAEPBGAAHDPAG@Z
   ??$FieldReadArrayImpl@H@KFbxImpl@KFbx@fbxsdk_20102@@QAEPBHAAHDPAH@Z
   ??$FieldReadArrayImpl@I@KFbxImpl@KFbx@fbxsdk_20102@@QAEPBIAAHDPAI@Z
   ??$FieldReadArrayImpl@M@KFbxImpl@KFbx@fbxsdk_20102@@QAEPBMAAHDPAM@Z
   ??$FieldReadArrayImpl@N@KFbxImpl@KFbx@fbxsdk_20102@@QAEPBNAAHDPAN@Z
   ??$FieldWriteArrayImpl@_J@KFbxImpl@KFbx@fbxsdk_20102@@QAEXHPB_JHHD@Z
   ??$FieldWriteArrayImpl@_K@KFbxImpl@KFbx@fbxsdk_20102@@QAEXHPB_KHHD@Z
   ??$FieldWriteArrayImpl@_N@KFbxImpl@KFbx@fbxsdk_20102@@QAEXHPB_NHHD@Z
   ??$FieldWriteArrayImpl@C@KFbxImpl@KFbx@fbxsdk_20102@@QAEXHPBCHHD@Z
   ??$FieldWriteArrayImpl@E@KFbxImpl@KFbx@fbxsdk_20102@@QAEXHPBEHHD@Z
   ??$FieldWriteArrayImpl@F@KFbxImpl@KFbx@fbxsdk_20102@@QAEXHPBFHHD@Z
   ??$FieldWriteArrayImpl@G@KFbxImpl@KFbx@fbxsdk_20102@@QAEXHPBGHHD@Z
   ??$FieldWriteArrayImpl@H@KFbxImpl@KFbx@fbxsdk_20102@@QAEXHPBHHHD@Z
   ??$FieldWriteArrayImpl@I@KFbxImpl@KFbx@fbxsdk_20102@@QAEXHPBIHHD@Z
   ??$FieldWriteArrayImpl@M@KFbxImpl@KFbx@fbxsdk_20102@@QAEXHPBMHHD@Z
   ??$FieldWriteArrayImpl@N@KFbxImpl@KFbx@fbxsdk_20102@@QAEXHPBNHHD@Z
   ??$FieldWriteIntegral@_J@KFbxImpl@KFbx@fbxsdk_20102@@QAEX_JD@Z
   ??$FieldWriteIntegral@_K@KFbxImpl@KFbx@fbxsdk_20102@@QAEX_KD@Z
   ??$FieldWriteIntegral@C@KFbxImpl@KFbx@fbxsdk_20102@@QAEXCD@Z
   ??$FieldWriteIntegral@E@KFbxImpl@KFbx@fbxsdk_20102@@QAEXED@Z
   ??$FieldWriteIntegral@F@KFbxImpl@KFbx@fbxsdk_20102@@QAEXFD@Z
   ??$FieldWriteIntegral@G@KFbxImpl@KFbx@fbxsdk_20102@@QAEXGD@Z
   ??$FieldWriteIntegral@H@KFbxImpl@KFbx@fbxsdk_20102@@QAEXHD@Z
   ??$FieldWriteIntegral@I@KFbxImpl@KFbx@fbxsdk_20102@@QAEXID@Z
   ??$fill@PAPAVawCacheChannel@fbxsdk_20102@@PAV12@@std@@YAXPAPAVawCacheChannel@fbxsdk_20102@@0ABQAV12@@Z
   ??$fill@PAPAVawCacheData@fbxsdk_20102@@PAV12@@std@@YAXPAPAVawCacheData@fbxsdk_20102@@0ABQAV12@@Z
   ??$fill@PAPAVKFbxDocument@fbxsdk_20102@@PAV12@@std@@YAXPAPAVKFbxDocument@fbxsdk_20102@@0ABQAV12@@Z
   ??$fill@PAPAVKFbxNode@fbxsdk_20102@@PAV12@@std@@YAXPAPAVKFbxNode@fbxsdk_20102@@0ABQAV12@@Z
   ??$fill@PAPAVThread@awThread@fbxsdk_20102@@PAV123@@std@@YAXPAPAVThread@awThread@fbxsdk_20102@@0ABQAV123@@Z
   ??$fill@PAUMemoryBlock@?A0xefc851d3@fbxsdk_20102@@U123@@std@@YAXPAUMemoryBlock@?A0xefc851d3@fbxsdk_20102@@0ABU123@@Z
   ??$fill@PAUProgressState@?A0x88b70b57@fbxsdk_20102@@U123@@std@@YAXPAUProgressState@?A0x88b70b57@fbxsdk_20102@@0ABU123@@Z
   ??$fill@PAV?$KPair@HH@fbxsdk_20102@@V12@@std@@YAXPAV?$KPair@HH@fbxsdk_20102@@0ABV12@@Z
   ??$fill@PAVawCachePerChannelInfo@fbxsdk_20102@@V12@@std@@YAXPAVawCachePerChannelInfo@fbxsdk_20102@@0ABV12@@Z
   ??$fill@PAVIString@awString@fbxsdk_20102@@V123@@std@@YAXPAVIString@awString@fbxsdk_20102@@0ABV123@@Z
   ??$Find@PAVKFbxSurfaceMaterial@fbxsdk_20102@@@KFbxLayerElementArray@fbxsdk_20102@@QBEHABQAVKFbxSurfaceMaterial@1@@Z
   ??$Find@PAVKFbxTexture@fbxsdk_20102@@@KFbxLayerElementArray@fbxsdk_20102@@QBEHABQAVKFbxTexture@1@@Z
   ??$Find@VKFbxVector4@fbxsdk_20102@@@KFbxLayerElementArray@fbxsdk_20102@@QBEHABVKFbxVector4@1@@Z
   ??$FindAssetByName@VKFbxEnvironment@fbxsdk_20102@@@KFbxMaxLightConverter@fbxsdk_20102@@ABEPBVKFbxObject@1@PBDPBVKFbxEnvironment@1@@Z
   ??$FindAssetByName@VKFbxLight@fbxsdk_20102@@@KFbxMaxLightConverter@fbxsdk_20102@@ABEPBVKFbxObject@1@PBDPBVKFbxLight@1@@Z
   ??$FindMember@VKFbxCollection@fbxsdk_20102@@@KFbxCollection@fbxsdk_20102@@QAEPAV01@PBV01@PBD@Z
   ??$FindSrcObject@VKFbxCollection@fbxsdk_20102@@@KFbxObject@fbxsdk_20102@@QBEPAVKFbxCollection@1@PBV21@PBDH@Z
   ??$FindSrcObject@VKFbxCollection@fbxsdk_20102@@@KFbxProperty@fbxsdk_20102@@QBEPAVKFbxCollection@1@PBV21@PBDH@Z
   ??$Get@_J@KFbxProperty@fbxsdk_20102@@QBE_JPB_J@Z
   ??$Get@_K@KFbxProperty@fbxsdk_20102@@QBE_KPB_K@Z
   ??$Get@_N@KFbxProperty@fbxsdk_20102@@QBE_NPB_N@Z
   ??$Get@D@KFbxProperty@fbxsdk_20102@@QBEDPBD@Z
   ??$Get@E@KFbxProperty@fbxsdk_20102@@QBEEPBE@Z
   ??$Get@F@KFbxProperty@fbxsdk_20102@@QBEFPBF@Z
   ??$Get@G@KFbxProperty@fbxsdk_20102@@QBEGPBG@Z
   ??$Get@H@KFbxProperty@fbxsdk_20102@@QBEHPBH@Z
   ??$Get@I@KFbxProperty@fbxsdk_20102@@QBEIPBI@Z
   ??$Get@M@KFbxProperty@fbxsdk_20102@@QBEMPBM@Z
   ??$Get@N@KFbxProperty@fbxsdk_20102@@QBENPBN@Z
   ??$Get@V?$fbxVectorTemplate2@N@fbxsdk_20102@@@KFbxProperty@fbxsdk_20102@@QBE?AV?$fbxVectorTemplate2@N@1@PBV21@@Z
   ??$Get@V?$fbxVectorTemplate3@N@fbxsdk_20102@@@KFbxProperty@fbxsdk_20102@@QBE?AV?$fbxVectorTemplate3@N@1@PBV21@@Z
   ??$Get@V?$fbxVectorTemplate4@N@fbxsdk_20102@@@KFbxProperty@fbxsdk_20102@@QBE?AV?$fbxVectorTemplate4@N@1@PBV21@@Z
   ??$Get@V?$fbxVectorTemplate4@V?$fbxVectorTemplate4@N@fbxsdk_20102@@@fbxsdk_20102@@@KFbxProperty@fbxsdk_20102@@QBE?AV?$fbxVectorTemplate4@V?$fbxVectorTemplate4@N@fbxsdk_20102@@@1@PBV21@@Z
   ??$Get@VfbxBlob@fbxsdk_20102@@@KFbxProperty@fbxsdk_20102@@QBE?AVfbxBlob@1@PBV21@@Z
   ??$Get@VfbxDateTime@fbxsdk_20102@@@KFbxProperty@fbxsdk_20102@@QBE?AVfbxDateTime@1@PBV21@@Z
   ??$Get@VfbxDistance@fbxsdk_20102@@@KFbxProperty@fbxsdk_20102@@QBE?AVfbxDistance@1@PBV21@@Z
   ??$Get@VfbxHalfFloat@fbxsdk_20102@@@KFbxProperty@fbxsdk_20102@@QBE?AVfbxHalfFloat@1@PBV21@@Z
   ??$Get@VKString@fbxsdk_20102@@@KFbxProperty@fbxsdk_20102@@QBE?AVKString@1@PBV21@@Z
   ??$Get@VKTime@fbxsdk_20102@@@KFbxProperty@fbxsdk_20102@@QBE?AVKTime@1@PBV21@@Z
   ??$GetASCIIArrayValue@_J@KFbxFieldInfo@KFbxFieldInstance@fbxsdk_20102@@QAE?AU?$KFbxFieldArray@_J@2@HAAVKFbxFieldList@2@PA_J@Z
   ??$GetASCIIArrayValue@_K@KFbxFieldInfo@KFbxFieldInstance@fbxsdk_20102@@QAE?AU?$KFbxFieldArray@_K@2@HAAVKFbxFieldList@2@PA_K@Z
   ??$GetASCIIArrayValue@_N@KFbxFieldInfo@KFbxFieldInstance@fbxsdk_20102@@QAE?AU?$KFbxFieldArray@_N@2@HAAVKFbxFieldList@2@PA_N@Z
   ??$GetASCIIArrayValue@C@KFbxFieldInfo@KFbxFieldInstance@fbxsdk_20102@@QAE?AU?$KFbxFieldArray@C@2@HAAVKFbxFieldList@2@PAC@Z
   ??$GetASCIIArrayValue@E@KFbxFieldInfo@KFbxFieldInstance@fbxsdk_20102@@QAE?AU?$KFbxFieldArray@E@2@HAAVKFbxFieldList@2@PAE@Z
   ??$GetASCIIArrayValue@F@KFbxFieldInfo@KFbxFieldInstance@fbxsdk_20102@@QAE?AU?$KFbxFieldArray@F@2@HAAVKFbxFieldList@2@PAF@Z
   ??$GetASCIIArrayValue@G@KFbxFieldInfo@KFbxFieldInstance@fbxsdk_20102@@QAE?AU?$KFbxFieldArray@G@2@HAAVKFbxFieldList@2@PAG@Z
   ??$GetASCIIArrayValue@H@KFbxFieldInfo@KFbxFieldInstance@fbxsdk_20102@@QAE?AU?$KFbxFieldArray@H@2@HAAVKFbxFieldList@2@PAH@Z
   ??$GetASCIIArrayValue@I@KFbxFieldInfo@KFbxFieldInstance@fbxsdk_20102@@QAE?AU?$KFbxFieldArray@I@2@HAAVKFbxFieldList@2@PAI@Z
   ??$GetASCIIArrayValue@M@KFbxFieldInfo@KFbxFieldInstance@fbxsdk_20102@@QAE?AU?$KFbxFieldArray@M@2@HAAVKFbxFieldList@2@PAM@Z
   ??$GetASCIIArrayValue@N@KFbxFieldInfo@KFbxFieldInstance@fbxsdk_20102@@QAE?AU?$KFbxFieldArray@N@2@HAAVKFbxFieldList@2@PAN@Z
   ??$GetAt@_N@KFbxLayerElementArray@fbxsdk_20102@@QBE_NHPA_N@Z
   ??$GetAt@H@KFbxLayerElementArray@fbxsdk_20102@@QBE_NHPAH@Z
   ??$GetAt@M@KFbxLayerElementArray@fbxsdk_20102@@QBE_NHPAM@Z
   ??$GetAt@N@KFbxLayerElementArray@fbxsdk_20102@@QBE_NHPAN@Z
   ??$GetAt@PAVKFbxSurfaceMaterial@fbxsdk_20102@@@KFbxLayerElementArray@fbxsdk_20102@@QBE_NHPAPAVKFbxSurfaceMaterial@1@@Z
   ??$GetAt@PAVKFbxTexture@fbxsdk_20102@@@KFbxLayerElementArray@fbxsdk_20102@@QBE_NHPAPAVKFbxTexture@1@@Z
   ??$GetAt@VKFbxColor@fbxsdk_20102@@@KFbxLayerElementArray@fbxsdk_20102@@QBE_NHPAVKFbxColor@1@@Z
   ??$GetAt@VKFbxVector2@fbxsdk_20102@@@KFbxLayerElementArray@fbxsdk_20102@@QBE_NHPAVKFbxVector2@1@@Z
   ??$GetAt@VKFbxVector4@fbxsdk_20102@@@KFbxLayerElementArray@fbxsdk_20102@@QBE_NHPAVKFbxVector4@1@@Z
   ??$GetBinaryArrayValue@_J@KFbxFieldInfo@KFbxFieldInstance@fbxsdk_20102@@QAE?AU?$KFbxFieldArray@_J@2@H_NPA_J@Z
   ??$GetBinaryArrayValue@_K@KFbxFieldInfo@KFbxFieldInstance@fbxsdk_20102@@QAE?AU?$KFbxFieldArray@_K@2@H_NPA_K@Z
   ??$GetBinaryArrayValue@_N@KFbxFieldInfo@KFbxFieldInstance@fbxsdk_20102@@QAE?AU?$KFbxFieldArray@_N@2@H_NPA_N@Z
   ??$GetBinaryArrayValue@C@KFbxFieldInfo@KFbxFieldInstance@fbxsdk_20102@@QAE?AU?$KFbxFieldArray@C@2@H_NPAC@Z
   ??$GetBinaryArrayValue@E@KFbxFieldInfo@KFbxFieldInstance@fbxsdk_20102@@QAE?AU?$KFbxFieldArray@E@2@H_NPAE@Z
   ??$GetBinaryArrayValue@F@KFbxFieldInfo@KFbxFieldInstance@fbxsdk_20102@@QAE?AU?$KFbxFieldArray@F@2@H_NPAF@Z
   ??$GetBinaryArrayValue@G@KFbxFieldInfo@KFbxFieldInstance@fbxsdk_20102@@QAE?AU?$KFbxFieldArray@G@2@H_NPAG@Z
   ??$GetBinaryArrayValue@H@KFbxFieldInfo@KFbxFieldInstance@fbxsdk_20102@@QAE?AU?$KFbxFieldArray@H@2@H_NPAH@Z
   ??$GetBinaryArrayValue@I@KFbxFieldInfo@KFbxFieldInstance@fbxsdk_20102@@QAE?AU?$KFbxFieldArray@I@2@H_NPAI@Z
   ??$GetBinaryArrayValue@M@KFbxFieldInfo@KFbxFieldInstance@fbxsdk_20102@@QAE?AU?$KFbxFieldArray@M@2@H_NPAM@Z
   ??$GetBinaryArrayValue@N@KFbxFieldInfo@KFbxFieldInstance@fbxsdk_20102@@QAE?AU?$KFbxFieldArray@N@2@H_NPAN@Z
   ??$GetDstIfObject@VKFbxDocument@fbxsdk_20102@@@KFbxConnectEvent@fbxsdk_20102@@QBEPAVKFbxDocument@1@PBV21@@Z
   ??$GetDstIfObject@VKFbxLight@fbxsdk_20102@@@KFbxConnectEvent@fbxsdk_20102@@QBEPAVKFbxLight@1@PBV21@@Z
   ??$GetDstIfObject@VKFbxNode@fbxsdk_20102@@@KFbxConnectEvent@fbxsdk_20102@@QBEPAVKFbxNode@1@PBV21@@Z
   ??$GetDstIfObject@VKFbxObject@fbxsdk_20102@@@KFbxConnectEvent@fbxsdk_20102@@QBEPAVKFbxObject@1@PBV21@@Z
   ??$GetDstIfObject@VKFbxTexture@fbxsdk_20102@@@KFbxConnectEvent@fbxsdk_20102@@QBEPAVKFbxTexture@1@PBV21@@Z
   ??$GetDstObject@VKFbxCluster@fbxsdk_20102@@@KFbxObject@fbxsdk_20102@@QBEPAVKFbxCluster@1@PBV21@H@Z
   ??$GetDstObject@VKFbxCluster@fbxsdk_20102@@@KFbxProperty@fbxsdk_20102@@QBEPAVKFbxCluster@1@PBV21@H@Z
   ??$GetDstObject@VKFbxImplementation@fbxsdk_20102@@@KFbxObject@fbxsdk_20102@@QBEPAVKFbxImplementation@1@PBV21@H@Z
   ??$GetDstObject@VKFbxImplementation@fbxsdk_20102@@@KFbxProperty@fbxsdk_20102@@QBEPAVKFbxImplementation@1@PBV21@H@Z
   ??$GetDstObject@VKFbxLibrary@fbxsdk_20102@@@KFbxObject@fbxsdk_20102@@QBEPAVKFbxLibrary@1@PBV21@H@Z
   ??$GetDstObject@VKFbxLibrary@fbxsdk_20102@@@KFbxProperty@fbxsdk_20102@@QBEPAVKFbxLibrary@1@PBV21@H@Z
   ??$GetDstObject@VKFbxNode@fbxsdk_20102@@@KFbxObject@fbxsdk_20102@@QBEPAVKFbxNode@1@PBV21@H@Z
   ??$GetDstObject@VKFbxNode@fbxsdk_20102@@@KFbxProperty@fbxsdk_20102@@QBEPAVKFbxNode@1@PBV21@H@Z
   ??$GetDstObject@VKFbxNodeAttribute@fbxsdk_20102@@@KFbxObject@fbxsdk_20102@@QBEPAVKFbxNodeAttribute@1@PBV21@H@Z
   ??$GetDstObject@VKFbxNodeAttribute@fbxsdk_20102@@@KFbxProperty@fbxsdk_20102@@QBEPAVKFbxNodeAttribute@1@PBV21@H@Z
   ??$GetDstObject@VKFbxSelectionNode@fbxsdk_20102@@@KFbxObject@fbxsdk_20102@@QBEPAVKFbxSelectionNode@1@PBV21@H@Z
   ??$GetDstObject@VKFbxSelectionNode@fbxsdk_20102@@@KFbxProperty@fbxsdk_20102@@QBEPAVKFbxSelectionNode@1@PBV21@H@Z
   ??$GetDstObject@VKFbxSelectionSet@fbxsdk_20102@@@KFbxObject@fbxsdk_20102@@QBEPAVKFbxSelectionSet@1@PBV21@H@Z
   ??$GetDstObject@VKFbxSelectionSet@fbxsdk_20102@@@KFbxProperty@fbxsdk_20102@@QBEPAVKFbxSelectionSet@1@PBV21@H@Z
   ??$GetDstObjectCount@VKFbxCluster@fbxsdk_20102@@@KFbxObject@fbxsdk_20102@@QBEHPBVKFbxCluster@1@@Z
   ??$GetDstObjectCount@VKFbxCluster@fbxsdk_20102@@@KFbxProperty@fbxsdk_20102@@QBEHPBVKFbxCluster@1@@Z
   ??$GetDstObjectCount@VKFbxImplementation@fbxsdk_20102@@@KFbxObject@fbxsdk_20102@@QBEHPBVKFbxImplementation@1@@Z
   ??$GetDstObjectCount@VKFbxImplementation@fbxsdk_20102@@@KFbxProperty@fbxsdk_20102@@QBEHPBVKFbxImplementation@1@@Z
   ??$GetDstObjectCount@VKFbxNode@fbxsdk_20102@@@KFbxObject@fbxsdk_20102@@QBEHPBVKFbxNode@1@@Z
   ??$GetDstObjectCount@VKFbxNode@fbxsdk_20102@@@KFbxProperty@fbxsdk_20102@@QBEHPBVKFbxNode@1@@Z
   ??$GetDstObjectCount@VKFbxObject@fbxsdk_20102@@@KFbxObject@fbxsdk_20102@@QBEHPBV01@@Z
   ??$GetDstObjectCount@VKFbxObject@fbxsdk_20102@@@KFbxProperty@fbxsdk_20102@@QBEHPBVKFbxObject@1@@Z
   ??$GetFirstPropertyItem@VKFbxPropertyValue@fbxsdk_20102@@@KFbxPropertyPage@fbxsdk_20102@@QBEPAV01@HPBVKFbxPropertyValue@1@@Z
   ??$GetLast@H@KFbxLayerElementArray@fbxsdk_20102@@QBE_NPAH@Z
   ??$GetLocked@_N@KFbxLayerElementArray@fbxsdk_20102@@QAEPA_NPA_NW4ELockMode@01@@Z
   ??$GetLocked@H@KFbxLayerElementArray@fbxsdk_20102@@QAEPAHPAHW4ELockMode@01@@Z
   ??$GetLocked@M@KFbxLayerElementArray@fbxsdk_20102@@QAEPAMPAMW4ELockMode@01@@Z
   ??$GetLocked@N@KFbxLayerElementArray@fbxsdk_20102@@QAEPANPANW4ELockMode@01@@Z
   ??$GetLocked@PAI@KFbxLayerElementArray@fbxsdk_20102@@QAEPAPAIPAPAIW4ELockMode@01@@Z
   ??$GetLocked@PAVKFbxLayerElementArray@fbxsdk_20102@@@KFbxLayerElementArray@fbxsdk_20102@@QAEPAPAV01@PAPAV01@W4ELockMode@01@@Z
   ??$GetLocked@PAVKFbxSurfaceMaterial@fbxsdk_20102@@@KFbxLayerElementArray@fbxsdk_20102@@QAEPAPAVKFbxSurfaceMaterial@1@PAPAV21@W4ELockMode@01@@Z
   ??$GetLocked@VKFbxColor@fbxsdk_20102@@@KFbxLayerElementArray@fbxsdk_20102@@QAEPAVKFbxColor@1@PAV21@W4ELockMode@01@@Z
   ??$GetLocked@VKFbxVector2@fbxsdk_20102@@@KFbxLayerElementArray@fbxsdk_20102@@QAEPAVKFbxVector2@1@PAV21@W4ELockMode@01@@Z
   ??$GetLocked@VKFbxVector4@fbxsdk_20102@@@KFbxLayerElementArray@fbxsdk_20102@@QAEPAVKFbxVector4@1@PAV21@W4ELockMode@01@@Z
   ??$GetMax@N@KFbxPropertyHandle@fbxsdk_20102@@QBENPBN@Z
   ??$GetMember@VKFbxContainer@fbxsdk_20102@@@KFbxCollection@fbxsdk_20102@@QBEPAVKFbxContainer@1@PBV21@H@Z
   ??$GetMember@VKFbxDocument@fbxsdk_20102@@@KFbxCollection@fbxsdk_20102@@QBEPAVKFbxDocument@1@PBV21@H@Z
   ??$GetMember@VKFbxEnvironment@fbxsdk_20102@@@KFbxCollection@fbxsdk_20102@@QBEPAVKFbxEnvironment@1@PBV21@H@Z
   ??$GetMember@VKFbxLight@fbxsdk_20102@@@KFbxCollection@fbxsdk_20102@@QBEPAVKFbxLight@1@PBV21@H@Z
   ??$GetMember@VKFbxSelectionNode@fbxsdk_20102@@@KFbxCollection@fbxsdk_20102@@QBEPAVKFbxSelectionNode@1@PBV21@H@Z
   ??$GetMember@VKFbxSelectionSet@fbxsdk_20102@@@KFbxCollection@fbxsdk_20102@@QBEPAVKFbxSelectionSet@1@PBV21@H@Z
   ??$GetMemberCount@VKFbxContainer@fbxsdk_20102@@@KFbxCollection@fbxsdk_20102@@QBEHPBVKFbxContainer@1@@Z
   ??$GetMemberCount@VKFbxDocument@fbxsdk_20102@@@KFbxCollection@fbxsdk_20102@@QBEHPBVKFbxDocument@1@@Z
   ??$GetMemberCount@VKFbxEnvironment@fbxsdk_20102@@@KFbxCollection@fbxsdk_20102@@QBEHPBVKFbxEnvironment@1@@Z
   ??$GetMemberCount@VKFbxLight@fbxsdk_20102@@@KFbxCollection@fbxsdk_20102@@QBEHPBVKFbxLight@1@@Z
   ??$GetMemberCount@VKFbxSelectionNode@fbxsdk_20102@@@KFbxCollection@fbxsdk_20102@@QBEHPBVKFbxSelectionNode@1@@Z
   ??$GetMemberCount@VKFbxSelectionSet@fbxsdk_20102@@@KFbxCollection@fbxsdk_20102@@QBEHPBVKFbxSelectionSet@1@@Z
   ??$GetMin@N@KFbxPropertyHandle@fbxsdk_20102@@QBENPBN@Z
   ??$GetPropertyItem@VKFbxPropertyConnect@fbxsdk_20102@@@KFbxPropertyPage@fbxsdk_20102@@QBEPAVKFbxPropertyConnect@1@PBV21@HPAPAV01@@Z
   ??$GetPropertyItem@VKFbxPropertyFlags@fbxsdk_20102@@@KFbxPropertyPage@fbxsdk_20102@@QBEPAVKFbxPropertyFlags@1@PBV21@HPAPAV01@@Z
   ??$GetPropertyItem@VKFbxPropertyInfo@fbxsdk_20102@@@KFbxPropertyPage@fbxsdk_20102@@QBEPAVKFbxPropertyInfo@1@PBV21@HPAPAV01@@Z
   ??$GetPropertyItem@VKFbxPropertyValue@fbxsdk_20102@@@KFbxPropertyPage@fbxsdk_20102@@QBEPAVKFbxPropertyValue@1@PBV21@HPAPAV01@@Z
   ??$GetSrcIfObject@VKFbxCharacter@fbxsdk_20102@@@KFbxConnectEvent@fbxsdk_20102@@QBEPAVKFbxCharacter@1@PBV21@@Z
   ??$GetSrcIfObject@VKFbxControlSetPlug@fbxsdk_20102@@@KFbxConnectEvent@fbxsdk_20102@@QBEPAVKFbxControlSetPlug@1@PBV21@@Z
   ??$GetSrcIfObject@VKFbxNode@fbxsdk_20102@@@KFbxConnectEvent@fbxsdk_20102@@QBEPAVKFbxNode@1@PBV21@@Z
   ??$GetSrcIfObject@VKFbxObject@fbxsdk_20102@@@KFbxConnectEvent@fbxsdk_20102@@QBEPAVKFbxObject@1@PBV21@@Z
   ??$GetSrcIfObject@VKFbxTexture@fbxsdk_20102@@@KFbxConnectEvent@fbxsdk_20102@@QBEPAVKFbxTexture@1@PBV21@@Z
   ??$GetSrcObject@VKFbxBindingOperator@fbxsdk_20102@@@KFbxObject@fbxsdk_20102@@QBEPAVKFbxBindingOperator@1@PBV21@H@Z
   ??$GetSrcObject@VKFbxBindingOperator@fbxsdk_20102@@@KFbxProperty@fbxsdk_20102@@QBEPAVKFbxBindingOperator@1@PBV21@H@Z
   ??$GetSrcObject@VKFbxBindingTable@fbxsdk_20102@@@KFbxObject@fbxsdk_20102@@QBEPAVKFbxBindingTable@1@PBV21@H@Z
   ??$GetSrcObject@VKFbxBindingTable@fbxsdk_20102@@@KFbxProperty@fbxsdk_20102@@QBEPAVKFbxBindingTable@1@PBV21@H@Z
   ??$GetSrcObject@VKFbxCache@fbxsdk_20102@@@KFbxObject@fbxsdk_20102@@QBEPAVKFbxCache@1@PBV21@H@Z
   ??$GetSrcObject@VKFbxCache@fbxsdk_20102@@@KFbxProperty@fbxsdk_20102@@QBEPAVKFbxCache@1@PBV21@H@Z
   ??$GetSrcObject@VKFbxCluster@fbxsdk_20102@@@KFbxObject@fbxsdk_20102@@QBEPAVKFbxCluster@1@PBV21@H@Z
   ??$GetSrcObject@VKFbxCluster@fbxsdk_20102@@@KFbxProperty@fbxsdk_20102@@QBEPAVKFbxCluster@1@PBV21@H@Z
   ??$GetSrcObject@VKFbxConstraint@fbxsdk_20102@@@KFbxObject@fbxsdk_20102@@QBEPAVKFbxConstraint@1@PBV21@H@Z
   ??$GetSrcObject@VKFbxConstraint@fbxsdk_20102@@@KFbxProperty@fbxsdk_20102@@QBEPAVKFbxConstraint@1@PBV21@H@Z
   ??$GetSrcObject@VKFbxDeformer@fbxsdk_20102@@@KFbxObject@fbxsdk_20102@@QBEPAVKFbxDeformer@1@PBV21@H@Z
   ??$GetSrcObject@VKFbxDeformer@fbxsdk_20102@@@KFbxProperty@fbxsdk_20102@@QBEPAVKFbxDeformer@1@PBV21@H@Z
   ??$GetSrcObject@VKFbxDocument@fbxsdk_20102@@@KFbxObject@fbxsdk_20102@@QBEPAVKFbxDocument@1@PBV21@H@Z
   ??$GetSrcObject@VKFbxDocument@fbxsdk_20102@@@KFbxProperty@fbxsdk_20102@@QBEPAVKFbxDocument@1@PBV21@H@Z
   ??$GetSrcObject@VKFbxEnvironment@fbxsdk_20102@@@KFbxObject@fbxsdk_20102@@QBEPAVKFbxEnvironment@1@PBV21@H@Z
   ??$GetSrcObject@VKFbxEnvironment@fbxsdk_20102@@@KFbxProperty@fbxsdk_20102@@QBEPAVKFbxEnvironment@1@PBV21@H@Z
   ??$GetSrcObject@VKFbxExposureControl@fbxsdk_20102@@@KFbxObject@fbxsdk_20102@@QBEPAVKFbxExposureControl@1@PBV21@H@Z
   ??$GetSrcObject@VKFbxExposureControl@fbxsdk_20102@@@KFbxProperty@fbxsdk_20102@@QBEPAVKFbxExposureControl@1@PBV21@H@Z
   ??$GetSrcObject@VKFbxGenericNode@fbxsdk_20102@@@KFbxObject@fbxsdk_20102@@QBEPAVKFbxGenericNode@1@PBV21@H@Z
   ??$GetSrcObject@VKFbxGenericNode@fbxsdk_20102@@@KFbxProperty@fbxsdk_20102@@QBEPAVKFbxGenericNode@1@PBV21@H@Z
   ??$GetSrcObject@VKFbxGeometry@fbxsdk_20102@@@KFbxObject@fbxsdk_20102@@QBEPAVKFbxGeometry@1@PBV21@H@Z
   ??$GetSrcObject@VKFbxGeometry@fbxsdk_20102@@@KFbxProperty@fbxsdk_20102@@QBEPAVKFbxGeometry@1@PBV21@H@Z
   ??$GetSrcObject@VKFbxGeometryWeightedMap@fbxsdk_20102@@@KFbxObject@fbxsdk_20102@@QBEPAVKFbxGeometryWeightedMap@1@PBV21@H@Z
   ??$GetSrcObject@VKFbxGeometryWeightedMap@fbxsdk_20102@@@KFbxProperty@fbxsdk_20102@@QBEPAVKFbxGeometryWeightedMap@1@PBV21@H@Z
   ??$GetSrcObject@VKFbxImplementation@fbxsdk_20102@@@KFbxObject@fbxsdk_20102@@QBEPAVKFbxImplementation@1@PBV21@H@Z
   ??$GetSrcObject@VKFbxImplementation@fbxsdk_20102@@@KFbxProperty@fbxsdk_20102@@QBEPAVKFbxImplementation@1@PBV21@H@Z
   ??$GetSrcObject@VKFbxLayeredTexture@fbxsdk_20102@@@KFbxObject@fbxsdk_20102@@QBEPAVKFbxLayeredTexture@1@PBV21@H@Z
   ??$GetSrcObject@VKFbxLayeredTexture@fbxsdk_20102@@@KFbxProperty@fbxsdk_20102@@QBEPAVKFbxLayeredTexture@1@PBV21@H@Z
   ??$GetSrcObject@VKFbxLibrary@fbxsdk_20102@@@KFbxObject@fbxsdk_20102@@QBEPAVKFbxLibrary@1@PBV21@H@Z
   ??$GetSrcObject@VKFbxLibrary@fbxsdk_20102@@@KFbxProperty@fbxsdk_20102@@QBEPAVKFbxLibrary@1@PBV21@H@Z
   ??$GetSrcObject@VKFbxMesh@fbxsdk_20102@@@KFbxObject@fbxsdk_20102@@QBEPAVKFbxMesh@1@PBV21@H@Z
   ??$GetSrcObject@VKFbxMesh@fbxsdk_20102@@@KFbxProperty@fbxsdk_20102@@QBEPAVKFbxMesh@1@PBV21@H@Z
   ??$GetSrcObject@VKFbxNode@fbxsdk_20102@@@KFbxObject@fbxsdk_20102@@QBEPAVKFbxNode@1@PBV21@H@Z
   ??$GetSrcObject@VKFbxNode@fbxsdk_20102@@@KFbxProperty@fbxsdk_20102@@QBEPAVKFbxNode@1@PBV21@H@Z
   ??$GetSrcObject@VKFbxNodeAttribute@fbxsdk_20102@@@KFbxObject@fbxsdk_20102@@QBEPAVKFbxNodeAttribute@1@PBV21@H@Z
   ??$GetSrcObject@VKFbxNodeAttribute@fbxsdk_20102@@@KFbxProperty@fbxsdk_20102@@QBEPAVKFbxNodeAttribute@1@PBV21@H@Z
   ??$GetSrcObject@VKFbxObject@fbxsdk_20102@@@KFbxObject@fbxsdk_20102@@QBEPAV01@PBV01@H@Z
   ??$GetSrcObject@VKFbxObject@fbxsdk_20102@@@KFbxProperty@fbxsdk_20102@@QBEPAVKFbxObject@1@PBV21@H@Z
   ??$GetSrcObject@VKFbxPose@fbxsdk_20102@@@KFbxObject@fbxsdk_20102@@QBEPAVKFbxPose@1@PBV21@H@Z
   ??$GetSrcObject@VKFbxPose@fbxsdk_20102@@@KFbxProperty@fbxsdk_20102@@QBEPAVKFbxPose@1@PBV21@H@Z
   ??$GetSrcObject@VKFbxSkin@fbxsdk_20102@@@KFbxObject@fbxsdk_20102@@QBEPAVKFbxSkin@1@PBV21@H@Z
   ??$GetSrcObject@VKFbxSkin@fbxsdk_20102@@@KFbxProperty@fbxsdk_20102@@QBEPAVKFbxSkin@1@PBV21@H@Z
   ??$GetSrcObject@VKFbxSurfaceMaterial@fbxsdk_20102@@@KFbxObject@fbxsdk_20102@@QBEPAVKFbxSurfaceMaterial@1@PBV21@H@Z
   ??$GetSrcObject@VKFbxSurfaceMaterial@fbxsdk_20102@@@KFbxProperty@fbxsdk_20102@@QBEPAVKFbxSurfaceMaterial@1@PBV21@H@Z
   ??$GetSrcObject@VKFbxTakeNodeContainer@fbxsdk_20102@@@KFbxObject@fbxsdk_20102@@QBEPAVKFbxTakeNodeContainer@1@PBV21@H@Z
   ??$GetSrcObject@VKFbxTakeNodeContainer@fbxsdk_20102@@@KFbxProperty@fbxsdk_20102@@QBEPAVKFbxTakeNodeContainer@1@PBV21@H@Z
   ??$GetSrcObject@VKFbxTexture@fbxsdk_20102@@@KFbxObject@fbxsdk_20102@@QBEPAVKFbxTexture@1@PBV21@H@Z
   ??$GetSrcObject@VKFbxTexture@fbxsdk_20102@@@KFbxProperty@fbxsdk_20102@@QBEPAVKFbxTexture@1@PBV21@H@Z
   ??$GetSrcObject@VKFbxThumbnail@fbxsdk_20102@@@KFbxObject@fbxsdk_20102@@QBEPAVKFbxThumbnail@1@PBV21@H@Z
   ??$GetSrcObject@VKFbxThumbnail@fbxsdk_20102@@@KFbxProperty@fbxsdk_20102@@QBEPAVKFbxThumbnail@1@PBV21@H@Z
   ??$GetSrcObject@VKFbxUIDefinition@fbxsdk_20102@@@KFbxObject@fbxsdk_20102@@QBEPAVKFbxUIDefinition@1@PBV21@H@Z
   ??$GetSrcObject@VKFbxUIDefinition@fbxsdk_20102@@@KFbxProperty@fbxsdk_20102@@QBEPAVKFbxUIDefinition@1@PBV21@H@Z
   ??$GetSrcObject@VKFbxUIWidgetDefinition@fbxsdk_20102@@@KFbxObject@fbxsdk_20102@@QBEPAVKFbxUIWidgetDefinition@1@PBV21@H@Z
   ??$GetSrcObject@VKFbxUIWidgetDefinition@fbxsdk_20102@@@KFbxProperty@fbxsdk_20102@@QBEPAVKFbxUIWidgetDefinition@1@PBV21@H@Z
   ??$GetSrcObject@VKFbxVertexCacheDeformer@fbxsdk_20102@@@KFbxObject@fbxsdk_20102@@QBEPAVKFbxVertexCacheDeformer@1@PBV21@H@Z
   ??$GetSrcObject@VKFbxVertexCacheDeformer@fbxsdk_20102@@@KFbxProperty@fbxsdk_20102@@QBEPAVKFbxVertexCacheDeformer@1@PBV21@H@Z
   ??$GetSrcObject@VKFbxVideo@fbxsdk_20102@@@KFbxObject@fbxsdk_20102@@QBEPAVKFbxVideo@1@PBV21@H@Z
   ??$GetSrcObject@VKFbxVideo@fbxsdk_20102@@@KFbxProperty@fbxsdk_20102@@QBEPAVKFbxVideo@1@PBV21@H@Z
   ??$GetSrcObjectCount@VKFbxBindingOperator@fbxsdk_20102@@@KFbxObject@fbxsdk_20102@@QBEHPBVKFbxBindingOperator@1@@Z
   ??$GetSrcObjectCount@VKFbxBindingOperator@fbxsdk_20102@@@KFbxProperty@fbxsdk_20102@@QBEHPBVKFbxBindingOperator@1@@Z
   ??$GetSrcObjectCount@VKFbxBindingTable@fbxsdk_20102@@@KFbxObject@fbxsdk_20102@@QBEHPBVKFbxBindingTable@1@@Z
   ??$GetSrcObjectCount@VKFbxBindingTable@fbxsdk_20102@@@KFbxProperty@fbxsdk_20102@@QBEHPBVKFbxBindingTable@1@@Z
   ??$GetSrcObjectCount@VKFbxCache@fbxsdk_20102@@@KFbxObject@fbxsdk_20102@@QBEHPBVKFbxCache@1@@Z
   ??$GetSrcObjectCount@VKFbxCache@fbxsdk_20102@@@KFbxProperty@fbxsdk_20102@@QBEHPBVKFbxCache@1@@Z
   ??$GetSrcObjectCount@VKFbxCluster@fbxsdk_20102@@@KFbxObject@fbxsdk_20102@@QBEHPBVKFbxCluster@1@@Z
   ??$GetSrcObjectCount@VKFbxCluster@fbxsdk_20102@@@KFbxProperty@fbxsdk_20102@@QBEHPBVKFbxCluster@1@@Z
   ??$GetSrcObjectCount@VKFbxCollection@fbxsdk_20102@@@KFbxObject@fbxsdk_20102@@QBEHPBVKFbxCollection@1@@Z
   ??$GetSrcObjectCount@VKFbxCollection@fbxsdk_20102@@@KFbxProperty@fbxsdk_20102@@QBEHPBVKFbxCollection@1@@Z
   ??$GetSrcObjectCount@VKFbxConstraint@fbxsdk_20102@@@KFbxObject@fbxsdk_20102@@QBEHPBVKFbxConstraint@1@@Z
   ??$GetSrcObjectCount@VKFbxConstraint@fbxsdk_20102@@@KFbxProperty@fbxsdk_20102@@QBEHPBVKFbxConstraint@1@@Z
   ??$GetSrcObjectCount@VKFbxContainer@fbxsdk_20102@@@KFbxObject@fbxsdk_20102@@QBEHPBVKFbxContainer@1@@Z
   ??$GetSrcObjectCount@VKFbxContainer@fbxsdk_20102@@@KFbxProperty@fbxsdk_20102@@QBEHPBVKFbxContainer@1@@Z
   ??$GetSrcObjectCount@VKFbxDeformer@fbxsdk_20102@@@KFbxObject@fbxsdk_20102@@QBEHPBVKFbxDeformer@1@@Z
   ??$GetSrcObjectCount@VKFbxDeformer@fbxsdk_20102@@@KFbxProperty@fbxsdk_20102@@QBEHPBVKFbxDeformer@1@@Z
   ??$GetSrcObjectCount@VKFbxDocument@fbxsdk_20102@@@KFbxObject@fbxsdk_20102@@QBEHPBVKFbxDocument@1@@Z
   ??$GetSrcObjectCount@VKFbxDocument@fbxsdk_20102@@@KFbxProperty@fbxsdk_20102@@QBEHPBVKFbxDocument@1@@Z
   ??$GetSrcObjectCount@VKFbxEnvironment@fbxsdk_20102@@@KFbxObject@fbxsdk_20102@@QBEHPBVKFbxEnvironment@1@@Z
   ??$GetSrcObjectCount@VKFbxEnvironment@fbxsdk_20102@@@KFbxProperty@fbxsdk_20102@@QBEHPBVKFbxEnvironment@1@@Z
   ??$GetSrcObjectCount@VKFbxExposureControl@fbxsdk_20102@@@KFbxObject@fbxsdk_20102@@QBEHPBVKFbxExposureControl@1@@Z
   ??$GetSrcObjectCount@VKFbxExposureControl@fbxsdk_20102@@@KFbxProperty@fbxsdk_20102@@QBEHPBVKFbxExposureControl@1@@Z
   ??$GetSrcObjectCount@VKFbxGenericNode@fbxsdk_20102@@@KFbxObject@fbxsdk_20102@@QBEHPBVKFbxGenericNode@1@@Z
   ??$GetSrcObjectCount@VKFbxGenericNode@fbxsdk_20102@@@KFbxProperty@fbxsdk_20102@@QBEHPBVKFbxGenericNode@1@@Z
   ??$GetSrcObjectCount@VKFbxGeometry@fbxsdk_20102@@@KFbxObject@fbxsdk_20102@@QBEHPBVKFbxGeometry@1@@Z
   ??$GetSrcObjectCount@VKFbxGeometry@fbxsdk_20102@@@KFbxProperty@fbxsdk_20102@@QBEHPBVKFbxGeometry@1@@Z
   ??$GetSrcObjectCount@VKFbxGeometryWeightedMap@fbxsdk_20102@@@KFbxObject@fbxsdk_20102@@QBEHPBVKFbxGeometryWeightedMap@1@@Z
   ??$GetSrcObjectCount@VKFbxGeometryWeightedMap@fbxsdk_20102@@@KFbxProperty@fbxsdk_20102@@QBEHPBVKFbxGeometryWeightedMap@1@@Z
   ??$GetSrcObjectCount@VKFbxImplementation@fbxsdk_20102@@@KFbxObject@fbxsdk_20102@@QBEHPBVKFbxImplementation@1@@Z
   ??$GetSrcObjectCount@VKFbxImplementation@fbxsdk_20102@@@KFbxProperty@fbxsdk_20102@@QBEHPBVKFbxImplementation@1@@Z
   ??$GetSrcObjectCount@VKFbxLayerContainer@fbxsdk_20102@@@KFbxObject@fbxsdk_20102@@QBEHPBVKFbxLayerContainer@1@@Z
   ??$GetSrcObjectCount@VKFbxLayerContainer@fbxsdk_20102@@@KFbxProperty@fbxsdk_20102@@QBEHPBVKFbxLayerContainer@1@@Z
   ??$GetSrcObjectCount@VKFbxLayeredTexture@fbxsdk_20102@@@KFbxObject@fbxsdk_20102@@QBEHPBVKFbxLayeredTexture@1@@Z
   ??$GetSrcObjectCount@VKFbxLayeredTexture@fbxsdk_20102@@@KFbxProperty@fbxsdk_20102@@QBEHPBVKFbxLayeredTexture@1@@Z
   ??$GetSrcObjectCount@VKFbxLibrary@fbxsdk_20102@@@KFbxObject@fbxsdk_20102@@QBEHPBVKFbxLibrary@1@@Z
   ??$GetSrcObjectCount@VKFbxLibrary@fbxsdk_20102@@@KFbxProperty@fbxsdk_20102@@QBEHPBVKFbxLibrary@1@@Z
   ??$GetSrcObjectCount@VKFbxMesh@fbxsdk_20102@@@KFbxObject@fbxsdk_20102@@QBEHPBVKFbxMesh@1@@Z
   ??$GetSrcObjectCount@VKFbxMesh@fbxsdk_20102@@@KFbxProperty@fbxsdk_20102@@QBEHPBVKFbxMesh@1@@Z
   ??$GetSrcObjectCount@VKFbxNode@fbxsdk_20102@@@KFbxObject@fbxsdk_20102@@QBEHPBVKFbxNode@1@@Z
   ??$GetSrcObjectCount@VKFbxNode@fbxsdk_20102@@@KFbxProperty@fbxsdk_20102@@QBEHPBVKFbxNode@1@@Z
   ??$GetSrcObjectCount@VKFbxNodeAttribute@fbxsdk_20102@@@KFbxObject@fbxsdk_20102@@QBEHPBVKFbxNodeAttribute@1@@Z
   ??$GetSrcObjectCount@VKFbxNodeAttribute@fbxsdk_20102@@@KFbxProperty@fbxsdk_20102@@QBEHPBVKFbxNodeAttribute@1@@Z
   ??$GetSrcObjectCount@VKFbxNurbsSurface@fbxsdk_20102@@@KFbxObject@fbxsdk_20102@@QBEHPBVKFbxNurbsSurface@1@@Z
   ??$GetSrcObjectCount@VKFbxNurbsSurface@fbxsdk_20102@@@KFbxProperty@fbxsdk_20102@@QBEHPBVKFbxNurbsSurface@1@@Z
   ??$GetSrcObjectCount@VKFbxObject@fbxsdk_20102@@@KFbxObject@fbxsdk_20102@@QBEHPBV01@@Z
   ??$GetSrcObjectCount@VKFbxObject@fbxsdk_20102@@@KFbxProperty@fbxsdk_20102@@QBEHPBVKFbxObject@1@@Z
   ??$GetSrcObjectCount@VKFbxPose@fbxsdk_20102@@@KFbxObject@fbxsdk_20102@@QBEHPBVKFbxPose@1@@Z
   ??$GetSrcObjectCount@VKFbxPose@fbxsdk_20102@@@KFbxProperty@fbxsdk_20102@@QBEHPBVKFbxPose@1@@Z
   ??$GetSrcObjectCount@VKFbxSkin@fbxsdk_20102@@@KFbxObject@fbxsdk_20102@@QBEHPBVKFbxSkin@1@@Z
   ??$GetSrcObjectCount@VKFbxSkin@fbxsdk_20102@@@KFbxProperty@fbxsdk_20102@@QBEHPBVKFbxSkin@1@@Z
   ??$GetSrcObjectCount@VKFbxSurfaceMaterial@fbxsdk_20102@@@KFbxObject@fbxsdk_20102@@QBEHPBVKFbxSurfaceMaterial@1@@Z
   ??$GetSrcObjectCount@VKFbxSurfaceMaterial@fbxsdk_20102@@@KFbxProperty@fbxsdk_20102@@QBEHPBVKFbxSurfaceMaterial@1@@Z
   ??$GetSrcObjectCount@VKFbxTakeNodeContainer@fbxsdk_20102@@@KFbxObject@fbxsdk_20102@@QBEHPBVKFbxTakeNodeContainer@1@@Z
   ??$GetSrcObjectCount@VKFbxTakeNodeContainer@fbxsdk_20102@@@KFbxProperty@fbxsdk_20102@@QBEHPBVKFbxTakeNodeContainer@1@@Z
   ??$GetSrcObjectCount@VKFbxTexture@fbxsdk_20102@@@KFbxObject@fbxsdk_20102@@QBEHPBVKFbxTexture@1@@Z
   ??$GetSrcObjectCount@VKFbxTexture@fbxsdk_20102@@@KFbxProperty@fbxsdk_20102@@QBEHPBVKFbxTexture@1@@Z
   ??$GetSrcObjectCount@VKFbxThumbnail@fbxsdk_20102@@@KFbxObject@fbxsdk_20102@@QBEHPBVKFbxThumbnail@1@@Z
   ??$GetSrcObjectCount@VKFbxThumbnail@fbxsdk_20102@@@KFbxProperty@fbxsdk_20102@@QBEHPBVKFbxThumbnail@1@@Z
   ??$GetSrcObjectCount@VKFbxUIDefinition@fbxsdk_20102@@@KFbxObject@fbxsdk_20102@@QBEHPBVKFbxUIDefinition@1@@Z
   ??$GetSrcObjectCount@VKFbxUIDefinition@fbxsdk_20102@@@KFbxProperty@fbxsdk_20102@@QBEHPBVKFbxUIDefinition@1@@Z
   ??$GetSrcObjectCount@VKFbxUIWidgetDefinition@fbxsdk_20102@@@KFbxObject@fbxsdk_20102@@QBEHPBVKFbxUIWidgetDefinition@1@@Z
   ??$GetSrcObjectCount@VKFbxUIWidgetDefinition@fbxsdk_20102@@@KFbxProperty@fbxsdk_20102@@QBEHPBVKFbxUIWidgetDefinition@1@@Z
   ??$GetSrcObjectCount@VKFbxVertexCacheDeformer@fbxsdk_20102@@@KFbxObject@fbxsdk_20102@@QBEHPBVKFbxVertexCacheDeformer@1@@Z
   ??$GetSrcObjectCount@VKFbxVertexCacheDeformer@fbxsdk_20102@@@KFbxProperty@fbxsdk_20102@@QBEHPBVKFbxVertexCacheDeformer@1@@Z
   ??$GetSrcObjectCount@VKFbxVideo@fbxsdk_20102@@@KFbxObject@fbxsdk_20102@@QBEHPBVKFbxVideo@1@@Z
   ??$GetSrcObjectCount@VKFbxVideo@fbxsdk_20102@@@KFbxProperty@fbxsdk_20102@@QBEHPBVKFbxVideo@1@@Z
   ??$GetValueIntegral@_J@KFbxFieldInstance@fbxsdk_20102@@AAE_JH_N@Z
   ??$GetValueIntegral@_K@KFbxFieldInstance@fbxsdk_20102@@AAE_KH_N@Z
   ??$GetValueIntegral@F@KFbxFieldInstance@fbxsdk_20102@@AAEFH_N@Z
   ??$GetValueIntegral@G@KFbxFieldInstance@fbxsdk_20102@@AAEGH_N@Z
   ??$GetValueIntegral@H@KFbxFieldInstance@fbxsdk_20102@@AAEHH_N@Z
   ??$GetValueIntegral@I@KFbxFieldInstance@fbxsdk_20102@@AAEIH_N@Z
   ??$InsertAt@H@KFbxLayerElementArray@fbxsdk_20102@@QAEHHABH@Z
   ??$Is@$$CBVKFbxConstraint@fbxsdk_20102@@@KFbxPlug@fbxsdk_20102@@QBE_NPBVKFbxConstraint@1@@Z
   ??$Is@$$CBVKFbxControlSetPlug@fbxsdk_20102@@@KFbxPlug@fbxsdk_20102@@QBE_NPBVKFbxControlSetPlug@1@@Z
   ??$Is@$$CBVKFbxDeformer@fbxsdk_20102@@@KFbxPlug@fbxsdk_20102@@QBE_NPBVKFbxDeformer@1@@Z
   ??$Is@$$CBVKFbxEnvironment@fbxsdk_20102@@@KFbxPlug@fbxsdk_20102@@QBE_NPBVKFbxEnvironment@1@@Z
   ??$Is@$$CBVKFbxGeometry@fbxsdk_20102@@@KFbxPlug@fbxsdk_20102@@QBE_NPBVKFbxGeometry@1@@Z
   ??$Is@$$CBVKFbxGeometryBase@fbxsdk_20102@@@KFbxPlug@fbxsdk_20102@@QBE_NPBVKFbxGeometryBase@1@@Z
   ??$Is@$$CBVKFbxGeometryWeightedMap@fbxsdk_20102@@@KFbxPlug@fbxsdk_20102@@QBE_NPBVKFbxGeometryWeightedMap@1@@Z
   ??$Is@$$CBVKFbxLayeredTexture@fbxsdk_20102@@@KFbxPlug@fbxsdk_20102@@QBE_NPBVKFbxLayeredTexture@1@@Z
   ??$Is@$$CBVKFbxLight@fbxsdk_20102@@@KFbxPlug@fbxsdk_20102@@QBE_NPBVKFbxLight@1@@Z
   ??$Is@$$CBVKFbxMesh@fbxsdk_20102@@@KFbxPlug@fbxsdk_20102@@QBE_NPBVKFbxMesh@1@@Z
   ??$Is@$$CBVKFbxNode@fbxsdk_20102@@@KFbxPlug@fbxsdk_20102@@QBE_NPBVKFbxNode@1@@Z
   ??$Is@$$CBVKFbxNodeAttribute@fbxsdk_20102@@@KFbxPlug@fbxsdk_20102@@QBE_NPBVKFbxNodeAttribute@1@@Z
   ??$Is@$$CBVKFbxNurb@fbxsdk_20102@@@KFbxPlug@fbxsdk_20102@@QBE_NPBVKFbxNurb@1@@Z
   ??$Is@$$CBVKFbxPatch@fbxsdk_20102@@@KFbxPlug@fbxsdk_20102@@QBE_NPBVKFbxPatch@1@@Z
   ??$Is@$$CBVKFbxSurfaceMaterial@fbxsdk_20102@@@KFbxPlug@fbxsdk_20102@@QBE_NPBVKFbxSurfaceMaterial@1@@Z
   ??$Is@$$CBVKFbxTexture@fbxsdk_20102@@@KFbxPlug@fbxsdk_20102@@QBE_NPBVKFbxTexture@1@@Z
   ??$IsCompressionRecommended@_J@KFbxFieldZlib@fbxsdk_20102@@QBE_NPB_JHHH@Z
   ??$IsCompressionRecommended@_K@KFbxFieldZlib@fbxsdk_20102@@QBE_NPB_KHHH@Z
   ??$IsCompressionRecommended@_N@KFbxFieldZlib@fbxsdk_20102@@QBE_NPB_NHHH@Z
   ??$IsCompressionRecommended@C@KFbxFieldZlib@fbxsdk_20102@@QBE_NPBCHHH@Z
   ??$IsCompressionRecommended@E@KFbxFieldZlib@fbxsdk_20102@@QBE_NPBEHHH@Z
   ??$IsCompressionRecommended@F@KFbxFieldZlib@fbxsdk_20102@@QBE_NPBFHHH@Z
   ??$IsCompressionRecommended@G@KFbxFieldZlib@fbxsdk_20102@@QBE_NPBGHHH@Z
   ??$IsCompressionRecommended@H@KFbxFieldZlib@fbxsdk_20102@@QBE_NPBHHHH@Z
   ??$IsCompressionRecommended@I@KFbxFieldZlib@fbxsdk_20102@@QBE_NPBIHHH@Z
   ??$IsCompressionRecommended@M@KFbxFieldZlib@fbxsdk_20102@@QBE_NPBMHHH@Z
   ??$IsCompressionRecommended@N@KFbxFieldZlib@fbxsdk_20102@@QBE_NPBNHHH@Z
   ??$iter_swap@PAPAVInitializer@awUtil@fbxsdk_20102@@PAPAV123@@std@@YAXPAPAVInitializer@awUtil@fbxsdk_20102@@0@Z
   ??$iter_swap@PAVCString@awString@fbxsdk_20102@@PAV123@@std@@YAXPAVCString@awString@fbxsdk_20102@@0@Z
   ??$KFbxCast@VKFbxBindingOperator@fbxsdk_20102@@@fbxsdk_20102@@YAPAVKFbxBindingOperator@0@PAVKFbxPlug@0@@Z
   ??$KFbxCast@VKFbxBindingTable@fbxsdk_20102@@@fbxsdk_20102@@YAPAVKFbxBindingTable@0@PAVKFbxPlug@0@@Z
   ??$KFbxCast@VKFbxBindingTableBase@fbxsdk_20102@@@fbxsdk_20102@@YAPAVKFbxBindingTableBase@0@PAVKFbxPlug@0@@Z
   ??$KFbxCast@VKFbxBoundary@fbxsdk_20102@@@fbxsdk_20102@@YAPAVKFbxBoundary@0@PAVKFbxPlug@0@@Z
   ??$KFbxCast@VKFbxCache@fbxsdk_20102@@@fbxsdk_20102@@YAPAVKFbxCache@0@PAVKFbxPlug@0@@Z
   ??$KFbxCast@VKFbxCamera@fbxsdk_20102@@@fbxsdk_20102@@YAPAVKFbxCamera@0@PAVKFbxPlug@0@@Z
   ??$KFbxCast@VKFbxCameraManipulator@fbxsdk_20102@@@fbxsdk_20102@@YAPAVKFbxCameraManipulator@0@PAVKFbxPlug@0@@Z
   ??$KFbxCast@VKFbxCameraStereo@fbxsdk_20102@@@fbxsdk_20102@@YAPAVKFbxCameraStereo@0@PAVKFbxPlug@0@@Z
   ??$KFbxCast@VKFbxCameraSwitcher@fbxsdk_20102@@@fbxsdk_20102@@YAPAVKFbxCameraSwitcher@0@PAVKFbxPlug@0@@Z
   ??$KFbxCast@VKFbxCharacter@fbxsdk_20102@@@fbxsdk_20102@@YAPAVKFbxCharacter@0@PAVKFbxPlug@0@@Z
   ??$KFbxCast@VKFbxCharacterPose@fbxsdk_20102@@@fbxsdk_20102@@YAPAVKFbxCharacterPose@0@PAVKFbxPlug@0@@Z
   ??$KFbxCast@VKFbxCluster@fbxsdk_20102@@@fbxsdk_20102@@YAPAVKFbxCluster@0@PAVKFbxPlug@0@@Z
   ??$KFbxCast@VKFbxCollection@fbxsdk_20102@@@fbxsdk_20102@@YAPAVKFbxCollection@0@PAVKFbxPlug@0@@Z
   ??$KFbxCast@VKFbxCollectionExclusive@fbxsdk_20102@@@fbxsdk_20102@@YAPAVKFbxCollectionExclusive@0@PAVKFbxPlug@0@@Z
   ??$KFbxCast@VKFbxConstraint@fbxsdk_20102@@@fbxsdk_20102@@YAPAVKFbxConstraint@0@PAVKFbxPlug@0@@Z
   ??$KFbxCast@VKFbxConstraintAim@fbxsdk_20102@@@fbxsdk_20102@@YAPAVKFbxConstraintAim@0@PAVKFbxPlug@0@@Z
   ??$KFbxCast@VKFbxConstraintCustom@fbxsdk_20102@@@fbxsdk_20102@@YAPAVKFbxConstraintCustom@0@PAVKFbxPlug@0@@Z
   ??$KFbxCast@VKFbxConstraintParent@fbxsdk_20102@@@fbxsdk_20102@@YAPAVKFbxConstraintParent@0@PAVKFbxPlug@0@@Z
   ??$KFbxCast@VKFbxConstraintPosition@fbxsdk_20102@@@fbxsdk_20102@@YAPAVKFbxConstraintPosition@0@PAVKFbxPlug@0@@Z
   ??$KFbxCast@VKFbxConstraintRotation@fbxsdk_20102@@@fbxsdk_20102@@YAPAVKFbxConstraintRotation@0@PAVKFbxPlug@0@@Z
   ??$KFbxCast@VKFbxConstraintScale@fbxsdk_20102@@@fbxsdk_20102@@YAPAVKFbxConstraintScale@0@PAVKFbxPlug@0@@Z
   ??$KFbxCast@VKFbxConstraintSingleChainIK@fbxsdk_20102@@@fbxsdk_20102@@YAPAVKFbxConstraintSingleChainIK@0@PAVKFbxPlug@0@@Z
   ??$KFbxCast@VKFbxContainer@fbxsdk_20102@@@fbxsdk_20102@@YAPAVKFbxContainer@0@PAVKFbxPlug@0@@Z
   ??$KFbxCast@VKFbxContainerTemplate@fbxsdk_20102@@@fbxsdk_20102@@YAPAVKFbxContainerTemplate@0@PAVKFbxPlug@0@@Z
   ??$KFbxCast@VKFbxControlSetPlug@fbxsdk_20102@@@fbxsdk_20102@@YAPAVKFbxControlSetPlug@0@PAVKFbxPlug@0@@Z
   ??$KFbxCast@VKFbxDeformer@fbxsdk_20102@@@fbxsdk_20102@@YAPAVKFbxDeformer@0@PAVKFbxPlug@0@@Z
   ??$KFbxCast@VKFbxDisplayLayer@fbxsdk_20102@@@fbxsdk_20102@@YAPAVKFbxDisplayLayer@0@PAVKFbxPlug@0@@Z
   ??$KFbxCast@VKFbxDocument@fbxsdk_20102@@@fbxsdk_20102@@YAPAVKFbxDocument@0@PAVKFbxPlug@0@@Z
   ??$KFbxCast@VKFbxDocumentInfo@fbxsdk_20102@@@fbxsdk_20102@@YAPAVKFbxDocumentInfo@0@PAVKFbxPlug@0@@Z
   ??$KFbxCast@VKFbxEnvironment@fbxsdk_20102@@@fbxsdk_20102@@YAPAVKFbxEnvironment@0@PAVKFbxPlug@0@@Z
   ??$KFbxCast@VKFbxExporter@fbxsdk_20102@@@fbxsdk_20102@@YAPAVKFbxExporter@0@PAVKFbxPlug@0@@Z
   ??$KFbxCast@VKFbxExposureControl@fbxsdk_20102@@@fbxsdk_20102@@YAPAVKFbxExposureControl@0@PAVKFbxPlug@0@@Z
   ??$KFbxCast@VKFbxGenericNode@fbxsdk_20102@@@fbxsdk_20102@@YAPAVKFbxGenericNode@0@PAVKFbxPlug@0@@Z
   ??$KFbxCast@VKFbxGeometry@fbxsdk_20102@@@fbxsdk_20102@@YAPAVKFbxGeometry@0@PAVKFbxPlug@0@@Z
   ??$KFbxCast@VKFbxGeometryBase@fbxsdk_20102@@@fbxsdk_20102@@YAPAVKFbxGeometryBase@0@PAVKFbxPlug@0@@Z
   ??$KFbxCast@VKFbxGeometryWeightedMap@fbxsdk_20102@@@fbxsdk_20102@@YAPAVKFbxGeometryWeightedMap@0@PAVKFbxPlug@0@@Z
   ??$KFbxCast@VKFbxGlobalSettings@fbxsdk_20102@@@fbxsdk_20102@@YAPAVKFbxGlobalSettings@0@PAVKFbxPlug@0@@Z
   ??$KFbxCast@VKFbxImage@fbxsdk_20102@@@fbxsdk_20102@@YAPAVKFbxImage@0@PAVKFbxPlug@0@@Z
   ??$KFbxCast@VKFbxImageConverter@fbxsdk_20102@@@fbxsdk_20102@@YAPAVKFbxImageConverter@0@PAVKFbxPlug@0@@Z
   ??$KFbxCast@VKFbxImageProcess@fbxsdk_20102@@@fbxsdk_20102@@YAPAVKFbxImageProcess@0@PAVKFbxPlug@0@@Z
   ??$KFbxCast@VKFbxImplementation@fbxsdk_20102@@@fbxsdk_20102@@YAPAVKFbxImplementation@0@PAVKFbxPlug@0@@Z
   ??$KFbxCast@VKFbxImplementation@fbxsdk_20102@@@fbxsdk_20102@@YAPBVKFbxImplementation@0@PBVKFbxPlug@0@@Z
   ??$KFbxCast@VKFbxImporter@fbxsdk_20102@@@fbxsdk_20102@@YAPAVKFbxImporter@0@PAVKFbxPlug@0@@Z
   ??$KFbxCast@VKFbxIO@fbxsdk_20102@@@fbxsdk_20102@@YAPAVKFbxIO@0@PAVKFbxPlug@0@@Z
   ??$KFbxCast@VKFbxIOSettings@fbxsdk_20102@@@fbxsdk_20102@@YAPAVKFbxIOSettings@0@PAVKFbxPlug@0@@Z
   ??$KFbxCast@VKFbxKFCurveFilterConstantKeyReducer@fbxsdk_20102@@@fbxsdk_20102@@YAPAVKFbxKFCurveFilterConstantKeyReducer@0@PAVKFbxPlug@0@@Z
   ??$KFbxCast@VKFbxKFCurveFilterMatrixConverter@fbxsdk_20102@@@fbxsdk_20102@@YAPAVKFbxKFCurveFilterMatrixConverter@0@PAVKFbxPlug@0@@Z
   ??$KFbxCast@VKFbxKFCurveFilterResample@fbxsdk_20102@@@fbxsdk_20102@@YAPAVKFbxKFCurveFilterResample@0@PAVKFbxPlug@0@@Z
   ??$KFbxCast@VKFbxKFCurveFilters@fbxsdk_20102@@@fbxsdk_20102@@YAPAVKFbxKFCurveFilters@0@PAVKFbxPlug@0@@Z
   ??$KFbxCast@VKFbxKFCurveFilterTSS@fbxsdk_20102@@@fbxsdk_20102@@YAPAVKFbxKFCurveFilterTSS@0@PAVKFbxPlug@0@@Z
   ??$KFbxCast@VKFbxKFCurveFilterUnroll@fbxsdk_20102@@@fbxsdk_20102@@YAPAVKFbxKFCurveFilterUnroll@0@PAVKFbxPlug@0@@Z
   ??$KFbxCast@VKFbxLayerContainer@fbxsdk_20102@@@fbxsdk_20102@@YAPAVKFbxLayerContainer@0@PAVKFbxPlug@0@@Z
   ??$KFbxCast@VKFbxLayeredTexture@fbxsdk_20102@@@fbxsdk_20102@@YAPAVKFbxLayeredTexture@0@PAVKFbxPlug@0@@Z
   ??$KFbxCast@VKFbxLibrary@fbxsdk_20102@@@fbxsdk_20102@@YAPAVKFbxLibrary@0@PAVKFbxPlug@0@@Z
   ??$KFbxCast@VKFbxLight@fbxsdk_20102@@@fbxsdk_20102@@YAPAVKFbxLight@0@PAVKFbxPlug@0@@Z
   ??$KFbxCast@VKFbxLodGroup@fbxsdk_20102@@@fbxsdk_20102@@YAPAVKFbxLodGroup@0@PAVKFbxPlug@0@@Z
   ??$KFbxCast@VKFbxMarker@fbxsdk_20102@@@fbxsdk_20102@@YAPAVKFbxMarker@0@PAVKFbxPlug@0@@Z
   ??$KFbxCast@VKFbxMesh@fbxsdk_20102@@@fbxsdk_20102@@YAPAVKFbxMesh@0@PAVKFbxPlug@0@@Z
   ??$KFbxCast@VKFbxNode@fbxsdk_20102@@@fbxsdk_20102@@YAPAVKFbxNode@0@PAVKFbxPlug@0@@Z
   ??$KFbxCast@VKFbxNodeAttribute@fbxsdk_20102@@@fbxsdk_20102@@YAPAVKFbxNodeAttribute@0@PAVKFbxPlug@0@@Z
   ??$KFbxCast@VKFbxNull@fbxsdk_20102@@@fbxsdk_20102@@YAPAVKFbxNull@0@PAVKFbxPlug@0@@Z
   ??$KFbxCast@VKFbxNurb@fbxsdk_20102@@@fbxsdk_20102@@YAPAVKFbxNurb@0@PAVKFbxPlug@0@@Z
   ??$KFbxCast@VKFbxNurbsCurve@fbxsdk_20102@@@fbxsdk_20102@@YAPAVKFbxNurbsCurve@0@PAVKFbxPlug@0@@Z
   ??$KFbxCast@VKFbxNurbsSurface@fbxsdk_20102@@@fbxsdk_20102@@YAPAVKFbxNurbsSurface@0@PAVKFbxPlug@0@@Z
   ??$KFbxCast@VKFbxObject@fbxsdk_20102@@@fbxsdk_20102@@YAPAVKFbxObject@0@PAVKFbxPlug@0@@Z
   ??$KFbxCast@VKFbxObjectMetaData@fbxsdk_20102@@@fbxsdk_20102@@YAPAVKFbxObjectMetaData@0@PAVKFbxPlug@0@@Z
   ??$KFbxCast@VKFbxObjectThumbnailGenerator@fbxsdk_20102@@@fbxsdk_20102@@YAPAVKFbxObjectThumbnailGenerator@0@PAVKFbxPlug@0@@Z
   ??$KFbxCast@VKFbxOpticalReference@fbxsdk_20102@@@fbxsdk_20102@@YAPAVKFbxOpticalReference@0@PAVKFbxPlug@0@@Z
   ??$KFbxCast@VKFbxPatch@fbxsdk_20102@@@fbxsdk_20102@@YAPAVKFbxPatch@0@PAVKFbxPlug@0@@Z
   ??$KFbxCast@VKFbxPose@fbxsdk_20102@@@fbxsdk_20102@@YAPAVKFbxPose@0@PAVKFbxPlug@0@@Z
   ??$KFbxCast@VKFbxProceduralGeometry@fbxsdk_20102@@@fbxsdk_20102@@YAPAVKFbxProceduralGeometry@0@PAVKFbxPlug@0@@Z
   ??$KFbxCast@VKFbxProcessor@fbxsdk_20102@@@fbxsdk_20102@@YAPAVKFbxProcessor@0@PAVKFbxPlug@0@@Z
   ??$KFbxCast@VKFbxProcessorShaderDependency@fbxsdk_20102@@@fbxsdk_20102@@YAPAVKFbxProcessorShaderDependency@0@PAVKFbxPlug@0@@Z
   ??$KFbxCast@VKFbxProcessorXRefCopy@fbxsdk_20102@@@fbxsdk_20102@@YAPAVKFbxProcessorXRefCopy@0@PAVKFbxPlug@0@@Z
   ??$KFbxCast@VKFbxProcessorXRefCopyUserLibrary@fbxsdk_20102@@@fbxsdk_20102@@YAPAVKFbxProcessorXRefCopyUserLibrary@0@PAVKFbxPlug@0@@Z
   ??$KFbxCast@VKFbxRawImage@fbxsdk_20102@@@fbxsdk_20102@@YAPAVKFbxRawImage@0@PAVKFbxPlug@0@@Z
   ??$KFbxCast@VKFbxScene@fbxsdk_20102@@@fbxsdk_20102@@YAPAVKFbxScene@0@PAVKFbxPlug@0@@Z
   ??$KFbxCast@VKFbxSelectionNode@fbxsdk_20102@@@fbxsdk_20102@@YAPAVKFbxSelectionNode@0@PAVKFbxPlug@0@@Z
   ??$KFbxCast@VKFbxSelectionSet@fbxsdk_20102@@@fbxsdk_20102@@YAPAVKFbxSelectionSet@0@PAVKFbxPlug@0@@Z
   ??$KFbxCast@VKFbxShadingNode@fbxsdk_20102@@@fbxsdk_20102@@YAPAVKFbxShadingNode@0@PAVKFbxPlug@0@@Z
   ??$KFbxCast@VKFbxShadingObject@fbxsdk_20102@@@fbxsdk_20102@@YAPAVKFbxShadingObject@0@PAVKFbxPlug@0@@Z
   ??$KFbxCast@VKFbxShape@fbxsdk_20102@@@fbxsdk_20102@@YAPAVKFbxShape@0@PAVKFbxPlug@0@@Z
   ??$KFbxCast@VKFbxSkeleton@fbxsdk_20102@@@fbxsdk_20102@@YAPAVKFbxSkeleton@0@PAVKFbxPlug@0@@Z
   ??$KFbxCast@VKFbxSkin@fbxsdk_20102@@@fbxsdk_20102@@YAPAVKFbxSkin@0@PAVKFbxPlug@0@@Z
   ??$KFbxCast@VKFbxStreamOptions@fbxsdk_20102@@@fbxsdk_20102@@YAPAVKFbxStreamOptions@0@PAVKFbxPlug@0@@Z
   ??$KFbxCast@VKFbxStreamOptions3dsReader@fbxsdk_20102@@@fbxsdk_20102@@YAPAVKFbxStreamOptions3dsReader@0@PAVKFbxPlug@0@@Z
   ??$KFbxCast@VKFbxStreamOptions3dsWriter@fbxsdk_20102@@@fbxsdk_20102@@YAPAVKFbxStreamOptions3dsWriter@0@PAVKFbxPlug@0@@Z
   ??$KFbxCast@VKFbxStreamOptionsColladaReader@fbxsdk_20102@@@fbxsdk_20102@@YAPAVKFbxStreamOptionsColladaReader@0@PAVKFbxPlug@0@@Z
   ??$KFbxCast@VKFbxStreamOptionsColladaWriter@fbxsdk_20102@@@fbxsdk_20102@@YAPAVKFbxStreamOptionsColladaWriter@0@PAVKFbxPlug@0@@Z
   ??$KFbxCast@VKFbxStreamOptionsDxfReader@fbxsdk_20102@@@fbxsdk_20102@@YAPAVKFbxStreamOptionsDxfReader@0@PAVKFbxPlug@0@@Z
   ??$KFbxCast@VKFbxStreamOptionsDxfWriter@fbxsdk_20102@@@fbxsdk_20102@@YAPAVKFbxStreamOptionsDxfWriter@0@PAVKFbxPlug@0@@Z
   ??$KFbxCast@VKFbxStreamOptionsFbxReader@fbxsdk_20102@@@fbxsdk_20102@@YAPAVKFbxStreamOptionsFbxReader@0@PAVKFbxPlug@0@@Z
   ??$KFbxCast@VKFbxStreamOptionsFbxWriter@fbxsdk_20102@@@fbxsdk_20102@@YAPAVKFbxStreamOptionsFbxWriter@0@PAVKFbxPlug@0@@Z
   ??$KFbxCast@VKFbxStreamOptionsMotionReader@fbxsdk_20102@@@fbxsdk_20102@@YAPAVKFbxStreamOptionsMotionReader@0@PAVKFbxPlug@0@@Z
   ??$KFbxCast@VKFbxStreamOptionsMotionWriter@fbxsdk_20102@@@fbxsdk_20102@@YAPAVKFbxStreamOptionsMotionWriter@0@PAVKFbxPlug@0@@Z
   ??$KFbxCast@VKFbxStreamOptionsObjReader@fbxsdk_20102@@@fbxsdk_20102@@YAPAVKFbxStreamOptionsObjReader@0@PAVKFbxPlug@0@@Z
   ??$KFbxCast@VKFbxStreamOptionsObjWriter@fbxsdk_20102@@@fbxsdk_20102@@YAPAVKFbxStreamOptionsObjWriter@0@PAVKFbxPlug@0@@Z
   ??$KFbxCast@VKFbxSubDeformer@fbxsdk_20102@@@fbxsdk_20102@@YAPAVKFbxSubDeformer@0@PAVKFbxPlug@0@@Z
   ??$KFbxCast@VKFbxSubdiv@fbxsdk_20102@@@fbxsdk_20102@@YAPAVKFbxSubdiv@0@PAVKFbxPlug@0@@Z
   ??$KFbxCast@VKFbxSurfaceLambert@fbxsdk_20102@@@fbxsdk_20102@@YAPAVKFbxSurfaceLambert@0@PAVKFbxPlug@0@@Z
   ??$KFbxCast@VKFbxSurfaceMaterial@fbxsdk_20102@@@fbxsdk_20102@@YAPAVKFbxSurfaceMaterial@0@PAVKFbxPlug@0@@Z
   ??$KFbxCast@VKFbxSurfacePhong@fbxsdk_20102@@@fbxsdk_20102@@YAPAVKFbxSurfacePhong@0@PAVKFbxPlug@0@@Z
   ??$KFbxCast@VKFbxSwatchScene@fbxsdk_20102@@@fbxsdk_20102@@YAPAVKFbxSwatchScene@0@PAVKFbxPlug@0@@Z
   ??$KFbxCast@VKFbxTakeNodeContainer@fbxsdk_20102@@@fbxsdk_20102@@YAPAVKFbxTakeNodeContainer@0@PAVKFbxPlug@0@@Z
   ??$KFbxCast@VKFbxTexture@fbxsdk_20102@@@fbxsdk_20102@@YAPAVKFbxTexture@0@PAVKFbxPlug@0@@Z
   ??$KFbxCast@VKFbxThumbnail@fbxsdk_20102@@@fbxsdk_20102@@YAPAVKFbxThumbnail@0@PAVKFbxPlug@0@@Z
   ??$KFbxCast@VKFbxTiledImage@fbxsdk_20102@@@fbxsdk_20102@@YAPAVKFbxTiledImage@0@PAVKFbxPlug@0@@Z
   ??$KFbxCast@VKFbxTrimNurbsSurface@fbxsdk_20102@@@fbxsdk_20102@@YAPAVKFbxTrimNurbsSurface@0@PAVKFbxPlug@0@@Z
   ??$KFbxCast@VKFbxUIDefinition@fbxsdk_20102@@@fbxsdk_20102@@YAPAVKFbxUIDefinition@0@PAVKFbxPlug@0@@Z
   ??$KFbxCast@VKFbxUIImporter@fbxsdk_20102@@@fbxsdk_20102@@YAPAVKFbxUIImporter@0@PAVKFbxPlug@0@@Z
   ??$KFbxCast@VKFbxUIWidgetDefinition@fbxsdk_20102@@@fbxsdk_20102@@YAPAVKFbxUIWidgetDefinition@0@PAVKFbxPlug@0@@Z
   ??$KFbxCast@VKFbxVertexCacheDeformer@fbxsdk_20102@@@fbxsdk_20102@@YAPAVKFbxVertexCacheDeformer@0@PAVKFbxPlug@0@@Z
   ??$KFbxCast@VKFbxVideo@fbxsdk_20102@@@fbxsdk_20102@@YAPAVKFbxVideo@0@PAVKFbxPlug@0@@Z
   ??$KFbxCharacterAddEnumValue@V?$KFbxTypedProperty@W4kCharacterAutoUser@fbxsdk_20102@@@fbxsdk_20102@@@fbxsdk_20102@@YAXAAV?$KFbxTypedProperty@W4kCharacterAutoUser@fbxsdk_20102@@@0@@Z
   ??$KFbxCharacterAddEnumValue@V?$KFbxTypedProperty@W4kCharacterContactBehaviour@fbxsdk_20102@@@fbxsdk_20102@@@fbxsdk_20102@@YAXAAV?$KFbxTypedProperty@W4kCharacterContactBehaviour@fbxsdk_20102@@@0@@Z
   ??$KFbxCharacterAddEnumValue@V?$KFbxTypedProperty@W4kCharacterFingerContactMode@fbxsdk_20102@@@fbxsdk_20102@@@fbxsdk_20102@@YAXAAV?$KFbxTypedProperty@W4kCharacterFingerContactMode@fbxsdk_20102@@@0@@Z
   ??$KFbxCharacterAddEnumValue@V?$KFbxTypedProperty@W4kCharacterFloorPivot@fbxsdk_20102@@@fbxsdk_20102@@@fbxsdk_20102@@YAXAAV?$KFbxTypedProperty@W4kCharacterFloorPivot@fbxsdk_20102@@@0@@Z
   ??$KFbxCharacterAddEnumValue@V?$KFbxTypedProperty@W4kCharacterFootContactType@fbxsdk_20102@@@fbxsdk_20102@@@fbxsdk_20102@@YAXAAV?$KFbxTypedProperty@W4kCharacterFootContactType@fbxsdk_20102@@@0@@Z
   ??$KFbxCharacterAddEnumValue@V?$KFbxTypedProperty@W4kCharacterHandContactType@fbxsdk_20102@@@fbxsdk_20102@@@fbxsdk_20102@@YAXAAV?$KFbxTypedProperty@W4kCharacterHandContactType@fbxsdk_20102@@@0@@Z
   ??$KFbxCharacterAddEnumValue@V?$KFbxTypedProperty@W4kCharacterHipsTranslationMode@fbxsdk_20102@@@fbxsdk_20102@@@fbxsdk_20102@@YAXAAV?$KFbxTypedProperty@W4kCharacterHipsTranslationMode@fbxsdk_20102@@@0@@Z
   ??$KFbxCharacterAddEnumValue@V?$KFbxTypedProperty@W4kCharacterOffAutoUser@fbxsdk_20102@@@fbxsdk_20102@@@fbxsdk_20102@@YAXAAV?$KFbxTypedProperty@W4kCharacterOffAutoUser@fbxsdk_20102@@@0@@Z
   ??$KFbxCharacterAddEnumValue@V?$KFbxTypedProperty@W4kCharacterPosture@fbxsdk_20102@@@fbxsdk_20102@@@fbxsdk_20102@@YAXAAV?$KFbxTypedProperty@W4kCharacterPosture@fbxsdk_20102@@@0@@Z
   ??$KFbxCharacterAddEnumValue@V?$KFbxTypedProperty@W4kCharacterRollExtractionMode@fbxsdk_20102@@@fbxsdk_20102@@@fbxsdk_20102@@YAXAAV?$KFbxTypedProperty@W4kCharacterRollExtractionMode@fbxsdk_20102@@@0@@Z
   ??$KFbxDisconnectAllSrc@VKFbxNurbsSurface@fbxsdk_20102@@@fbxsdk_20102@@YA_NPAVKFbxObject@0@PAVKFbxNurbsSurface@0@@Z
   ??$KFbxFindSrc@VKFbxConstraint@fbxsdk_20102@@@fbxsdk_20102@@YAPAVKFbxConstraint@0@PBVKFbxObject@0@PBDH@Z
   ??$KFbxFindSrc@VKFbxGenericNode@fbxsdk_20102@@@fbxsdk_20102@@YAPAVKFbxGenericNode@0@PBVKFbxObject@0@PBDH@Z
   ??$KFbxFindSrc@VKFbxNode@fbxsdk_20102@@@fbxsdk_20102@@YAPAVKFbxNode@0@PAVKFbxSdkManager@0@PBD@Z
   ??$KFbxFindSrc@VKFbxSurfaceMaterial@fbxsdk_20102@@@fbxsdk_20102@@YAPAVKFbxSurfaceMaterial@0@PAVKFbxSdkManager@0@PBD@Z
   ??$KFbxFindSrc@VKFbxSurfaceMaterial@fbxsdk_20102@@@fbxsdk_20102@@YAPAVKFbxSurfaceMaterial@0@PBVKFbxObject@0@PBDH@Z
   ??$KFbxFindSrc@VKFbxTexture@fbxsdk_20102@@@fbxsdk_20102@@YAPAVKFbxTexture@0@PAVKFbxSdkManager@0@PBD@Z
   ??$KFbxFindSrc@VKFbxTexture@fbxsdk_20102@@@fbxsdk_20102@@YAPAVKFbxTexture@0@PBVKFbxObject@0@PBDH@Z
   ??$KFbxGet@_N@fbxsdk_20102@@YA_NABVKFbxProperty@0@@Z
   ??$KFbxGet@_N@fbxsdk_20102@@YA_NABVKFbxProperty@0@AA_N@Z
   ??$KFbxGet@H@fbxsdk_20102@@YA_NABVKFbxProperty@0@AAH@Z
   ??$KFbxGet@H@fbxsdk_20102@@YAHABVKFbxProperty@0@@Z
   ??$KFbxGet@M@fbxsdk_20102@@YAMABVKFbxProperty@0@@Z
   ??$KFbxGet@N@fbxsdk_20102@@YA_NABVKFbxProperty@0@AAN@Z
   ??$KFbxGet@N@fbxsdk_20102@@YANABVKFbxProperty@0@@Z
   ??$KFbxGet@V?$fbxVectorTemplate3@N@fbxsdk_20102@@@fbxsdk_20102@@YA?AV?$fbxVectorTemplate3@N@0@ABVKFbxProperty@0@@Z
   ??$KFbxGet@V?$fbxVectorTemplate3@N@fbxsdk_20102@@@fbxsdk_20102@@YA_NABVKFbxProperty@0@AAV?$fbxVectorTemplate3@N@0@@Z
   ??$KFbxGet@V?$fbxVectorTemplate4@N@fbxsdk_20102@@@fbxsdk_20102@@YA?AV?$fbxVectorTemplate4@N@0@ABVKFbxProperty@0@@Z
   ??$KFbxGet@V?$fbxVectorTemplate4@N@fbxsdk_20102@@@fbxsdk_20102@@YA_NABVKFbxProperty@0@AAV?$fbxVectorTemplate4@N@0@@Z
   ??$KFbxGet@V?$fbxVectorTemplate4@V?$fbxVectorTemplate4@N@fbxsdk_20102@@@fbxsdk_20102@@@fbxsdk_20102@@YA?AV?$fbxVectorTemplate4@V?$fbxVectorTemplate4@N@fbxsdk_20102@@@0@ABVKFbxProperty@0@@Z
   ??$KFbxGet@VfbxBlob@fbxsdk_20102@@@fbxsdk_20102@@YA?AVfbxBlob@0@ABVKFbxProperty@0@@Z
   ??$KFbxGet@VfbxDateTime@fbxsdk_20102@@@fbxsdk_20102@@YA_NABVKFbxProperty@0@AAVfbxDateTime@0@@Z
   ??$KFbxGet@VfbxDistance@fbxsdk_20102@@@fbxsdk_20102@@YA?AVfbxDistance@0@ABVKFbxProperty@0@@Z
   ??$KFbxGet@VKString@fbxsdk_20102@@@fbxsdk_20102@@YA?AVKString@0@ABVKFbxProperty@0@@Z
   ??$KFbxGet@VKString@fbxsdk_20102@@@fbxsdk_20102@@YA_NABVKFbxProperty@0@AAVKString@0@@Z
   ??$KFbxGet@VKTime@fbxsdk_20102@@@fbxsdk_20102@@YA?AVKTime@0@ABVKFbxProperty@0@@Z
   ??$KFbxGet@VKTime@fbxsdk_20102@@@fbxsdk_20102@@YA_NABVKFbxProperty@0@AAVKTime@0@@Z
   ??$KFbxGet@W4ComponentEncoding@KFbxImagePixelFormat@fbxsdk_20102@@@fbxsdk_20102@@YA_NABVKFbxProperty@0@AAW4ComponentEncoding@KFbxImagePixelFormat@0@@Z
   ??$KFbxGet@W4EAccessMode@KFbxVideo@fbxsdk_20102@@@fbxsdk_20102@@YA_NABVKFbxProperty@0@AAW4EAccessMode@KFbxVideo@0@@Z
   ??$KFbxGet@W4EBlendMode@KFbxTexture@fbxsdk_20102@@@fbxsdk_20102@@YA_NABVKFbxProperty@0@AAW4EBlendMode@KFbxTexture@0@@Z
   ??$KFbxGet@W4ECameraAntialiasingMethod@KFbxCamera@fbxsdk_20102@@@fbxsdk_20102@@YA_NABVKFbxProperty@0@AAW4ECameraAntialiasingMethod@KFbxCamera@0@@Z
   ??$KFbxGet@W4ECameraApertureFormat@KFbxCamera@fbxsdk_20102@@@fbxsdk_20102@@YA_NABVKFbxProperty@0@AAW4ECameraApertureFormat@KFbxCamera@0@@Z
   ??$KFbxGet@W4ECameraApertureMode@KFbxCamera@fbxsdk_20102@@@fbxsdk_20102@@YA_NABVKFbxProperty@0@AAW4ECameraApertureMode@KFbxCamera@0@@Z
   ??$KFbxGet@W4ECameraAspectRatioMode@KFbxCamera@fbxsdk_20102@@@fbxsdk_20102@@YA_NABVKFbxProperty@0@AAW4ECameraAspectRatioMode@KFbxCamera@0@@Z
   ??$KFbxGet@W4ECameraFocusDistanceSource@KFbxCamera@fbxsdk_20102@@@fbxsdk_20102@@YA_NABVKFbxProperty@0@AAW4ECameraFocusDistanceSource@KFbxCamera@0@@Z
   ??$KFbxGet@W4ECameraFormat@KFbxCamera@fbxsdk_20102@@@fbxsdk_20102@@YA_NABVKFbxProperty@0@AAW4ECameraFormat@KFbxCamera@0@@Z
   ??$KFbxGet@W4ECameraFrontBackPlaneDisplayMode@KFbxCamera@fbxsdk_20102@@@fbxsdk_20102@@YA_NABVKFbxProperty@0@AAW4ECameraFrontBackPlaneDisplayMode@KFbxCamera@0@@Z
   ??$KFbxGet@W4ECameraFrontBackPlaneDistanceMode@KFbxCamera@fbxsdk_20102@@@fbxsdk_20102@@YA_NABVKFbxProperty@0@AAW4ECameraFrontBackPlaneDistanceMode@KFbxCamera@0@@Z
   ??$KFbxGet@W4ECameraProjectionType@KFbxCamera@fbxsdk_20102@@@fbxsdk_20102@@YA_NABVKFbxProperty@0@AAW4ECameraProjectionType@KFbxCamera@0@@Z
   ??$KFbxGet@W4ECameraSafeAreaStyle@KFbxCamera@fbxsdk_20102@@@fbxsdk_20102@@YA_NABVKFbxProperty@0@AAW4ECameraSafeAreaStyle@KFbxCamera@0@@Z
   ??$KFbxGet@W4ECameraSamplingType@KFbxCamera@fbxsdk_20102@@@fbxsdk_20102@@YA_NABVKFbxProperty@0@AAW4ECameraSamplingType@KFbxCamera@0@@Z
   ??$KFbxGet@W4ECameraStereo@KFbxCameraStereo@fbxsdk_20102@@@fbxsdk_20102@@YA_NABVKFbxProperty@0@AAW4ECameraStereo@KFbxCameraStereo@0@@Z
   ??$KFbxGet@W4EDecayType@KFbxLight@fbxsdk_20102@@@fbxsdk_20102@@YA_NABVKFbxProperty@0@AAW4EDecayType@KFbxLight@0@@Z
   ??$KFbxGet@W4EDisplayLevel@KFbxLodGroup@fbxsdk_20102@@@fbxsdk_20102@@YA?AW4EDisplayLevel@KFbxLodGroup@0@ABVKFbxProperty@0@@Z
   ??$KFbxGet@W4EInterlaceMode@KFbxVideo@fbxsdk_20102@@@fbxsdk_20102@@YA_NABVKFbxProperty@0@AAW4EInterlaceMode@KFbxVideo@0@@Z
   ??$KFbxGet@W4ELightType@KFbxLight@fbxsdk_20102@@@fbxsdk_20102@@YA_NABVKFbxProperty@0@AAW4ELightType@KFbxLight@0@@Z
   ??$KFbxGet@W4ELook@KFbxMarker@fbxsdk_20102@@@fbxsdk_20102@@YA_NABVKFbxProperty@0@AAW4ELook@KFbxMarker@0@@Z
   ??$KFbxGet@W4ELook@KFbxNull@fbxsdk_20102@@@fbxsdk_20102@@YA_NABVKFbxProperty@0@AAW4ELook@KFbxNull@0@@Z
   ??$KFbxGet@W4ERotationOrder@fbxsdk_20102@@@fbxsdk_20102@@YA?AW4ERotationOrder@0@ABVKFbxProperty@0@@Z
   ??$KFbxGet@W4ERotationOrder@fbxsdk_20102@@@fbxsdk_20102@@YA_NABVKFbxProperty@0@AAW4ERotationOrder@0@@Z
   ??$KFbxGet@W4ETextureUse6@KFbxTexture@fbxsdk_20102@@@fbxsdk_20102@@YA_NABVKFbxProperty@0@AAW4ETextureUse6@KFbxTexture@0@@Z
   ??$KFbxGet@W4ETransformInheritType@fbxsdk_20102@@@fbxsdk_20102@@YA_NABVKFbxProperty@0@AAW4ETransformInheritType@0@@Z
   ??$KFbxGet@W4EType@KFbxControlSet@fbxsdk_20102@@@fbxsdk_20102@@YA_NABVKFbxProperty@0@AAW4EType@KFbxControlSet@0@@Z
   ??$KFbxGet@W4EWrapMode@KFbxTexture@fbxsdk_20102@@@fbxsdk_20102@@YA_NABVKFbxProperty@0@AAW4EWrapMode@KFbxTexture@0@@Z
   ??$KFbxGet@W4PixelEncoding@KFbxImagePixelFormat@fbxsdk_20102@@@fbxsdk_20102@@YA_NABVKFbxProperty@0@AAW4PixelEncoding@KFbxImagePixelFormat@0@@Z
   ??$KFbxGetDirectArray@_N@fbxsdk_20102@@YAAAV?$KFbxLayerElementArrayTemplate@_N@0@PAVKFbxLayerElementUserData@0@HPA_N@Z
   ??$KFbxGetDirectArray@_N@fbxsdk_20102@@YAABV?$KFbxLayerElementArrayTemplate@_N@0@PBVKFbxLayerElementUserData@0@HPA_N@Z
   ??$KFbxGetDirectArray@H@fbxsdk_20102@@YAAAV?$KFbxLayerElementArrayTemplate@H@0@PAVKFbxLayerElementUserData@0@HPA_N@Z
   ??$KFbxGetDirectArray@H@fbxsdk_20102@@YAABV?$KFbxLayerElementArrayTemplate@H@0@PBVKFbxLayerElementUserData@0@HPA_N@Z
   ??$KFbxGetDirectArray@M@fbxsdk_20102@@YAAAV?$KFbxLayerElementArrayTemplate@M@0@PAVKFbxLayerElementUserData@0@HPA_N@Z
   ??$KFbxGetDirectArray@M@fbxsdk_20102@@YAABV?$KFbxLayerElementArrayTemplate@M@0@PBVKFbxLayerElementUserData@0@HPA_N@Z
   ??$KFbxGetDirectArray@N@fbxsdk_20102@@YAAAV?$KFbxLayerElementArrayTemplate@N@0@PAVKFbxLayerElementUserData@0@HPA_N@Z
   ??$KFbxGetDirectArray@N@fbxsdk_20102@@YAABV?$KFbxLayerElementArrayTemplate@N@0@PBVKFbxLayerElementUserData@0@HPA_N@Z
   ??$KFbxGetDst@VKFbxDocument@fbxsdk_20102@@@fbxsdk_20102@@YAPAVKFbxDocument@0@PBVKFbxObject@0@H@Z
   ??$KFbxGetDst@VKFbxGeometry@fbxsdk_20102@@@fbxsdk_20102@@YAPAVKFbxGeometry@0@PBVKFbxObject@0@H@Z
   ??$KFbxGetDst@VKFbxGeometryWeightedMap@fbxsdk_20102@@@fbxsdk_20102@@YAPAVKFbxGeometryWeightedMap@0@PBVKFbxObject@0@H@Z
   ??$KFbxGetDst@VKFbxNode@fbxsdk_20102@@@fbxsdk_20102@@YAPAVKFbxNode@0@PBVKFbxObject@0@H@Z
   ??$KFbxGetDst@VKFbxScene@fbxsdk_20102@@@fbxsdk_20102@@YAPAVKFbxScene@0@PBVKFbxObject@0@H@Z
   ??$KFbxGetDst@VKFbxTexture@fbxsdk_20102@@@fbxsdk_20102@@YAPAVKFbxTexture@0@PBVKFbxObject@0@H@Z
   ??$KFbxGetDstCount@VKFbxDocument@fbxsdk_20102@@@fbxsdk_20102@@YAHPBVKFbxObject@0@PBVKFbxDocument@0@@Z
   ??$KFbxGetDstCount@VKFbxGeometryWeightedMap@fbxsdk_20102@@@fbxsdk_20102@@YAHPBVKFbxObject@0@PBVKFbxGeometryWeightedMap@0@@Z
   ??$KFbxGetSrc@VKFbxBoundary@fbxsdk_20102@@@fbxsdk_20102@@YAPAVKFbxBoundary@0@PBVKFbxObject@0@H@Z
   ??$KFbxGetSrc@VKFbxCamera@fbxsdk_20102@@@fbxsdk_20102@@YAPAVKFbxCamera@0@PBVKFbxObject@0@H@Z
   ??$KFbxGetSrc@VKFbxCharacter@fbxsdk_20102@@@fbxsdk_20102@@YAPAVKFbxCharacter@0@PBVKFbxObject@0@H@Z
   ??$KFbxGetSrc@VKFbxCharacterPose@fbxsdk_20102@@@fbxsdk_20102@@YAPAVKFbxCharacterPose@0@PBVKFbxObject@0@H@Z
   ??$KFbxGetSrc@VKFbxCluster@fbxsdk_20102@@@fbxsdk_20102@@YAPAVKFbxCluster@0@PAVKFbxSdkManager@0@H@Z
   ??$KFbxGetSrc@VKFbxCluster@fbxsdk_20102@@@fbxsdk_20102@@YAPAVKFbxCluster@0@PBVKFbxObject@0@H@Z
   ??$KFbxGetSrc@VKFbxCollection@fbxsdk_20102@@@fbxsdk_20102@@YAPAVKFbxCollection@0@PBVKFbxObject@0@H@Z
   ??$KFbxGetSrc@VKFbxConstraint@fbxsdk_20102@@@fbxsdk_20102@@YAPAVKFbxConstraint@0@PBVKFbxObject@0@H@Z
   ??$KFbxGetSrc@VKFbxControlSetPlug@fbxsdk_20102@@@fbxsdk_20102@@YAPAVKFbxControlSetPlug@0@PBVKFbxObject@0@H@Z
   ??$KFbxGetSrc@VKFbxDeformer@fbxsdk_20102@@@fbxsdk_20102@@YAPAVKFbxDeformer@0@PBVKFbxObject@0@H@Z
   ??$KFbxGetSrc@VKFbxDocument@fbxsdk_20102@@@fbxsdk_20102@@YAPAVKFbxDocument@0@PAVKFbxSdkManager@0@H@Z
   ??$KFbxGetSrc@VKFbxDocument@fbxsdk_20102@@@fbxsdk_20102@@YAPAVKFbxDocument@0@PBVKFbxObject@0@H@Z
   ??$KFbxGetSrc@VKFbxGenericNode@fbxsdk_20102@@@fbxsdk_20102@@YAPAVKFbxGenericNode@0@PBVKFbxObject@0@H@Z
   ??$KFbxGetSrc@VKFbxGeometry@fbxsdk_20102@@@fbxsdk_20102@@YAPAVKFbxGeometry@0@PBVKFbxObject@0@H@Z
   ??$KFbxGetSrc@VKFbxGeometryWeightedMap@fbxsdk_20102@@@fbxsdk_20102@@YAPAVKFbxGeometryWeightedMap@0@PBVKFbxObject@0@H@Z
   ??$KFbxGetSrc@VKFbxImageConverter@fbxsdk_20102@@@fbxsdk_20102@@YAPAVKFbxImageConverter@0@PAVKFbxSdkManager@0@H@Z
   ??$KFbxGetSrc@VKFbxImplementation@fbxsdk_20102@@@fbxsdk_20102@@YAPAVKFbxImplementation@0@PBVKFbxObject@0@H@Z
   ??$KFbxGetSrc@VKFbxLayeredTexture@fbxsdk_20102@@@fbxsdk_20102@@YAPAVKFbxLayeredTexture@0@PBVKFbxObject@0@H@Z
   ??$KFbxGetSrc@VKFbxNode@fbxsdk_20102@@@fbxsdk_20102@@YAPAVKFbxNode@0@PAVKFbxSdkManager@0@H@Z
   ??$KFbxGetSrc@VKFbxNode@fbxsdk_20102@@@fbxsdk_20102@@YAPAVKFbxNode@0@PBVKFbxObject@0@H@Z
   ??$KFbxGetSrc@VKFbxNodeAttribute@fbxsdk_20102@@@fbxsdk_20102@@YAPAVKFbxNodeAttribute@0@PBVKFbxObject@0@H@Z
   ??$KFbxGetSrc@VKFbxNurbsCurve@fbxsdk_20102@@@fbxsdk_20102@@YAPAVKFbxNurbsCurve@0@PBVKFbxObject@0@H@Z
   ??$KFbxGetSrc@VKFbxNurbsSurface@fbxsdk_20102@@@fbxsdk_20102@@YAPAVKFbxNurbsSurface@0@PBVKFbxObject@0@H@Z
   ??$KFbxGetSrc@VKFbxObject@fbxsdk_20102@@@fbxsdk_20102@@YAPAVKFbxObject@0@PBV10@H@Z
   ??$KFbxGetSrc@VKFbxPose@fbxsdk_20102@@@fbxsdk_20102@@YAPAVKFbxPose@0@PBVKFbxObject@0@H@Z
   ??$KFbxGetSrc@VKFbxScene@fbxsdk_20102@@@fbxsdk_20102@@YAPAVKFbxScene@0@PAVKFbxSdkManager@0@H@Z
   ??$KFbxGetSrc@VKFbxSkin@fbxsdk_20102@@@fbxsdk_20102@@YAPAVKFbxSkin@0@PBVKFbxObject@0@H@Z
   ??$KFbxGetSrc@VKFbxSubDeformer@fbxsdk_20102@@@fbxsdk_20102@@YAPAVKFbxSubDeformer@0@PBVKFbxObject@0@H@Z
   ??$KFbxGetSrc@VKFbxSurfaceMaterial@fbxsdk_20102@@@fbxsdk_20102@@YAPAVKFbxSurfaceMaterial@0@PAVKFbxSdkManager@0@H@Z
   ??$KFbxGetSrc@VKFbxSurfaceMaterial@fbxsdk_20102@@@fbxsdk_20102@@YAPAVKFbxSurfaceMaterial@0@PBVKFbxObject@0@H@Z
   ??$KFbxGetSrc@VKFbxTakeNodeContainer@fbxsdk_20102@@@fbxsdk_20102@@YAPAVKFbxTakeNodeContainer@0@PBVKFbxObject@0@H@Z
   ??$KFbxGetSrc@VKFbxTexture@fbxsdk_20102@@@fbxsdk_20102@@YAPAVKFbxTexture@0@PAVKFbxSdkManager@0@H@Z
   ??$KFbxGetSrc@VKFbxTexture@fbxsdk_20102@@@fbxsdk_20102@@YAPAVKFbxTexture@0@PBVKFbxObject@0@H@Z
   ??$KFbxGetSrc@VKFbxThumbnail@fbxsdk_20102@@@fbxsdk_20102@@YAPAVKFbxThumbnail@0@PBVKFbxObject@0@H@Z
   ??$KFbxGetSrc@VKFbxVertexCacheDeformer@fbxsdk_20102@@@fbxsdk_20102@@YAPAVKFbxVertexCacheDeformer@0@PBVKFbxObject@0@H@Z
   ??$KFbxGetSrc@VKFbxVideo@fbxsdk_20102@@@fbxsdk_20102@@YAPAVKFbxVideo@0@PBVKFbxObject@0@H@Z
   ??$KFbxGetSrcCount@VKFbxCamera@fbxsdk_20102@@@fbxsdk_20102@@YAHPBVKFbxObject@0@PBVKFbxCamera@0@@Z
   ??$KFbxGetSrcCount@VKFbxCharacter@fbxsdk_20102@@@fbxsdk_20102@@YAHPBVKFbxObject@0@PBVKFbxCharacter@0@@Z
   ??$KFbxGetSrcCount@VKFbxCharacterPose@fbxsdk_20102@@@fbxsdk_20102@@YAHPBVKFbxObject@0@PBVKFbxCharacterPose@0@@Z
   ??$KFbxGetSrcCount@VKFbxCluster@fbxsdk_20102@@@fbxsdk_20102@@YAHPAVKFbxSdkManager@0@@Z
   ??$KFbxGetSrcCount@VKFbxCluster@fbxsdk_20102@@@fbxsdk_20102@@YAHPBVKFbxObject@0@PBVKFbxCluster@0@@Z
   ??$KFbxGetSrcCount@VKFbxCollection@fbxsdk_20102@@@fbxsdk_20102@@YAHPBVKFbxObject@0@PBVKFbxCollection@0@@Z
   ??$KFbxGetSrcCount@VKFbxConstraint@fbxsdk_20102@@@fbxsdk_20102@@YAHPBVKFbxObject@0@PBVKFbxConstraint@0@@Z
   ??$KFbxGetSrcCount@VKFbxControlSetPlug@fbxsdk_20102@@@fbxsdk_20102@@YAHPBVKFbxObject@0@PBVKFbxControlSetPlug@0@@Z
   ??$KFbxGetSrcCount@VKFbxDeformer@fbxsdk_20102@@@fbxsdk_20102@@YAHPBVKFbxObject@0@PBVKFbxDeformer@0@@Z
   ??$KFbxGetSrcCount@VKFbxDocument@fbxsdk_20102@@@fbxsdk_20102@@YAHPAVKFbxSdkManager@0@@Z
   ??$KFbxGetSrcCount@VKFbxDocument@fbxsdk_20102@@@fbxsdk_20102@@YAHPBVKFbxObject@0@PBVKFbxDocument@0@@Z
   ??$KFbxGetSrcCount@VKFbxGenericNode@fbxsdk_20102@@@fbxsdk_20102@@YAHPBVKFbxObject@0@PBVKFbxGenericNode@0@@Z
   ??$KFbxGetSrcCount@VKFbxGeometry@fbxsdk_20102@@@fbxsdk_20102@@YAHPBVKFbxObject@0@PBVKFbxGeometry@0@@Z
   ??$KFbxGetSrcCount@VKFbxGeometryWeightedMap@fbxsdk_20102@@@fbxsdk_20102@@YAHPBVKFbxObject@0@PBVKFbxGeometryWeightedMap@0@@Z
   ??$KFbxGetSrcCount@VKFbxImageConverter@fbxsdk_20102@@@fbxsdk_20102@@YAHPAVKFbxSdkManager@0@@Z
   ??$KFbxGetSrcCount@VKFbxImageConverter@fbxsdk_20102@@@fbxsdk_20102@@YAHPAVKFbxSdkManager@0@PBVKFbxImageConverter@0@@Z
   ??$KFbxGetSrcCount@VKFbxImplementation@fbxsdk_20102@@@fbxsdk_20102@@YAHPBVKFbxObject@0@PBVKFbxImplementation@0@@Z
   ??$KFbxGetSrcCount@VKFbxLayeredTexture@fbxsdk_20102@@@fbxsdk_20102@@YAHPBVKFbxObject@0@PBVKFbxLayeredTexture@0@@Z
   ??$KFbxGetSrcCount@VKFbxNode@fbxsdk_20102@@@fbxsdk_20102@@YAHPAVKFbxSdkManager@0@@Z
   ??$KFbxGetSrcCount@VKFbxNode@fbxsdk_20102@@@fbxsdk_20102@@YAHPBVKFbxObject@0@PBVKFbxNode@0@@Z
   ??$KFbxGetSrcCount@VKFbxNodeAttribute@fbxsdk_20102@@@fbxsdk_20102@@YAHPBVKFbxObject@0@PBVKFbxNodeAttribute@0@@Z
   ??$KFbxGetSrcCount@VKFbxNurbsCurve@fbxsdk_20102@@@fbxsdk_20102@@YAHPBVKFbxObject@0@PBVKFbxNurbsCurve@0@@Z
   ??$KFbxGetSrcCount@VKFbxNurbsSurface@fbxsdk_20102@@@fbxsdk_20102@@YAHPBVKFbxObject@0@PBVKFbxNurbsSurface@0@@Z
   ??$KFbxGetSrcCount@VKFbxObject@fbxsdk_20102@@@fbxsdk_20102@@YAHPBVKFbxObject@0@0@Z
   ??$KFbxGetSrcCount@VKFbxPose@fbxsdk_20102@@@fbxsdk_20102@@YAHPBVKFbxObject@0@PBVKFbxPose@0@@Z
   ??$KFbxGetSrcCount@VKFbxScene@fbxsdk_20102@@@fbxsdk_20102@@YAHPAVKFbxSdkManager@0@@Z
   ??$KFbxGetSrcCount@VKFbxSkin@fbxsdk_20102@@@fbxsdk_20102@@YAHPBVKFbxObject@0@PBVKFbxSkin@0@@Z
   ??$KFbxGetSrcCount@VKFbxSubDeformer@fbxsdk_20102@@@fbxsdk_20102@@YAHPBVKFbxObject@0@PBVKFbxSubDeformer@0@@Z
   ??$KFbxGetSrcCount@VKFbxSurfaceMaterial@fbxsdk_20102@@@fbxsdk_20102@@YAHPAVKFbxSdkManager@0@@Z
   ??$KFbxGetSrcCount@VKFbxSurfaceMaterial@fbxsdk_20102@@@fbxsdk_20102@@YAHPBVKFbxObject@0@PBVKFbxSurfaceMaterial@0@@Z
   ??$KFbxGetSrcCount@VKFbxTakeNodeContainer@fbxsdk_20102@@@fbxsdk_20102@@YAHPBVKFbxObject@0@PBVKFbxTakeNodeContainer@0@@Z
   ??$KFbxGetSrcCount@VKFbxTexture@fbxsdk_20102@@@fbxsdk_20102@@YAHPAVKFbxSdkManager@0@@Z
   ??$KFbxGetSrcCount@VKFbxTexture@fbxsdk_20102@@@fbxsdk_20102@@YAHPBVKFbxObject@0@PBVKFbxTexture@0@@Z
   ??$KFbxGetSrcCount@VKFbxThumbnail@fbxsdk_20102@@@fbxsdk_20102@@YAHPBVKFbxObject@0@PBVKFbxThumbnail@0@@Z
   ??$KFbxGetSrcCount@VKFbxVertexCacheDeformer@fbxsdk_20102@@@fbxsdk_20102@@YAHPBVKFbxObject@0@PBVKFbxVertexCacheDeformer@0@@Z
   ??$KFbxGetSrcCount@VKFbxVideo@fbxsdk_20102@@@fbxsdk_20102@@YAHPBVKFbxObject@0@PBVKFbxVideo@0@@Z
   ??$KFbxSet@_N@fbxsdk_20102@@YA_NAAVKFbxProperty@0@AB_N_N@Z
   ??$KFbxSet@H@fbxsdk_20102@@YA_NAAVKFbxProperty@0@ABH_N@Z
   ??$KFbxSet@M@fbxsdk_20102@@YA_NAAVKFbxProperty@0@ABM_N@Z
   ??$KFbxSet@N@fbxsdk_20102@@YA_NAAVKFbxProperty@0@ABN_N@Z
   ??$KFbxSet@V?$fbxVectorTemplate2@N@fbxsdk_20102@@@fbxsdk_20102@@YA_NAAVKFbxProperty@0@ABV?$fbxVectorTemplate2@N@0@_N@Z
   ??$KFbxSet@V?$fbxVectorTemplate3@N@fbxsdk_20102@@@fbxsdk_20102@@YA_NAAVKFbxProperty@0@ABV?$fbxVectorTemplate3@N@0@_N@Z
   ??$KFbxSet@V?$fbxVectorTemplate4@N@fbxsdk_20102@@@fbxsdk_20102@@YA_NAAVKFbxProperty@0@ABV?$fbxVectorTemplate4@N@0@_N@Z
   ??$KFbxSet@V?$fbxVectorTemplate4@V?$fbxVectorTemplate4@N@fbxsdk_20102@@@fbxsdk_20102@@@fbxsdk_20102@@YA_NAAVKFbxProperty@0@ABV?$fbxVectorTemplate4@V?$fbxVectorTemplate4@N@fbxsdk_20102@@@0@_N@Z
   ??$KFbxSet@VfbxDateTime@fbxsdk_20102@@@fbxsdk_20102@@YA_NAAVKFbxProperty@0@ABVfbxDateTime@0@_N@Z
   ??$KFbxSet@VKFbxColor@fbxsdk_20102@@@fbxsdk_20102@@YA_NAAVKFbxProperty@0@ABVKFbxColor@0@_N@Z
   ??$KFbxSet@VKFbxVector4@fbxsdk_20102@@@fbxsdk_20102@@YA_NAAVKFbxProperty@0@ABVKFbxVector4@0@_N@Z
   ??$KFbxSet@VKString@fbxsdk_20102@@@fbxsdk_20102@@YA_NAAVKFbxProperty@0@ABVKString@0@_N@Z
   ??$KFbxSet@VKTime@fbxsdk_20102@@@fbxsdk_20102@@YA_NAAVKFbxProperty@0@ABVKTime@0@_N@Z
   ??$KFbxSet@W4ComponentEncoding@KFbxImagePixelFormat@fbxsdk_20102@@@fbxsdk_20102@@YA_NAAVKFbxProperty@0@ABW4ComponentEncoding@KFbxImagePixelFormat@0@_N@Z
   ??$KFbxSet@W4EAccessMode@KFbxVideo@fbxsdk_20102@@@fbxsdk_20102@@YA_NAAVKFbxProperty@0@ABW4EAccessMode@KFbxVideo@0@_N@Z
   ??$KFbxSet@W4EBlendMode@KFbxTexture@fbxsdk_20102@@@fbxsdk_20102@@YA_NAAVKFbxProperty@0@ABW4EBlendMode@KFbxTexture@0@_N@Z
   ??$KFbxSet@W4ECameraAntialiasingMethod@KFbxCamera@fbxsdk_20102@@@fbxsdk_20102@@YA_NAAVKFbxProperty@0@ABW4ECameraAntialiasingMethod@KFbxCamera@0@_N@Z
   ??$KFbxSet@W4ECameraApertureFormat@KFbxCamera@fbxsdk_20102@@@fbxsdk_20102@@YA_NAAVKFbxProperty@0@ABW4ECameraApertureFormat@KFbxCamera@0@_N@Z
   ??$KFbxSet@W4ECameraApertureMode@KFbxCamera@fbxsdk_20102@@@fbxsdk_20102@@YA_NAAVKFbxProperty@0@ABW4ECameraApertureMode@KFbxCamera@0@_N@Z
   ??$KFbxSet@W4ECameraAspectRatioMode@KFbxCamera@fbxsdk_20102@@@fbxsdk_20102@@YA_NAAVKFbxProperty@0@ABW4ECameraAspectRatioMode@KFbxCamera@0@_N@Z
   ??$KFbxSet@W4ECameraFilmRollOrder@KFbxCamera@fbxsdk_20102@@@fbxsdk_20102@@YA_NAAVKFbxProperty@0@ABW4ECameraFilmRollOrder@KFbxCamera@0@_N@Z
   ??$KFbxSet@W4ECameraFocusDistanceSource@KFbxCamera@fbxsdk_20102@@@fbxsdk_20102@@YA_NAAVKFbxProperty@0@ABW4ECameraFocusDistanceSource@KFbxCamera@0@_N@Z
   ??$KFbxSet@W4ECameraFormat@KFbxCamera@fbxsdk_20102@@@fbxsdk_20102@@YA_NAAVKFbxProperty@0@ABW4ECameraFormat@KFbxCamera@0@_N@Z
   ??$KFbxSet@W4ECameraFrontBackPlaneDisplayMode@KFbxCamera@fbxsdk_20102@@@fbxsdk_20102@@YA_NAAVKFbxProperty@0@ABW4ECameraFrontBackPlaneDisplayMode@KFbxCamera@0@_N@Z
   ??$KFbxSet@W4ECameraFrontBackPlaneDistanceMode@KFbxCamera@fbxsdk_20102@@@fbxsdk_20102@@YA_NAAVKFbxProperty@0@ABW4ECameraFrontBackPlaneDistanceMode@KFbxCamera@0@_N@Z
   ??$KFbxSet@W4ECameraGateFit@KFbxCamera@fbxsdk_20102@@@fbxsdk_20102@@YA_NAAVKFbxProperty@0@ABW4ECameraGateFit@KFbxCamera@0@_N@Z
   ??$KFbxSet@W4ECameraProjectionType@KFbxCamera@fbxsdk_20102@@@fbxsdk_20102@@YA_NAAVKFbxProperty@0@ABW4ECameraProjectionType@KFbxCamera@0@_N@Z
   ??$KFbxSet@W4ECameraSafeAreaStyle@KFbxCamera@fbxsdk_20102@@@fbxsdk_20102@@YA_NAAVKFbxProperty@0@ABW4ECameraSafeAreaStyle@KFbxCamera@0@_N@Z
   ??$KFbxSet@W4ECameraSamplingType@KFbxCamera@fbxsdk_20102@@@fbxsdk_20102@@YA_NAAVKFbxProperty@0@ABW4ECameraSamplingType@KFbxCamera@0@_N@Z
   ??$KFbxSet@W4ECameraStereo@KFbxCameraStereo@fbxsdk_20102@@@fbxsdk_20102@@YA_NAAVKFbxProperty@0@ABW4ECameraStereo@KFbxCameraStereo@0@_N@Z
   ??$KFbxSet@W4EDecayType@KFbxLight@fbxsdk_20102@@@fbxsdk_20102@@YA_NAAVKFbxProperty@0@ABW4EDecayType@KFbxLight@0@_N@Z
   ??$KFbxSet@W4EInterlaceMode@KFbxVideo@fbxsdk_20102@@@fbxsdk_20102@@YA_NAAVKFbxProperty@0@ABW4EInterlaceMode@KFbxVideo@0@_N@Z
   ??$KFbxSet@W4ELightType@KFbxLight@fbxsdk_20102@@@fbxsdk_20102@@YA_NAAVKFbxProperty@0@ABW4ELightType@KFbxLight@0@_N@Z
   ??$KFbxSet@W4ELook@KFbxMarker@fbxsdk_20102@@@fbxsdk_20102@@YA_NAAVKFbxProperty@0@ABW4ELook@KFbxMarker@0@_N@Z
   ??$KFbxSet@W4ELook@KFbxNull@fbxsdk_20102@@@fbxsdk_20102@@YA_NAAVKFbxProperty@0@ABW4ELook@KFbxNull@0@_N@Z
   ??$KFbxSet@W4ERotationOrder@fbxsdk_20102@@@fbxsdk_20102@@YA_NAAVKFbxProperty@0@ABW4ERotationOrder@0@_N@Z
   ??$KFbxSet@W4ETextureUse6@KFbxTexture@fbxsdk_20102@@@fbxsdk_20102@@YA_NAAVKFbxProperty@0@ABW4ETextureUse6@KFbxTexture@0@_N@Z
   ??$KFbxSet@W4ETransformInheritType@fbxsdk_20102@@@fbxsdk_20102@@YA_NAAVKFbxProperty@0@ABW4ETransformInheritType@0@_N@Z
   ??$KFbxSet@W4EType@KFbxControlSet@fbxsdk_20102@@@fbxsdk_20102@@YA_NAAVKFbxProperty@0@ABW4EType@KFbxControlSet@0@_N@Z
   ??$KFbxSet@W4EUnifiedMappingType@KFbxTexture@fbxsdk_20102@@@fbxsdk_20102@@YA_NAAVKFbxProperty@0@ABW4EUnifiedMappingType@KFbxTexture@0@_N@Z
   ??$KFbxSet@W4EWrapMode@KFbxTexture@fbxsdk_20102@@@fbxsdk_20102@@YA_NAAVKFbxProperty@0@ABW4EWrapMode@KFbxTexture@0@_N@Z
   ??$KFbxSet@W4kCharacterAutoUser@fbxsdk_20102@@@fbxsdk_20102@@YA_NAAVKFbxProperty@0@ABW4kCharacterAutoUser@0@_N@Z
   ??$KFbxSet@W4kCharacterContactBehaviour@fbxsdk_20102@@@fbxsdk_20102@@YA_NAAVKFbxProperty@0@ABW4kCharacterContactBehaviour@0@_N@Z
   ??$KFbxSet@W4kCharacterFingerContactMode@fbxsdk_20102@@@fbxsdk_20102@@YA_NAAVKFbxProperty@0@ABW4kCharacterFingerContactMode@0@_N@Z
   ??$KFbxSet@W4kCharacterFloorPivot@fbxsdk_20102@@@fbxsdk_20102@@YA_NAAVKFbxProperty@0@ABW4kCharacterFloorPivot@0@_N@Z
   ??$KFbxSet@W4kCharacterFootContactType@fbxsdk_20102@@@fbxsdk_20102@@YA_NAAVKFbxProperty@0@ABW4kCharacterFootContactType@0@_N@Z
   ??$KFbxSet@W4kCharacterHandContactType@fbxsdk_20102@@@fbxsdk_20102@@YA_NAAVKFbxProperty@0@ABW4kCharacterHandContactType@0@_N@Z
   ??$KFbxSet@W4kCharacterHipsTranslationMode@fbxsdk_20102@@@fbxsdk_20102@@YA_NAAVKFbxProperty@0@ABW4kCharacterHipsTranslationMode@0@_N@Z
   ??$KFbxSet@W4kCharacterOffAutoUser@fbxsdk_20102@@@fbxsdk_20102@@YA_NAAVKFbxProperty@0@ABW4kCharacterOffAutoUser@0@_N@Z
   ??$KFbxSet@W4kCharacterPosture@fbxsdk_20102@@@fbxsdk_20102@@YA_NAAVKFbxProperty@0@ABW4kCharacterPosture@0@_N@Z
   ??$KFbxSet@W4kCharacterRollExtractionMode@fbxsdk_20102@@@fbxsdk_20102@@YA_NAAVKFbxProperty@0@ABW4kCharacterRollExtractionMode@0@_N@Z
   ??$KFbxSet@W4PixelEncoding@KFbxImagePixelFormat@fbxsdk_20102@@@fbxsdk_20102@@YA_NAAVKFbxProperty@0@ABW4PixelEncoding@KFbxImagePixelFormat@0@_N@Z
   ??$KFbxSetPolygon@H@fbxsdk_20102@@YAXPAV?$KFbxLayerElementTemplate@H@0@HH_N@Z
   ??$KFbxSetPolygon@PAVKFbxSurfaceMaterial@fbxsdk_20102@@@fbxsdk_20102@@YAXPAV?$KFbxLayerElementTemplate@PAVKFbxSurfaceMaterial@fbxsdk_20102@@@0@HH_N@Z
   ??$KFbxSetPolygon@PAVKFbxTexture@fbxsdk_20102@@@fbxsdk_20102@@YAXPAV?$KFbxLayerElementTemplate@PAVKFbxTexture@fbxsdk_20102@@@0@HH_N@Z
   ??$KFbxSetPolygon@VKFbxColor@fbxsdk_20102@@@fbxsdk_20102@@YAXPAV?$KFbxLayerElementTemplate@VKFbxColor@fbxsdk_20102@@@0@HH_N@Z
   ??$KFbxSetPolygon@VKFbxVector2@fbxsdk_20102@@@fbxsdk_20102@@YAXPAV?$KFbxLayerElementTemplate@VKFbxVector2@fbxsdk_20102@@@0@HH_N@Z
   ??$KFbxSetPolygon@VKFbxVector4@fbxsdk_20102@@@fbxsdk_20102@@YAXPAV?$KFbxLayerElementTemplate@VKFbxVector4@fbxsdk_20102@@@0@HH_N@Z
   ??$KFbxUpdatePolygon@H@fbxsdk_20102@@YAXAAV?$KFbxLayerElementTemplate@H@0@ABV10@HHHPAH2HH_N@Z
   ??$KFbxUpdatePolygon@H@fbxsdk_20102@@YAXAAV?$KFbxLayerElementTemplate@H@0@ABV10@HHHPAHHH@Z
   ??$KFbxUpdatePolygon@PAVKFbxSurfaceMaterial@fbxsdk_20102@@@fbxsdk_20102@@YAXAAV?$KFbxLayerElementTemplate@PAVKFbxSurfaceMaterial@fbxsdk_20102@@@0@ABV10@HHHPAH2HH_N@Z
   ??$KFbxUpdatePolygon@PAVKFbxSurfaceMaterial@fbxsdk_20102@@@fbxsdk_20102@@YAXAAV?$KFbxLayerElementTemplate@PAVKFbxSurfaceMaterial@fbxsdk_20102@@@0@ABV10@HHHPAHHH@Z
   ??$KFbxUpdatePolygon@PAVKFbxTexture@fbxsdk_20102@@@fbxsdk_20102@@YAXAAV?$KFbxLayerElementTemplate@PAVKFbxTexture@fbxsdk_20102@@@0@ABV10@HHHPAH2HH_N@Z
   ??$KFbxUpdatePolygon@PAVKFbxTexture@fbxsdk_20102@@@fbxsdk_20102@@YAXAAV?$KFbxLayerElementTemplate@PAVKFbxTexture@fbxsdk_20102@@@0@ABV10@HHHPAHHH@Z
   ??$KFbxUpdatePolygon@VKFbxColor@fbxsdk_20102@@@fbxsdk_20102@@YAXAAV?$KFbxLayerElementTemplate@VKFbxColor@fbxsdk_20102@@@0@ABV10@HHHPAH2HH_N@Z
   ??$KFbxUpdatePolygon@VKFbxColor@fbxsdk_20102@@@fbxsdk_20102@@YAXAAV?$KFbxLayerElementTemplate@VKFbxColor@fbxsdk_20102@@@0@ABV10@HHHPAHHH@Z
   ??$KFbxUpdatePolygon@VKFbxVector2@fbxsdk_20102@@@fbxsdk_20102@@YAXAAV?$KFbxLayerElementTemplate@VKFbxVector2@fbxsdk_20102@@@0@ABV10@HHHPAH2HH_N@Z
   ??$KFbxUpdatePolygon@VKFbxVector2@fbxsdk_20102@@@fbxsdk_20102@@YAXAAV?$KFbxLayerElementTemplate@VKFbxVector2@fbxsdk_20102@@@0@ABV10@HHHPAHHH@Z
   ??$KFbxUpdatePolygon@VKFbxVector4@fbxsdk_20102@@@fbxsdk_20102@@YAXAAV?$KFbxLayerElementTemplate@VKFbxVector4@fbxsdk_20102@@@0@ABV10@HHHPAH2HH_N@Z
   ??$KFbxUpdatePolygon@VKFbxVector4@fbxsdk_20102@@@fbxsdk_20102@@YAXAAV?$KFbxLayerElementTemplate@VKFbxVector4@fbxsdk_20102@@@0@ABV10@HHHPAHHH@Z
   ??$kMax@VKTime@fbxsdk_20102@@@@YA?AVKTime@fbxsdk_20102@@V01@0@Z
   ??$kMin@VKTime@fbxsdk_20102@@@@YA?AVKTime@fbxsdk_20102@@V01@0@Z
   ??$kSign@W4eFrontVector@KFbxAxisSystem@fbxsdk_20102@@@@YA?AW4eFrontVector@KFbxAxisSystem@fbxsdk_20102@@W4012@@Z
   ??$kSign@W4eUpVector@KFbxAxisSystem@fbxsdk_20102@@@@YA?AW4eUpVector@KFbxAxisSystem@fbxsdk_20102@@W4012@@Z
   ??$make_heap@PAPAVInitializer@awUtil@fbxsdk_20102@@VCountOrdering@?A0x1cd43906@3@@std@@YAXPAPAVInitializer@awUtil@fbxsdk_20102@@0VCountOrdering@?A0x1cd43906@3@@Z
   ??$make_heap@PAVCString@awString@fbxsdk_20102@@@std@@YAXPAVCString@awString@fbxsdk_20102@@0@Z
   ??$make_pair@PAU_xmlParserCtxt@fbxsdk_20102@@PAUXMLSettings@2@@std@@YA?AU?$pair@PAU_xmlParserCtxt@fbxsdk_20102@@PAUXMLSettings@2@@0@PAU_xmlParserCtxt@fbxsdk_20102@@PAUXMLSettings@3@@Z
   ??$make_pair@PAVKFbxObject@fbxsdk_20102@@PAVKFbxDocument@2@@std@@YA?AU?$pair@PAVKFbxObject@fbxsdk_20102@@PAVKFbxDocument@2@@0@PAVKFbxObject@fbxsdk_20102@@PAVKFbxDocument@3@@Z
   ??$make_pair@VKString@fbxsdk_20102@@H@std@@YA?AU?$pair@VKString@fbxsdk_20102@@H@0@VKString@fbxsdk_20102@@H@Z
   ??$make_pair@VKString@fbxsdk_20102@@PAU_xmlNode@2@@std@@YA?AU?$pair@VKString@fbxsdk_20102@@PAU_xmlNode@2@@0@VKString@fbxsdk_20102@@PAU_xmlNode@3@@Z
   ??$make_pair@VKString@fbxsdk_20102@@V12@@std@@YA?AU?$pair@VKString@fbxsdk_20102@@V12@@0@VKString@fbxsdk_20102@@0@Z
   ??$MAX@H@fbxsdk_20102@@YAHABH0@Z
   ??$MIN@H@fbxsdk_20102@@YAHABH0@Z
   ??$pop_heap@PAPAVInitializer@awUtil@fbxsdk_20102@@VCountOrdering@?A0x1cd43906@3@@std@@YAXPAPAVInitializer@awUtil@fbxsdk_20102@@0VCountOrdering@?A0x1cd43906@3@@Z
   ??$pop_heap@PAVCString@awString@fbxsdk_20102@@@std@@YAXPAVCString@awString@fbxsdk_20102@@0@Z
   ??$push_back@$$BY01$$CB_W@?$vector@VIString@awString@fbxsdk_20102@@@aw@fbxsdk_20102@@AAEXAAY01$$CB_WU?$int_switch@$0A@@12@@Z
   ??$push_back@$$BY01$$CB_W@?$vector@VIString@awString@fbxsdk_20102@@@aw@fbxsdk_20102@@QAEXAAY01$$CB_W@Z
   ??$push_back@H@?$vector@H@aw@fbxsdk_20102@@AAEXABHU?$int_switch@$00@12@@Z
   ??$push_back@H@?$vector@H@aw@fbxsdk_20102@@QAEXABH@Z
   ??$push_back@PA_W@?$list@VIString@awString@fbxsdk_20102@@@aw@fbxsdk_20102@@AAEXABQA_WU?$int_switch@$0A@@12@@Z
   ??$push_back@PA_W@?$list@VIString@awString@fbxsdk_20102@@@aw@fbxsdk_20102@@QAEXABQA_W@Z
   ??$push_back@PA_W@?$vector@VIString@awString@fbxsdk_20102@@@aw@fbxsdk_20102@@AAEXABQA_WU?$int_switch@$0A@@12@@Z
   ??$push_back@PA_W@?$vector@VIString@awString@fbxsdk_20102@@@aw@fbxsdk_20102@@QAEXABQA_W@Z
   ??$push_back@PAD@?$list@VIString@awString@fbxsdk_20102@@@aw@fbxsdk_20102@@AAEXABQADU?$int_switch@$0A@@12@@Z
   ??$push_back@PAD@?$list@VIString@awString@fbxsdk_20102@@@aw@fbxsdk_20102@@QAEXABQAD@Z
   ??$push_back@PAD@?$vector@VIString@awString@fbxsdk_20102@@@aw@fbxsdk_20102@@AAEXABQADU?$int_switch@$0A@@12@@Z
   ??$push_back@PAD@?$vector@VIString@awString@fbxsdk_20102@@@aw@fbxsdk_20102@@QAEXABQAD@Z
   ??$push_back@PAVFileTransportFactory@awOS@fbxsdk_20102@@@?$vector@PAVFileTransportFactory@awOS@fbxsdk_20102@@@aw@fbxsdk_20102@@AAEXABQAVFileTransportFactory@awOS@2@U?$int_switch@$00@12@@Z
   ??$push_back@PAVFileTransportFactory@awOS@fbxsdk_20102@@@?$vector@PAVFileTransportFactory@awOS@fbxsdk_20102@@@aw@fbxsdk_20102@@QAEXABQAVFileTransportFactory@awOS@2@@Z
   ??$push_back@PAVInitializer@awUtil@fbxsdk_20102@@@?$vector@PAVInitializer@awUtil@fbxsdk_20102@@@aw@fbxsdk_20102@@AAEXABQAVInitializer@awUtil@2@U?$int_switch@$00@12@@Z
   ??$push_back@PAVInitializer@awUtil@fbxsdk_20102@@@?$vector@PAVInitializer@awUtil@fbxsdk_20102@@@aw@fbxsdk_20102@@QAEXABQAVInitializer@awUtil@2@@Z
   ??$push_back@V?$pair@PAVInitializer@awUtil@fbxsdk_20102@@PAV123@@aw@fbxsdk_20102@@@?$list@V?$pair@PAVInitializer@awUtil@fbxsdk_20102@@PAV123@@aw@fbxsdk_20102@@@aw@fbxsdk_20102@@QAEXABV?$pair@PAVInitializer@awUtil@fbxsdk_20102@@PAV123@@12@@Z
   ??$push_back@V?$Reference@VIdleTask@awUtil@fbxsdk_20102@@@aw@fbxsdk_20102@@@?$list@V?$Reference@VIdleTask@awUtil@fbxsdk_20102@@@aw@fbxsdk_20102@@@aw@fbxsdk_20102@@QAEXABV?$Reference@VIdleTask@awUtil@fbxsdk_20102@@@12@@Z
   ??$push_back@V?$Reference@Voption@impl@fbxsdk_20102@@@aw@fbxsdk_20102@@@?$vector@V?$Reference@Voption@impl@fbxsdk_20102@@@aw@fbxsdk_20102@@@aw@fbxsdk_20102@@QAEXABV?$Reference@Voption@impl@fbxsdk_20102@@@12@@Z
   ??$push_back@VCString@awString@fbxsdk_20102@@@?$vector@VCString@awString@fbxsdk_20102@@@aw@fbxsdk_20102@@QAEXABVCString@awString@2@@Z
   ??$push_back@VCString@awString@fbxsdk_20102@@@?$vector@VIString@awString@fbxsdk_20102@@@aw@fbxsdk_20102@@AAEXABVCString@awString@2@U?$int_switch@$0A@@12@@Z
   ??$push_back@VCString@awString@fbxsdk_20102@@@?$vector@VIString@awString@fbxsdk_20102@@@aw@fbxsdk_20102@@QAEXABVCString@awString@2@@Z
   ??$push_back@VIString@awString@fbxsdk_20102@@@?$list@UiteratorEntry@DirectoryIterator@awOS@fbxsdk_20102@@@aw@fbxsdk_20102@@AAEXABVIString@awString@2@U?$int_switch@$0A@@12@@Z
   ??$push_back@VIString@awString@fbxsdk_20102@@@?$list@UiteratorEntry@DirectoryIterator@awOS@fbxsdk_20102@@@aw@fbxsdk_20102@@QAEXABVIString@awString@2@@Z
   ??$push_back@VIString@awString@fbxsdk_20102@@@?$list@VIString@awString@fbxsdk_20102@@@aw@fbxsdk_20102@@QAEXABVIString@awString@2@@Z
   ??$push_back@VIString@awString@fbxsdk_20102@@@?$vector@VIString@awString@fbxsdk_20102@@@aw@fbxsdk_20102@@QAEXABVIString@awString@2@@Z
   ??$push_back@W4optionTypes@impl@fbxsdk_20102@@@?$vector@W4optionTypes@impl@fbxsdk_20102@@@aw@fbxsdk_20102@@QAEXABW4optionTypes@impl@2@@Z
   ??$ReadValueArray@_N@KFbxReaderFbx7Impl@fbxsdk_20102@@AAEHAAV?$KFbxLayerElementArrayTemplate@_N@1@@Z
   ??$ReadValueArray@_N@KFbxReaderFbx7Impl@fbxsdk_20102@@AAEHPBDAAV?$KFbxLayerElementArrayTemplate@_N@1@@Z
   ??$ReadValueArray@E@KFbxReaderFbx7Impl@fbxsdk_20102@@AAEXHPAE@Z
   ??$ReadValueArray@H@KFbxReaderFbx7Impl@fbxsdk_20102@@AAEHAAV?$KFbxLayerElementArrayTemplate@H@1@@Z
   ??$ReadValueArray@H@KFbxReaderFbx7Impl@fbxsdk_20102@@AAEHPBDAAV?$KFbxLayerElementArrayTemplate@H@1@@Z
   ??$ReadValueArray@M@KFbxReaderFbx7Impl@fbxsdk_20102@@AAEHAAV?$KFbxLayerElementArrayTemplate@M@1@@Z
   ??$ReadValueArray@M@KFbxReaderFbx7Impl@fbxsdk_20102@@AAEHPBDAAV?$KFbxLayerElementArrayTemplate@M@1@@Z
   ??$ReadValueArray@N@KFbxReaderFbx7Impl@fbxsdk_20102@@AAEHAAV?$KFbxLayerElementArrayTemplate@N@1@@Z
   ??$ReadValueArray@N@KFbxReaderFbx7Impl@fbxsdk_20102@@AAEHPBDAAV?$KFbxLayerElementArrayTemplate@N@1@@Z
   ??$ReadValueArray@N@KFbxReaderFbx7Impl@fbxsdk_20102@@AAEXHPAN@Z
   ??$ReadValueArray@N@KFbxReaderFbx7Impl@fbxsdk_20102@@AAEXPBDHPANPBN@Z
   ??$RecursiveCall@VKFbxDependencyBindFunctor@fbxsdk_20102@@@KFbxUINode@fbxsdk_20102@@QAEXAAVKFbxDependencyBindFunctor@1@@Z
   ??$RecursiveCall@VKFbxDisabledFunctor@fbxsdk_20102@@@KFbxUINode@fbxsdk_20102@@QAEXAAVKFbxDisabledFunctor@1@@Z
   ??$RecursiveCall@VKFbxEnabledFunctor@fbxsdk_20102@@@KFbxUINode@fbxsdk_20102@@QAEXAAVKFbxEnabledFunctor@1@@Z
   ??$RecursiveCall@VKFbxHideFunctor@fbxsdk_20102@@@KFbxUINode@fbxsdk_20102@@QAEXAAVKFbxHideFunctor@1@@Z
   ??$RecursiveCall@VKFbxScriptBindFunctor@fbxsdk_20102@@@KFbxUINode@fbxsdk_20102@@QAEXAAVKFbxScriptBindFunctor@1@@Z
   ??$RecursiveCall@VKFbxShowFunctor@fbxsdk_20102@@@KFbxUINode@fbxsdk_20102@@QAEXAAVKFbxShowFunctor@1@@Z
   ??$RecursiveCall@VKFbxUIUpdateFunctor@fbxsdk_20102@@@KFbxUINode@fbxsdk_20102@@QAEXAAVKFbxUIUpdateFunctor@1@@Z
   ??$RecursiveCall@VKFbxUpdateFunctor@fbxsdk_20102@@@KFbxUINode@fbxsdk_20102@@QAEXAAVKFbxUpdateFunctor@1@@Z
   ??$RegisterFbxClass@VKFbxBindingOperator@fbxsdk_20102@@VKFbxBindingTableBase@2@@KFbxSdkManager@fbxsdk_20102@@QAE?AVkFbxClassId@1@PBDPBVKFbxBindingOperator@1@PBVKFbxBindingTableBase@1@00@Z
   ??$RegisterFbxClass@VKFbxBindingTable@fbxsdk_20102@@VKFbxBindingTableBase@2@@KFbxSdkManager@fbxsdk_20102@@QAE?AVkFbxClassId@1@PBDPBVKFbxBindingTable@1@PBVKFbxBindingTableBase@1@00@Z
   ??$RegisterFbxClass@VKFbxBindingTableBase@fbxsdk_20102@@VKFbxObject@2@@KFbxSdkManager@fbxsdk_20102@@QAE?AVkFbxClassId@1@PBDPBVKFbxBindingTableBase@1@PBVKFbxObject@1@00@Z
   ??$RegisterFbxClass@VKFbxBoundary@fbxsdk_20102@@VKFbxGeometry@2@@KFbxSdkManager@fbxsdk_20102@@QAE?AVkFbxClassId@1@PBDPBVKFbxBoundary@1@PBVKFbxGeometry@1@00@Z
   ??$RegisterFbxClass@VKFbxCache@fbxsdk_20102@@VKFbxObject@2@@KFbxSdkManager@fbxsdk_20102@@QAE?AVkFbxClassId@1@PBDPBVKFbxCache@1@PBVKFbxObject@1@00@Z
   ??$RegisterFbxClass@VKFbxCamera@fbxsdk_20102@@VKFbxNodeAttribute@2@@KFbxSdkManager@fbxsdk_20102@@QAE?AVkFbxClassId@1@PBDPBVKFbxCamera@1@PBVKFbxNodeAttribute@1@00@Z
   ??$RegisterFbxClass@VKFbxCameraManipulator@fbxsdk_20102@@VKFbxObject@2@@KFbxSdkManager@fbxsdk_20102@@QAE?AVkFbxClassId@1@PBDPBVKFbxCameraManipulator@1@PBVKFbxObject@1@00@Z
   ??$RegisterFbxClass@VKFbxCameraStereo@fbxsdk_20102@@VKFbxCamera@2@@KFbxSdkManager@fbxsdk_20102@@QAE?AVkFbxClassId@1@PBDPBVKFbxCameraStereo@1@PBVKFbxCamera@1@00@Z
   ??$RegisterFbxClass@VKFbxCameraSwitcher@fbxsdk_20102@@VKFbxNodeAttribute@2@@KFbxSdkManager@fbxsdk_20102@@QAE?AVkFbxClassId@1@PBDPBVKFbxCameraSwitcher@1@PBVKFbxNodeAttribute@1@00@Z
   ??$RegisterFbxClass@VKFbxCharacter@fbxsdk_20102@@VKFbxConstraint@2@@KFbxSdkManager@fbxsdk_20102@@QAE?AVkFbxClassId@1@PBDPBVKFbxCharacter@1@PBVKFbxConstraint@1@00@Z
   ??$RegisterFbxClass@VKFbxCharacterPose@fbxsdk_20102@@VKFbxObject@2@@KFbxSdkManager@fbxsdk_20102@@QAE?AVkFbxClassId@1@PBDPBVKFbxCharacterPose@1@PBVKFbxObject@1@00@Z
   ??$RegisterFbxClass@VKFbxCluster@fbxsdk_20102@@VKFbxSubDeformer@2@@KFbxSdkManager@fbxsdk_20102@@QAE?AVkFbxClassId@1@PBDPBVKFbxCluster@1@PBVKFbxSubDeformer@1@00@Z
   ??$RegisterFbxClass@VKFbxCollection@fbxsdk_20102@@VKFbxObject@2@@KFbxSdkManager@fbxsdk_20102@@QAE?AVkFbxClassId@1@PBDPBVKFbxCollection@1@PBVKFbxObject@1@00@Z
   ??$RegisterFbxClass@VKFbxCollectionExclusive@fbxsdk_20102@@VKFbxCollection@2@@KFbxSdkManager@fbxsdk_20102@@QAE?AVkFbxClassId@1@PBDPBVKFbxCollectionExclusive@1@PBVKFbxCollection@1@00@Z
   ??$RegisterFbxClass@VKFbxConstraint@fbxsdk_20102@@VKFbxTakeNodeContainer@2@@KFbxSdkManager@fbxsdk_20102@@QAE?AVkFbxClassId@1@PBDPBVKFbxConstraint@1@PBVKFbxTakeNodeContainer@1@00@Z
   ??$RegisterFbxClass@VKFbxConstraintAim@fbxsdk_20102@@VKFbxConstraint@2@@KFbxSdkManager@fbxsdk_20102@@QAE?AVkFbxClassId@1@PBDPBVKFbxConstraintAim@1@PBVKFbxConstraint@1@00@Z
   ??$RegisterFbxClass@VKFbxConstraintCustom@fbxsdk_20102@@VKFbxConstraint@2@@KFbxSdkManager@fbxsdk_20102@@QAE?AVkFbxClassId@1@PBDPBVKFbxConstraintCustom@1@PBVKFbxConstraint@1@00@Z
   ??$RegisterFbxClass@VKFbxConstraintParent@fbxsdk_20102@@VKFbxConstraint@2@@KFbxSdkManager@fbxsdk_20102@@QAE?AVkFbxClassId@1@PBDPBVKFbxConstraintParent@1@PBVKFbxConstraint@1@00@Z
   ??$RegisterFbxClass@VKFbxConstraintPosition@fbxsdk_20102@@VKFbxConstraint@2@@KFbxSdkManager@fbxsdk_20102@@QAE?AVkFbxClassId@1@PBDPBVKFbxConstraintPosition@1@PBVKFbxConstraint@1@00@Z
   ??$RegisterFbxClass@VKFbxConstraintRotation@fbxsdk_20102@@VKFbxConstraint@2@@KFbxSdkManager@fbxsdk_20102@@QAE?AVkFbxClassId@1@PBDPBVKFbxConstraintRotation@1@PBVKFbxConstraint@1@00@Z
   ??$RegisterFbxClass@VKFbxConstraintScale@fbxsdk_20102@@VKFbxConstraint@2@@KFbxSdkManager@fbxsdk_20102@@QAE?AVkFbxClassId@1@PBDPBVKFbxConstraintScale@1@PBVKFbxConstraint@1@00@Z
   ??$RegisterFbxClass@VKFbxConstraintSingleChainIK@fbxsdk_20102@@VKFbxConstraint@2@@KFbxSdkManager@fbxsdk_20102@@QAE?AVkFbxClassId@1@PBDPBVKFbxConstraintSingleChainIK@1@PBVKFbxConstraint@1@00@Z
   ??$RegisterFbxClass@VKFbxContainer@fbxsdk_20102@@VKFbxObject@2@@KFbxSdkManager@fbxsdk_20102@@QAE?AVkFbxClassId@1@PBDPBVKFbxContainer@1@PBVKFbxObject@1@00@Z
   ??$RegisterFbxClass@VKFbxContainerTemplate@fbxsdk_20102@@VKFbxObject@2@@KFbxSdkManager@fbxsdk_20102@@QAE?AVkFbxClassId@1@PBDPBVKFbxContainerTemplate@1@PBVKFbxObject@1@00@Z
   ??$RegisterFbxClass@VKFbxControlSetPlug@fbxsdk_20102@@VKFbxObject@2@@KFbxSdkManager@fbxsdk_20102@@QAE?AVkFbxClassId@1@PBDPBVKFbxControlSetPlug@1@PBVKFbxObject@1@00@Z
   ??$RegisterFbxClass@VKFbxDeformer@fbxsdk_20102@@VKFbxTakeNodeContainer@2@@KFbxSdkManager@fbxsdk_20102@@QAE?AVkFbxClassId@1@PBDPBVKFbxDeformer@1@PBVKFbxTakeNodeContainer@1@00@Z
   ??$RegisterFbxClass@VKFbxDisplayLayer@fbxsdk_20102@@VKFbxCollectionExclusive@2@@KFbxSdkManager@fbxsdk_20102@@QAE?AVkFbxClassId@1@PBDPBVKFbxDisplayLayer@1@PBVKFbxCollectionExclusive@1@00@Z
   ??$RegisterFbxClass@VKFbxDocument@fbxsdk_20102@@VKFbxCollection@2@@KFbxSdkManager@fbxsdk_20102@@QAE?AVkFbxClassId@1@PBDPBVKFbxDocument@1@PBVKFbxCollection@1@00@Z
   ??$RegisterFbxClass@VKFbxDocumentInfo@fbxsdk_20102@@VKFbxObject@2@@KFbxSdkManager@fbxsdk_20102@@QAE?AVkFbxClassId@1@PBDPBVKFbxDocumentInfo@1@PBVKFbxObject@1@00@Z
   ??$RegisterFbxClass@VKFbxEnvironment@fbxsdk_20102@@VKFbxObject@2@@KFbxSdkManager@fbxsdk_20102@@QAE?AVkFbxClassId@1@PBDPBVKFbxEnvironment@1@PBVKFbxObject@1@00@Z
   ??$RegisterFbxClass@VKFbxExporter@fbxsdk_20102@@VKFbxIO@2@@KFbxSdkManager@fbxsdk_20102@@QAE?AVkFbxClassId@1@PBDPBVKFbxExporter@1@PBVKFbxIO@1@00@Z
   ??$RegisterFbxClass@VKFbxExposureControl@fbxsdk_20102@@VKFbxObject@2@@KFbxSdkManager@fbxsdk_20102@@QAE?AVkFbxClassId@1@PBDPBVKFbxExposureControl@1@PBVKFbxObject@1@00@Z
   ??$RegisterFbxClass@VKFbxGenericNode@fbxsdk_20102@@VKFbxTakeNodeContainer@2@@KFbxSdkManager@fbxsdk_20102@@QAE?AVkFbxClassId@1@PBDPBVKFbxGenericNode@1@PBVKFbxTakeNodeContainer@1@00@Z
   ??$RegisterFbxClass@VKFbxGeometry@fbxsdk_20102@@VKFbxGeometryBase@2@@KFbxSdkManager@fbxsdk_20102@@QAE?AVkFbxClassId@1@PBDPBVKFbxGeometry@1@PBVKFbxGeometryBase@1@00@Z
   ??$RegisterFbxClass@VKFbxGeometryBase@fbxsdk_20102@@VKFbxLayerContainer@2@@KFbxSdkManager@fbxsdk_20102@@QAE?AVkFbxClassId@1@PBDPBVKFbxGeometryBase@1@PBVKFbxLayerContainer@1@00@Z
   ??$RegisterFbxClass@VKFbxGeometryWeightedMap@fbxsdk_20102@@VKFbxObject@2@@KFbxSdkManager@fbxsdk_20102@@QAE?AVkFbxClassId@1@PBDPBVKFbxGeometryWeightedMap@1@PBVKFbxObject@1@00@Z
   ??$RegisterFbxClass@VKFbxGlobalSettings@fbxsdk_20102@@VKFbxObject@2@@KFbxSdkManager@fbxsdk_20102@@QAE?AVkFbxClassId@1@PBDPBVKFbxGlobalSettings@1@PBVKFbxObject@1@00@Z
   ??$RegisterFbxClass@VKFbxImage@fbxsdk_20102@@VKFbxObject@2@@KFbxSdkManager@fbxsdk_20102@@QAE?AVkFbxClassId@1@PBDPBVKFbxImage@1@PBVKFbxObject@1@00@Z
   ??$RegisterFbxClass@VKFbxImageConverter@fbxsdk_20102@@VKFbxObject@2@@KFbxSdkManager@fbxsdk_20102@@QAE?AVkFbxClassId@1@PBDPBVKFbxImageConverter@1@PBVKFbxObject@1@00@Z
   ??$RegisterFbxClass@VKFbxImageProcess@fbxsdk_20102@@VKFbxObject@2@@KFbxSdkManager@fbxsdk_20102@@QAE?AVkFbxClassId@1@PBDPBVKFbxImageProcess@1@PBVKFbxObject@1@00@Z
   ??$RegisterFbxClass@VKFbxImageWidgetPreviewGenerator@fbxsdk_20102@@VKFbxThumbnailGenerator@2@@KFbxSdkManager@fbxsdk_20102@@QAE?AVkFbxClassId@1@PBDPBVKFbxImageWidgetPreviewGenerator@1@PBVKFbxThumbnailGenerator@1@00@Z
   ??$RegisterFbxClass@VKFbxImplementation@fbxsdk_20102@@VKFbxObject@2@@KFbxSdkManager@fbxsdk_20102@@QAE?AVkFbxClassId@1@PBDPBVKFbxImplementation@1@PBVKFbxObject@1@00@Z
   ??$RegisterFbxClass@VKFbxImporter@fbxsdk_20102@@VKFbxIO@2@@KFbxSdkManager@fbxsdk_20102@@QAE?AVkFbxClassId@1@PBDPBVKFbxImporter@1@PBVKFbxIO@1@00@Z
   ??$RegisterFbxClass@VKFbxIO@fbxsdk_20102@@VKFbxObject@2@@KFbxSdkManager@fbxsdk_20102@@QAE?AVkFbxClassId@1@PBDPBVKFbxIO@1@PBVKFbxObject@1@00@Z
   ??$RegisterFbxClass@VKFbxIOSettings@fbxsdk_20102@@VKFbxObject@2@@KFbxSdkManager@fbxsdk_20102@@QAE?AVkFbxClassId@1@PBDPBVKFbxIOSettings@1@PBVKFbxObject@1@00@Z
   ??$RegisterFbxClass@VKFbxKFCurveFilterConstantKeyReducer@fbxsdk_20102@@VKFbxKFCurveFilters@2@@KFbxSdkManager@fbxsdk_20102@@QAE?AVkFbxClassId@1@PBDPBVKFbxKFCurveFilterConstantKeyReducer@1@PBVKFbxKFCurveFilters@1@00@Z
   ??$RegisterFbxClass@VKFbxKFCurveFilterMatrixConverter@fbxsdk_20102@@VKFbxKFCurveFilters@2@@KFbxSdkManager@fbxsdk_20102@@QAE?AVkFbxClassId@1@PBDPBVKFbxKFCurveFilterMatrixConverter@1@PBVKFbxKFCurveFilters@1@00@Z
   ??$RegisterFbxClass@VKFbxKFCurveFilterResample@fbxsdk_20102@@VKFbxKFCurveFilters@2@@KFbxSdkManager@fbxsdk_20102@@QAE?AVkFbxClassId@1@PBDPBVKFbxKFCurveFilterResample@1@PBVKFbxKFCurveFilters@1@00@Z
   ??$RegisterFbxClass@VKFbxKFCurveFilters@fbxsdk_20102@@VKFbxObject@2@@KFbxSdkManager@fbxsdk_20102@@QAE?AVkFbxClassId@1@PBDPBVKFbxKFCurveFilters@1@PBVKFbxObject@1@00@Z
   ??$RegisterFbxClass@VKFbxKFCurveFilterTSS@fbxsdk_20102@@VKFbxKFCurveFilters@2@@KFbxSdkManager@fbxsdk_20102@@QAE?AVkFbxClassId@1@PBDPBVKFbxKFCurveFilterTSS@1@PBVKFbxKFCurveFilters@1@00@Z
   ??$RegisterFbxClass@VKFbxKFCurveFilterUnroll@fbxsdk_20102@@VKFbxKFCurveFilters@2@@KFbxSdkManager@fbxsdk_20102@@QAE?AVkFbxClassId@1@PBDPBVKFbxKFCurveFilterUnroll@1@PBVKFbxKFCurveFilters@1@00@Z
   ??$RegisterFbxClass@VKFbxLayerContainer@fbxsdk_20102@@VKFbxNodeAttribute@2@@KFbxSdkManager@fbxsdk_20102@@QAE?AVkFbxClassId@1@PBDPBVKFbxLayerContainer@1@PBVKFbxNodeAttribute@1@00@Z
   ??$RegisterFbxClass@VKFbxLayeredTexture@fbxsdk_20102@@VKFbxTexture@2@@KFbxSdkManager@fbxsdk_20102@@QAE?AVkFbxClassId@1@PBDPBVKFbxLayeredTexture@1@PBVKFbxTexture@1@00@Z
   ??$RegisterFbxClass@VKFbxLibrary@fbxsdk_20102@@VKFbxDocument@2@@KFbxSdkManager@fbxsdk_20102@@QAE?AVkFbxClassId@1@PBDPBVKFbxLibrary@1@PBVKFbxDocument@1@00@Z
   ??$RegisterFbxClass@VKFbxLight@fbxsdk_20102@@VKFbxNodeAttribute@2@@KFbxSdkManager@fbxsdk_20102@@QAE?AVkFbxClassId@1@PBDPBVKFbxLight@1@PBVKFbxNodeAttribute@1@00@Z
   ??$RegisterFbxClass@VKFbxLodGroup@fbxsdk_20102@@VKFbxNodeAttribute@2@@KFbxSdkManager@fbxsdk_20102@@QAE?AVkFbxClassId@1@PBDPBVKFbxLodGroup@1@PBVKFbxNodeAttribute@1@00@Z
   ??$RegisterFbxClass@VKFbxMarker@fbxsdk_20102@@VKFbxNodeAttribute@2@@KFbxSdkManager@fbxsdk_20102@@QAE?AVkFbxClassId@1@PBDPBVKFbxMarker@1@PBVKFbxNodeAttribute@1@00@Z
   ??$RegisterFbxClass@VKFbxMesh@fbxsdk_20102@@VKFbxGeometry@2@@KFbxSdkManager@fbxsdk_20102@@QAE?AVkFbxClassId@1@PBDPBVKFbxMesh@1@PBVKFbxGeometry@1@00@Z
   ??$RegisterFbxClass@VKFbxNode@fbxsdk_20102@@VKFbxTakeNodeContainer@2@@KFbxSdkManager@fbxsdk_20102@@QAE?AVkFbxClassId@1@PBDPBVKFbxNode@1@PBVKFbxTakeNodeContainer@1@00@Z
   ??$RegisterFbxClass@VKFbxNodeAttribute@fbxsdk_20102@@VKFbxTakeNodeContainer@2@@KFbxSdkManager@fbxsdk_20102@@QAE?AVkFbxClassId@1@PBDPBVKFbxNodeAttribute@1@PBVKFbxTakeNodeContainer@1@00@Z
   ??$RegisterFbxClass@VKFbxNull@fbxsdk_20102@@VKFbxNodeAttribute@2@@KFbxSdkManager@fbxsdk_20102@@QAE?AVkFbxClassId@1@PBDPBVKFbxNull@1@PBVKFbxNodeAttribute@1@00@Z
   ??$RegisterFbxClass@VKFbxNurb@fbxsdk_20102@@VKFbxGeometry@2@@KFbxSdkManager@fbxsdk_20102@@QAE?AVkFbxClassId@1@PBDPBVKFbxNurb@1@PBVKFbxGeometry@1@00@Z
   ??$RegisterFbxClass@VKFbxNurbsCurve@fbxsdk_20102@@VKFbxGeometry@2@@KFbxSdkManager@fbxsdk_20102@@QAE?AVkFbxClassId@1@PBDPBVKFbxNurbsCurve@1@PBVKFbxGeometry@1@00@Z
   ??$RegisterFbxClass@VKFbxNurbsSurface@fbxsdk_20102@@VKFbxGeometry@2@@KFbxSdkManager@fbxsdk_20102@@QAE?AVkFbxClassId@1@PBDPBVKFbxNurbsSurface@1@PBVKFbxGeometry@1@00@Z
   ??$RegisterFbxClass@VKFbxObjectMetaData@fbxsdk_20102@@VKFbxObject@2@@KFbxSdkManager@fbxsdk_20102@@QAE?AVkFbxClassId@1@PBDPBVKFbxObjectMetaData@1@PBVKFbxObject@1@00@Z
   ??$RegisterFbxClass@VKFbxObjectThumbnailGenerator@fbxsdk_20102@@VKFbxThumbnailGenerator@2@@KFbxSdkManager@fbxsdk_20102@@QAE?AVkFbxClassId@1@PBDPBVKFbxObjectThumbnailGenerator@1@PBVKFbxThumbnailGenerator@1@00@Z
   ??$RegisterFbxClass@VKFbxOpticalReference@fbxsdk_20102@@VKFbxNodeAttribute@2@@KFbxSdkManager@fbxsdk_20102@@QAE?AVkFbxClassId@1@PBDPBVKFbxOpticalReference@1@PBVKFbxNodeAttribute@1@00@Z
   ??$RegisterFbxClass@VKFbxPatch@fbxsdk_20102@@VKFbxGeometry@2@@KFbxSdkManager@fbxsdk_20102@@QAE?AVkFbxClassId@1@PBDPBVKFbxPatch@1@PBVKFbxGeometry@1@00@Z
   ??$RegisterFbxClass@VKFbxPose@fbxsdk_20102@@VKFbxObject@2@@KFbxSdkManager@fbxsdk_20102@@QAE?AVkFbxClassId@1@PBDPBVKFbxPose@1@PBVKFbxObject@1@00@Z
   ??$RegisterFbxClass@VKFbxPreviewGenerator@fbxsdk_20102@@VKFbxObject@2@@KFbxSdkManager@fbxsdk_20102@@QAE?AVkFbxClassId@1@PBDPBVKFbxPreviewGenerator@1@PBVKFbxObject@1@00@Z
   ??$RegisterFbxClass@VKFbxProceduralGeometry@fbxsdk_20102@@VKFbxGeometry@2@@KFbxSdkManager@fbxsdk_20102@@QAE?AVkFbxClassId@1@PBDPBVKFbxProceduralGeometry@1@PBVKFbxGeometry@1@00@Z
   ??$RegisterFbxClass@VKFbxProcessor@fbxsdk_20102@@VKFbxObject@2@@KFbxSdkManager@fbxsdk_20102@@QAE?AVkFbxClassId@1@PBDPBVKFbxProcessor@1@PBVKFbxObject@1@00@Z
   ??$RegisterFbxClass@VKFbxProcessorShaderDependency@fbxsdk_20102@@VKFbxProcessor@2@@KFbxSdkManager@fbxsdk_20102@@QAE?AVkFbxClassId@1@PBDPBVKFbxProcessorShaderDependency@1@PBVKFbxProcessor@1@00@Z
   ??$RegisterFbxClass@VKFbxProcessorXRefCopy@fbxsdk_20102@@VKFbxProcessor@2@@KFbxSdkManager@fbxsdk_20102@@QAE?AVkFbxClassId@1@PBDPBVKFbxProcessorXRefCopy@1@PBVKFbxProcessor@1@00@Z
   ??$RegisterFbxClass@VKFbxProcessorXRefCopyUserLibrary@fbxsdk_20102@@VKFbxProcessorXRefCopy@2@@KFbxSdkManager@fbxsdk_20102@@QAE?AVkFbxClassId@1@PBDPBVKFbxProcessorXRefCopyUserLibrary@1@PBVKFbxProcessorXRefCopy@1@00@Z
   ??$RegisterFbxClass@VKFbxRawImage@fbxsdk_20102@@VKFbxImage@2@@KFbxSdkManager@fbxsdk_20102@@QAE?AVkFbxClassId@1@PBDPBVKFbxRawImage@1@PBVKFbxImage@1@00@Z
   ??$RegisterFbxClass@VKFbxScene@fbxsdk_20102@@VKFbxDocument@2@@KFbxSdkManager@fbxsdk_20102@@QAE?AVkFbxClassId@1@PBDPBVKFbxScene@1@PBVKFbxDocument@1@00@Z
   ??$RegisterFbxClass@VKFbxSelectionNode@fbxsdk_20102@@VKFbxObject@2@@KFbxSdkManager@fbxsdk_20102@@QAE?AVkFbxClassId@1@PBDPBVKFbxSelectionNode@1@PBVKFbxObject@1@00@Z
   ??$RegisterFbxClass@VKFbxSelectionSet@fbxsdk_20102@@VKFbxCollection@2@@KFbxSdkManager@fbxsdk_20102@@QAE?AVkFbxClassId@1@PBDPBVKFbxSelectionSet@1@PBVKFbxCollection@1@00@Z
   ??$RegisterFbxClass@VKFbxShadingNode@fbxsdk_20102@@VKFbxShadingObject@2@@KFbxSdkManager@fbxsdk_20102@@QAE?AVkFbxClassId@1@PBDPBVKFbxShadingNode@1@PBVKFbxShadingObject@1@00@Z
   ??$RegisterFbxClass@VKFbxShadingObject@fbxsdk_20102@@VKFbxTakeNodeContainer@2@@KFbxSdkManager@fbxsdk_20102@@QAE?AVkFbxClassId@1@PBDPBVKFbxShadingObject@1@PBVKFbxTakeNodeContainer@1@00@Z
   ??$RegisterFbxClass@VKFbxShape@fbxsdk_20102@@VKFbxGeometryBase@2@@KFbxSdkManager@fbxsdk_20102@@QAE?AVkFbxClassId@1@PBDPBVKFbxShape@1@PBVKFbxGeometryBase@1@00@Z
   ??$RegisterFbxClass@VKFbxSkeleton@fbxsdk_20102@@VKFbxNodeAttribute@2@@KFbxSdkManager@fbxsdk_20102@@QAE?AVkFbxClassId@1@PBDPBVKFbxSkeleton@1@PBVKFbxNodeAttribute@1@00@Z
   ??$RegisterFbxClass@VKFbxSkin@fbxsdk_20102@@VKFbxDeformer@2@@KFbxSdkManager@fbxsdk_20102@@QAE?AVkFbxClassId@1@PBDPBVKFbxSkin@1@PBVKFbxDeformer@1@00@Z
   ??$RegisterFbxClass@VKFbxStreamOptions@fbxsdk_20102@@VKFbxObject@2@@KFbxSdkManager@fbxsdk_20102@@QAE?AVkFbxClassId@1@PBDPBVKFbxStreamOptions@1@PBVKFbxObject@1@00@Z
   ??$RegisterFbxClass@VKFbxStreamOptions3dsReader@fbxsdk_20102@@VKFbxStreamOptions@2@@KFbxSdkManager@fbxsdk_20102@@QAE?AVkFbxClassId@1@PBDPBVKFbxStreamOptions3dsReader@1@PBVKFbxStreamOptions@1@00@Z
   ??$RegisterFbxClass@VKFbxStreamOptions3dsWriter@fbxsdk_20102@@VKFbxStreamOptions@2@@KFbxSdkManager@fbxsdk_20102@@QAE?AVkFbxClassId@1@PBDPBVKFbxStreamOptions3dsWriter@1@PBVKFbxStreamOptions@1@00@Z
   ??$RegisterFbxClass@VKFbxStreamOptionsColladaReader@fbxsdk_20102@@VKFbxStreamOptions@2@@KFbxSdkManager@fbxsdk_20102@@QAE?AVkFbxClassId@1@PBDPBVKFbxStreamOptionsColladaReader@1@PBVKFbxStreamOptions@1@00@Z
   ??$RegisterFbxClass@VKFbxStreamOptionsColladaWriter@fbxsdk_20102@@VKFbxStreamOptions@2@@KFbxSdkManager@fbxsdk_20102@@QAE?AVkFbxClassId@1@PBDPBVKFbxStreamOptionsColladaWriter@1@PBVKFbxStreamOptions@1@00@Z
   ??$RegisterFbxClass@VKFbxStreamOptionsDxfReader@fbxsdk_20102@@VKFbxStreamOptions@2@@KFbxSdkManager@fbxsdk_20102@@QAE?AVkFbxClassId@1@PBDPBVKFbxStreamOptionsDxfReader@1@PBVKFbxStreamOptions@1@00@Z
   ??$RegisterFbxClass@VKFbxStreamOptionsDxfWriter@fbxsdk_20102@@VKFbxStreamOptions@2@@KFbxSdkManager@fbxsdk_20102@@QAE?AVkFbxClassId@1@PBDPBVKFbxStreamOptionsDxfWriter@1@PBVKFbxStreamOptions@1@00@Z
   ??$RegisterFbxClass@VKFbxStreamOptionsFbxReader@fbxsdk_20102@@VKFbxStreamOptions@2@@KFbxSdkManager@fbxsdk_20102@@QAE?AVkFbxClassId@1@PBDPBVKFbxStreamOptionsFbxReader@1@PBVKFbxStreamOptions@1@00@Z
   ??$RegisterFbxClass@VKFbxStreamOptionsFbxWriter@fbxsdk_20102@@VKFbxStreamOptions@2@@KFbxSdkManager@fbxsdk_20102@@QAE?AVkFbxClassId@1@PBDPBVKFbxStreamOptionsFbxWriter@1@PBVKFbxStreamOptions@1@00@Z
   ??$RegisterFbxClass@VKFbxStreamOptionsMotionReader@fbxsdk_20102@@VKFbxStreamOptions@2@@KFbxSdkManager@fbxsdk_20102@@QAE?AVkFbxClassId@1@PBDPBVKFbxStreamOptionsMotionReader@1@PBVKFbxStreamOptions@1@00@Z
   ??$RegisterFbxClass@VKFbxStreamOptionsMotionWriter@fbxsdk_20102@@VKFbxStreamOptions@2@@KFbxSdkManager@fbxsdk_20102@@QAE?AVkFbxClassId@1@PBDPBVKFbxStreamOptionsMotionWriter@1@PBVKFbxStreamOptions@1@00@Z
   ??$RegisterFbxClass@VKFbxStreamOptionsObjReader@fbxsdk_20102@@VKFbxStreamOptions@2@@KFbxSdkManager@fbxsdk_20102@@QAE?AVkFbxClassId@1@PBDPBVKFbxStreamOptionsObjReader@1@PBVKFbxStreamOptions@1@00@Z
   ??$RegisterFbxClass@VKFbxStreamOptionsObjWriter@fbxsdk_20102@@VKFbxStreamOptions@2@@KFbxSdkManager@fbxsdk_20102@@QAE?AVkFbxClassId@1@PBDPBVKFbxStreamOptionsObjWriter@1@PBVKFbxStreamOptions@1@00@Z
   ??$RegisterFbxClass@VKFbxSubDeformer@fbxsdk_20102@@VKFbxTakeNodeContainer@2@@KFbxSdkManager@fbxsdk_20102@@QAE?AVkFbxClassId@1@PBDPBVKFbxSubDeformer@1@PBVKFbxTakeNodeContainer@1@00@Z
   ??$RegisterFbxClass@VKFbxSubdiv@fbxsdk_20102@@VKFbxGeometry@2@@KFbxSdkManager@fbxsdk_20102@@QAE?AVkFbxClassId@1@PBDPBVKFbxSubdiv@1@PBVKFbxGeometry@1@00@Z
   ??$RegisterFbxClass@VKFbxSurfaceLambert@fbxsdk_20102@@VKFbxSurfaceMaterial@2@@KFbxSdkManager@fbxsdk_20102@@QAE?AVkFbxClassId@1@PBDPBVKFbxSurfaceLambert@1@PBVKFbxSurfaceMaterial@1@00@Z
   ??$RegisterFbxClass@VKFbxSurfaceMaterial@fbxsdk_20102@@VKFbxShadingObject@2@@KFbxSdkManager@fbxsdk_20102@@QAE?AVkFbxClassId@1@PBDPBVKFbxSurfaceMaterial@1@PBVKFbxShadingObject@1@00@Z
   ??$RegisterFbxClass@VKFbxSurfacePhong@fbxsdk_20102@@VKFbxSurfaceMaterial@2@@KFbxSdkManager@fbxsdk_20102@@QAE?AVkFbxClassId@1@PBDPBVKFbxSurfacePhong@1@PBVKFbxSurfaceMaterial@1@00@Z
   ??$RegisterFbxClass@VKFbxSwatchScene@fbxsdk_20102@@VKFbxObject@2@@KFbxSdkManager@fbxsdk_20102@@QAE?AVkFbxClassId@1@PBDPBVKFbxSwatchScene@1@PBVKFbxObject@1@00@Z
   ??$RegisterFbxClass@VKFbxTakeNodeContainer@fbxsdk_20102@@VKFbxObject@2@@KFbxSdkManager@fbxsdk_20102@@QAE?AVkFbxClassId@1@PBDPBVKFbxTakeNodeContainer@1@PBVKFbxObject@1@00@Z
   ??$RegisterFbxClass@VKFbxTexture@fbxsdk_20102@@VKFbxShadingNode@2@@KFbxSdkManager@fbxsdk_20102@@QAE?AVkFbxClassId@1@PBDPBVKFbxTexture@1@PBVKFbxShadingNode@1@00@Z
   ??$RegisterFbxClass@VKFbxThumbnail@fbxsdk_20102@@VKFbxObject@2@@KFbxSdkManager@fbxsdk_20102@@QAE?AVkFbxClassId@1@PBDPBVKFbxThumbnail@1@PBVKFbxObject@1@00@Z
   ??$RegisterFbxClass@VKFbxThumbnailGenerator@fbxsdk_20102@@VKFbxPreviewGenerator@2@@KFbxSdkManager@fbxsdk_20102@@QAE?AVkFbxClassId@1@PBDPBVKFbxThumbnailGenerator@1@PBVKFbxPreviewGenerator@1@00@Z
   ??$RegisterFbxClass@VKFbxTiledImage@fbxsdk_20102@@VKFbxImage@2@@KFbxSdkManager@fbxsdk_20102@@QAE?AVkFbxClassId@1@PBDPBVKFbxTiledImage@1@PBVKFbxImage@1@00@Z
   ??$RegisterFbxClass@VKFbxTrimNurbsSurface@fbxsdk_20102@@VKFbxGeometry@2@@KFbxSdkManager@fbxsdk_20102@@QAE?AVkFbxClassId@1@PBDPBVKFbxTrimNurbsSurface@1@PBVKFbxGeometry@1@00@Z
   ??$RegisterFbxClass@VKFbxUIDefinition@fbxsdk_20102@@VKFbxUIObject@2@@KFbxSdkManager@fbxsdk_20102@@QAE?AVkFbxClassId@1@PBDPBVKFbxUIDefinition@1@PBVKFbxUIObject@1@00@Z
   ??$RegisterFbxClass@VKFbxUIImporter@fbxsdk_20102@@VKFbxImporter@2@@KFbxSdkManager@fbxsdk_20102@@QAE?AVkFbxClassId@1@PBDPBVKFbxUIImporter@1@PBVKFbxImporter@1@00@Z
   ??$RegisterFbxClass@VKFbxUIObject@fbxsdk_20102@@VKFbxObject@2@@KFbxSdkManager@fbxsdk_20102@@QAE?AVkFbxClassId@1@PBDPBVKFbxUIObject@1@PBVKFbxObject@1@00@Z
   ??$RegisterFbxClass@VKFbxUIWidgetDefinition@fbxsdk_20102@@VKFbxUIObject@2@@KFbxSdkManager@fbxsdk_20102@@QAE?AVkFbxClassId@1@PBDPBVKFbxUIWidgetDefinition@1@PBVKFbxUIObject@1@00@Z
   ??$RegisterFbxClass@VKFbxVertexCacheDeformer@fbxsdk_20102@@VKFbxDeformer@2@@KFbxSdkManager@fbxsdk_20102@@QAE?AVkFbxClassId@1@PBDPBVKFbxVertexCacheDeformer@1@PBVKFbxDeformer@1@00@Z
   ??$RegisterFbxClass@VKFbxVideo@fbxsdk_20102@@VKFbxTakeNodeContainer@2@@KFbxSdkManager@fbxsdk_20102@@QAE?AVkFbxClassId@1@PBDPBVKFbxVideo@1@PBVKFbxTakeNodeContainer@1@00@Z
   ??$RegisterRuntimeFbxClass@VKFbxGeometry@fbxsdk_20102@@@KFbxSdkManager@fbxsdk_20102@@QAE?AVkFbxClassId@1@PBDPBVKFbxGeometry@1@00@Z
   ??$RegisterRuntimeFbxClass@VKFbxNodeAttribute@fbxsdk_20102@@@KFbxSdkManager@fbxsdk_20102@@QAE?AVkFbxClassId@1@PBDPBVKFbxNodeAttribute@1@00@Z
   ??$RegisterRuntimeFbxClass@VKFbxTakeNodeContainer@fbxsdk_20102@@@KFbxSdkManager@fbxsdk_20102@@QAE?AVkFbxClassId@1@PBDPBVKFbxTakeNodeContainer@1@00@Z
   ??$RegisterRuntimeFbxClass@VKFbxUIWidgetDefinition@fbxsdk_20102@@@KFbxSdkManager@fbxsdk_20102@@QAE?AVkFbxClassId@1@PBDPBVKFbxUIWidgetDefinition@1@00@Z
   ??$Release@H@KFbxLayerElementArray@fbxsdk_20102@@QAEXPAPAHPAH@Z
   ??$Release@N@KFbxLayerElementArray@fbxsdk_20102@@QAEXPAPANPAN@Z
   ??$Release@PAVKFbxSurfaceMaterial@fbxsdk_20102@@@KFbxLayerElementArray@fbxsdk_20102@@QAEXPAPAPAVKFbxSurfaceMaterial@1@PAPAV21@@Z
   ??$Release@VKFbxVector2@fbxsdk_20102@@@KFbxLayerElementArray@fbxsdk_20102@@QAEXPAPAVKFbxVector2@1@PAV21@@Z
   ??$Release@VKFbxVector4@fbxsdk_20102@@@KFbxLayerElementArray@fbxsdk_20102@@QAEXPAPAVKFbxVector4@1@PAV21@@Z
   ??$RemoveAt@_N@KFbxLayerElementArray@fbxsdk_20102@@QAEXHPA_N@Z
   ??$RemoveAt@H@KFbxLayerElementArray@fbxsdk_20102@@QAEXHPAH@Z
   ??$RemoveAt@M@KFbxLayerElementArray@fbxsdk_20102@@QAEXHPAM@Z
   ??$RemoveAt@N@KFbxLayerElementArray@fbxsdk_20102@@QAEXHPAN@Z
   ??$RemoveAt@PAVKFbxTexture@fbxsdk_20102@@@KFbxLayerElementArray@fbxsdk_20102@@QAEXHPAPAVKFbxTexture@1@@Z
   ??$RemoveAt@VKFbxColor@fbxsdk_20102@@@KFbxLayerElementArray@fbxsdk_20102@@QAEXHPAVKFbxColor@1@@Z
   ??$RemoveAt@VKFbxVector2@fbxsdk_20102@@@KFbxLayerElementArray@fbxsdk_20102@@QAEXHPAVKFbxVector2@1@@Z
   ??$RemoveAt@VKFbxVector4@fbxsdk_20102@@@KFbxLayerElementArray@fbxsdk_20102@@QAEXHPAVKFbxVector4@1@@Z
   ??$RemoveObjectsOfType@PAVKFbxCluster@fbxsdk_20102@@@KFbxSdkManager@fbxsdk_20102@@AAEXAAV?$KArrayTemplate@PAVKFbxCluster@fbxsdk_20102@@@1@VkFbxClassId@1@@Z
   ??$RemoveObjectsOfType@PAVKFbxDocument@fbxsdk_20102@@@KFbxSdkManager@fbxsdk_20102@@AAEXAAV?$KArrayTemplate@PAVKFbxDocument@fbxsdk_20102@@@1@VkFbxClassId@1@@Z
   ??$RemoveObjectsOfType@PAVKFbxImageConverter@fbxsdk_20102@@@KFbxSdkManager@fbxsdk_20102@@AAEXAAV?$KArrayTemplate@PAVKFbxImageConverter@fbxsdk_20102@@@1@VkFbxClassId@1@@Z
   ??$RemoveObjectsOfType@PAVKFbxNode@fbxsdk_20102@@@KFbxSdkManager@fbxsdk_20102@@AAEXAAV?$KArrayTemplate@PAVKFbxNode@fbxsdk_20102@@@1@VkFbxClassId@1@@Z
   ??$RemoveObjectsOfType@PAVKFbxObject@fbxsdk_20102@@@KFbxSdkManager@fbxsdk_20102@@AAEXAAV?$KArrayTemplate@PAVKFbxObject@fbxsdk_20102@@@1@VkFbxClassId@1@@Z
   ??$RemoveObjectsOfType@PAVKFbxScene@fbxsdk_20102@@@KFbxSdkManager@fbxsdk_20102@@AAEXAAV?$KArrayTemplate@PAVKFbxScene@fbxsdk_20102@@@1@VkFbxClassId@1@@Z
   ??$RemoveObjectsOfType@PAVKFbxSurfaceMaterial@fbxsdk_20102@@@KFbxSdkManager@fbxsdk_20102@@AAEXAAV?$KArrayTemplate@PAVKFbxSurfaceMaterial@fbxsdk_20102@@@1@VkFbxClassId@1@@Z
   ??$RemoveObjectsOfType@PAVKFbxTexture@fbxsdk_20102@@@KFbxSdkManager@fbxsdk_20102@@AAEXAAV?$KArrayTemplate@PAVKFbxTexture@fbxsdk_20102@@@1@VkFbxClassId@1@@Z
   ??$SegmentFEB@P6A_NH_NPAX@Z@KBitSetForEachImpl@fbxsdk_20102@@SA_NAAVKBitSegment@KBitSet@1@AAP6A_NH_NPAX@Z2PAH4PA_N@Z
   ??$SegmentFEB@VKFindNextSetBit@fbxsdk_20102@@@KBitSetForEachImpl@fbxsdk_20102@@SA_NAAVKBitSegment@KBitSet@1@AAVKFindNextSetBit@1@PAXPAH3PA_N@Z
   ??$Set@_J@KFbxProperty@fbxsdk_20102@@QAE_NAB_J@Z
   ??$Set@_K@KFbxProperty@fbxsdk_20102@@QAE_NAB_K@Z
   ??$Set@_N@KFbxProperty@fbxsdk_20102@@QAE_NAB_N@Z
   ??$Set@D@KFbxProperty@fbxsdk_20102@@QAE_NABD@Z
   ??$Set@E@KFbxProperty@fbxsdk_20102@@QAE_NABE@Z
   ??$Set@F@KFbxProperty@fbxsdk_20102@@QAE_NABF@Z
   ??$Set@G@KFbxProperty@fbxsdk_20102@@QAE_NABG@Z
   ??$Set@H@KFbxProperty@fbxsdk_20102@@QAE_NABH@Z
   ??$Set@I@KFbxProperty@fbxsdk_20102@@QAE_NABI@Z
   ??$Set@M@KFbxProperty@fbxsdk_20102@@QAE_NABM@Z
   ??$Set@N@KFbxProperty@fbxsdk_20102@@QAE_NABN@Z
   ??$Set@V?$fbxVectorTemplate2@N@fbxsdk_20102@@@KFbxProperty@fbxsdk_20102@@QAE_NABV?$fbxVectorTemplate2@N@1@@Z
   ??$Set@V?$fbxVectorTemplate3@N@fbxsdk_20102@@@KFbxProperty@fbxsdk_20102@@QAE_NABV?$fbxVectorTemplate3@N@1@@Z
   ??$Set@V?$fbxVectorTemplate4@N@fbxsdk_20102@@@KFbxProperty@fbxsdk_20102@@QAE_NABV?$fbxVectorTemplate4@N@1@@Z
   ??$Set@V?$fbxVectorTemplate4@V?$fbxVectorTemplate4@N@fbxsdk_20102@@@fbxsdk_20102@@@KFbxProperty@fbxsdk_20102@@QAE_NABV?$fbxVectorTemplate4@V?$fbxVectorTemplate4@N@fbxsdk_20102@@@1@@Z
   ??$Set@VfbxBlob@fbxsdk_20102@@@KFbxProperty@fbxsdk_20102@@QAE_NABVfbxBlob@1@@Z
   ??$Set@VfbxDateTime@fbxsdk_20102@@@KFbxProperty@fbxsdk_20102@@QAE_NABVfbxDateTime@1@@Z
   ??$Set@VfbxDistance@fbxsdk_20102@@@KFbxProperty@fbxsdk_20102@@QAE_NABVfbxDistance@1@@Z
   ??$Set@VfbxHalfFloat@fbxsdk_20102@@@KFbxProperty@fbxsdk_20102@@QAE_NABVfbxHalfFloat@1@@Z
   ??$Set@VKFbxColor@fbxsdk_20102@@@KFbxProperty@fbxsdk_20102@@QAE_NABVKFbxColor@1@@Z
   ??$Set@VKFbxVector4@fbxsdk_20102@@@KFbxProperty@fbxsdk_20102@@QAE_NABVKFbxVector4@1@@Z
   ??$Set@VKString@fbxsdk_20102@@@KFbxProperty@fbxsdk_20102@@QAE_NABVKString@1@@Z
   ??$Set@VKTime@fbxsdk_20102@@@KFbxProperty@fbxsdk_20102@@QAE_NABVKTime@1@@Z
   ??$Set@W4EDisplayLevel@KFbxLodGroup@fbxsdk_20102@@@KFbxProperty@fbxsdk_20102@@QAE_NABW4EDisplayLevel@KFbxLodGroup@1@@Z
   ??$SetAt@_N@KFbxLayerElementArray@fbxsdk_20102@@QAEXHAB_N@Z
   ??$SetAt@H@KFbxLayerElementArray@fbxsdk_20102@@QAEXHABH@Z
   ??$SetAt@M@KFbxLayerElementArray@fbxsdk_20102@@QAEXHABM@Z
   ??$SetAt@N@KFbxLayerElementArray@fbxsdk_20102@@QAEXHABN@Z
   ??$SetAt@PAVKFbxSurfaceMaterial@fbxsdk_20102@@@KFbxLayerElementArray@fbxsdk_20102@@QAEXHABQAVKFbxSurfaceMaterial@1@@Z
   ??$SetAt@PAVKFbxTexture@fbxsdk_20102@@@KFbxLayerElementArray@fbxsdk_20102@@QAEXHABQAVKFbxTexture@1@@Z
   ??$SetAt@VKFbxColor@fbxsdk_20102@@@KFbxLayerElementArray@fbxsdk_20102@@QAEXHABVKFbxColor@1@@Z
   ??$SetAt@VKFbxVector2@fbxsdk_20102@@@KFbxLayerElementArray@fbxsdk_20102@@QAEXHABVKFbxVector2@1@@Z
   ??$SetAt@VKFbxVector4@fbxsdk_20102@@@KFbxLayerElementArray@fbxsdk_20102@@QAEXHABVKFbxVector4@1@@Z
   ??$SetLast@H@KFbxLayerElementArray@fbxsdk_20102@@QAEXABH@Z
   ??$SetMax@N@KFbxPropertyHandle@fbxsdk_20102@@QAE_NABN@Z
   ??$SetMin@N@KFbxPropertyHandle@fbxsdk_20102@@QAE_NABN@Z
   ??$SetPropertyValue@H@?A0x7e486995@fbxsdk_20102@@YA_NAAVKFbxObject@1@PBDABH@Z
   ??$SizeOfStoredItems@_J@fbxsdk_20102@@YAHPA_J@Z
   ??$SizeOfStoredItems@_K@fbxsdk_20102@@YAHPA_K@Z
   ??$SizeOfStoredItems@_N@fbxsdk_20102@@YAHPA_N@Z
   ??$SizeOfStoredItems@C@fbxsdk_20102@@YAHPAC@Z
   ??$SizeOfStoredItems@E@fbxsdk_20102@@YAHPAE@Z
   ??$SizeOfStoredItems@F@fbxsdk_20102@@YAHPAF@Z
   ??$SizeOfStoredItems@G@fbxsdk_20102@@YAHPAG@Z
   ??$SizeOfStoredItems@H@fbxsdk_20102@@YAHPAH@Z
   ??$SizeOfStoredItems@I@fbxsdk_20102@@YAHPAI@Z
   ??$SizeOfStoredItems@M@fbxsdk_20102@@YAHPAM@Z
   ??$SizeOfStoredItems@N@fbxsdk_20102@@YAHPAN@Z
   ??$sort@PAPAVInitializer@awUtil@fbxsdk_20102@@VCountOrdering@?A0x1cd43906@3@@std@@YAXPAPAVInitializer@awUtil@fbxsdk_20102@@0VCountOrdering@?A0x1cd43906@3@@Z
   ??$sort@PAVCString@awString@fbxsdk_20102@@@std@@YAXPAVCString@awString@fbxsdk_20102@@0@Z
   ??$sort_heap@PAPAVInitializer@awUtil@fbxsdk_20102@@VCountOrdering@?A0x1cd43906@3@@std@@YAXPAPAVInitializer@awUtil@fbxsdk_20102@@0VCountOrdering@?A0x1cd43906@3@@Z
   ??$sort_heap@PAVCString@awString@fbxsdk_20102@@@std@@YAXPAVCString@awString@fbxsdk_20102@@0@Z
   ??$swap@PAVInitializer@awUtil@fbxsdk_20102@@@std@@YAXAAPAVInitializer@awUtil@fbxsdk_20102@@0@Z
   ??$swap@PAVIString@awString@fbxsdk_20102@@@std@@YAXAAPAVIString@awString@fbxsdk_20102@@0@Z
   ??$swap@UMemoryBlock@?A0xefc851d3@fbxsdk_20102@@@std@@YAXAAUMemoryBlock@?A0xefc851d3@fbxsdk_20102@@0@Z
   ??$swap@VCString@awString@fbxsdk_20102@@@std@@YAXAAVCString@awString@fbxsdk_20102@@0@Z
   ??$unchecked_copy@PAPAVawCacheData@fbxsdk_20102@@PAPAV12@@stdext@@YAPAPAVawCacheData@fbxsdk_20102@@PAPAV12@00@Z
   ??$unchecked_copy@PAPAVThread@awThread@fbxsdk_20102@@PAPAV123@@stdext@@YAPAPAVThread@awThread@fbxsdk_20102@@PAPAV123@00@Z
   ??$unchecked_copy@PAUMemoryBlock@?A0xefc851d3@fbxsdk_20102@@PAU123@@stdext@@YAPAUMemoryBlock@?A0xefc851d3@fbxsdk_20102@@PAU123@00@Z
   ??$unchecked_copy_backward@PAPAVInitializer@awUtil@fbxsdk_20102@@PAPAV123@@stdext@@YAPAPAVInitializer@awUtil@fbxsdk_20102@@PAPAV123@00@Z
   ??$unchecked_copy_backward@PAVCString@awString@fbxsdk_20102@@PAV123@@stdext@@YAPAVCString@awString@fbxsdk_20102@@PAV123@00@Z
   ??$unchecked_fill_n@PAPAPAU_xmlNode@fbxsdk_20102@@IPAPAU12@@stdext@@YAXPAPAPAU_xmlNode@fbxsdk_20102@@IABQAPAU12@@Z
   ??$unchecked_fill_n@PAPAPAVInitializer@awUtil@fbxsdk_20102@@IPAPAV123@@stdext@@YAXPAPAPAVInitializer@awUtil@fbxsdk_20102@@IABQAPAV123@@Z
   ??$unchecked_fill_n@PAPAVawCacheChannel@fbxsdk_20102@@IPAV12@@stdext@@YAXPAPAVawCacheChannel@fbxsdk_20102@@IABQAV12@@Z
   ??$unchecked_fill_n@PAPAVawCacheData@fbxsdk_20102@@IPAV12@@stdext@@YAXPAPAVawCacheData@fbxsdk_20102@@IABQAV12@@Z
   ??$unchecked_fill_n@PAPAVKFbxDocument@fbxsdk_20102@@IPAV12@@stdext@@YAXPAPAVKFbxDocument@fbxsdk_20102@@IABQAV12@@Z
   ??$unchecked_fill_n@PAPAVKFbxNode@fbxsdk_20102@@IPAV12@@stdext@@YAXPAPAVKFbxNode@fbxsdk_20102@@IABQAV12@@Z
   ??$unchecked_fill_n@PAPAVKFbxProperty@fbxsdk_20102@@IPAV12@@stdext@@YAXPAPAVKFbxProperty@fbxsdk_20102@@IABQAV12@@Z
   ??$unchecked_fill_n@PAPAVThread@awThread@fbxsdk_20102@@IPAV123@@stdext@@YAXPAPAVThread@awThread@fbxsdk_20102@@IABQAV123@@Z
   ??$unchecked_uninitialized_copy@PAPAPAU_xmlNode@fbxsdk_20102@@PAPAPAU12@V?$allocator@PAPAU_xmlNode@fbxsdk_20102@@@std@@@stdext@@YAPAPAPAU_xmlNode@fbxsdk_20102@@PAPAPAU12@00AAV?$allocator@PAPAU_xmlNode@fbxsdk_20102@@@std@@@Z
   ??$unchecked_uninitialized_copy@PAPAPAVInitializer@awUtil@fbxsdk_20102@@PAPAPAV123@V?$allocator@PAPAVInitializer@awUtil@fbxsdk_20102@@@std@@@stdext@@YAPAPAPAVInitializer@awUtil@fbxsdk_20102@@PAPAPAV123@00AAV?$allocator@PAPAVInitializer@awUtil@fbxsdk_20102@@@std@@@Z
   ??$unchecked_uninitialized_copy@PAPAVawCacheChannel@fbxsdk_20102@@PAPAV12@V?$allocator@PAVawCacheChannel@fbxsdk_20102@@@std@@@stdext@@YAPAPAVawCacheChannel@fbxsdk_20102@@PAPAV12@00AAV?$allocator@PAVawCacheChannel@fbxsdk_20102@@@std@@@Z
   ??$unchecked_uninitialized_copy@PAPAVawCacheData@fbxsdk_20102@@PAPAV12@V?$allocator@PAVawCacheData@fbxsdk_20102@@@std@@@stdext@@YAPAPAVawCacheData@fbxsdk_20102@@PAPAV12@00AAV?$allocator@PAVawCacheData@fbxsdk_20102@@@std@@@Z
   ??$unchecked_uninitialized_copy@PAPAVKFbxDocument@fbxsdk_20102@@PAPAV12@V?$allocator@PAVKFbxDocument@fbxsdk_20102@@@std@@@stdext@@YAPAPAVKFbxDocument@fbxsdk_20102@@PAPAV12@00AAV?$allocator@PAVKFbxDocument@fbxsdk_20102@@@std@@@Z
   ??$unchecked_uninitialized_copy@PAPAVKFbxNode@fbxsdk_20102@@PAPAV12@V?$allocator@PAVKFbxNode@fbxsdk_20102@@@std@@@stdext@@YAPAPAVKFbxNode@fbxsdk_20102@@PAPAV12@00AAV?$allocator@PAVKFbxNode@fbxsdk_20102@@@std@@@Z
   ??$unchecked_uninitialized_copy@PAPAVKFbxProperty@fbxsdk_20102@@PAPAV12@V?$allocator@PAVKFbxProperty@fbxsdk_20102@@@std@@@stdext@@YAPAPAVKFbxProperty@fbxsdk_20102@@PAPAV12@00AAV?$allocator@PAVKFbxProperty@fbxsdk_20102@@@std@@@Z
   ??$unchecked_uninitialized_copy@PAPAVThread@awThread@fbxsdk_20102@@PAPAV123@V?$allocator@PAVThread@awThread@fbxsdk_20102@@@std@@@stdext@@YAPAPAVThread@awThread@fbxsdk_20102@@PAPAV123@00AAV?$allocator@PAVThread@awThread@fbxsdk_20102@@@std@@@Z
   ??$unchecked_uninitialized_copy@PAUMemoryBlock@?A0xefc851d3@fbxsdk_20102@@PAU123@V?$allocator@UMemoryBlock@?A0xefc851d3@fbxsdk_20102@@@std@@@stdext@@YAPAUMemoryBlock@?A0xefc851d3@fbxsdk_20102@@PAU123@00AAV?$allocator@UMemoryBlock@?A0xefc851d3@fbxsdk_20102@@@std@@@Z
   ??$unchecked_uninitialized_copy@PAUProgressState@?A0x88b70b57@fbxsdk_20102@@PAU123@V?$allocator@UProgressState@?A0x88b70b57@fbxsdk_20102@@@std@@@stdext@@YAPAUProgressState@?A0x88b70b57@fbxsdk_20102@@PAU123@00AAV?$allocator@UProgressState@?A0x88b70b57@fbxsdk_20102@@@std@@@Z
   ??$unchecked_uninitialized_copy@PAV?$KPair@HH@fbxsdk_20102@@PAV12@V?$allocator@V?$KPair@HH@fbxsdk_20102@@@std@@@stdext@@YAPAV?$KPair@HH@fbxsdk_20102@@PAV12@00AAV?$allocator@V?$KPair@HH@fbxsdk_20102@@@std@@@Z
   ??$unchecked_uninitialized_copy@PAVawCachePerChannelInfo@fbxsdk_20102@@PAV12@V?$allocator@VawCachePerChannelInfo@fbxsdk_20102@@@std@@@stdext@@YAPAVawCachePerChannelInfo@fbxsdk_20102@@PAV12@00AAV?$allocator@VawCachePerChannelInfo@fbxsdk_20102@@@std@@@Z
   ??$unchecked_uninitialized_copy@PAVIString@awString@fbxsdk_20102@@PAV123@V?$allocator@VIString@awString@fbxsdk_20102@@@std@@@stdext@@YAPAVIString@awString@fbxsdk_20102@@PAV123@00AAV?$allocator@VIString@awString@fbxsdk_20102@@@std@@@Z
   ??$unchecked_uninitialized_fill_n@PAPAPAU_xmlNode@fbxsdk_20102@@IPAPAU12@V?$allocator@PAPAU_xmlNode@fbxsdk_20102@@@std@@@stdext@@YAXPAPAPAU_xmlNode@fbxsdk_20102@@IABQAPAU12@AAV?$allocator@PAPAU_xmlNode@fbxsdk_20102@@@std@@@Z
   ??$unchecked_uninitialized_fill_n@PAPAPAVInitializer@awUtil@fbxsdk_20102@@IPAPAV123@V?$allocator@PAPAVInitializer@awUtil@fbxsdk_20102@@@std@@@stdext@@YAXPAPAPAVInitializer@awUtil@fbxsdk_20102@@IABQAPAV123@AAV?$allocator@PAPAVInitializer@awUtil@fbxsdk_20102@@@std@@@Z
   ??$unchecked_uninitialized_fill_n@PAPAVawCacheChannel@fbxsdk_20102@@IPAV12@V?$allocator@PAVawCacheChannel@fbxsdk_20102@@@std@@@stdext@@YAXPAPAVawCacheChannel@fbxsdk_20102@@IABQAV12@AAV?$allocator@PAVawCacheChannel@fbxsdk_20102@@@std@@@Z
   ??$unchecked_uninitialized_fill_n@PAPAVawCacheData@fbxsdk_20102@@IPAV12@V?$allocator@PAVawCacheData@fbxsdk_20102@@@std@@@stdext@@YAXPAPAVawCacheData@fbxsdk_20102@@IABQAV12@AAV?$allocator@PAVawCacheData@fbxsdk_20102@@@std@@@Z
   ??$unchecked_uninitialized_fill_n@PAPAVKFbxDocument@fbxsdk_20102@@IPAV12@V?$allocator@PAVKFbxDocument@fbxsdk_20102@@@std@@@stdext@@YAXPAPAVKFbxDocument@fbxsdk_20102@@IABQAV12@AAV?$allocator@PAVKFbxDocument@fbxsdk_20102@@@std@@@Z
   ??$unchecked_uninitialized_fill_n@PAPAVKFbxNode@fbxsdk_20102@@IPAV12@V?$allocator@PAVKFbxNode@fbxsdk_20102@@@std@@@stdext@@YAXPAPAVKFbxNode@fbxsdk_20102@@IABQAV12@AAV?$allocator@PAVKFbxNode@fbxsdk_20102@@@std@@@Z
   ??$unchecked_uninitialized_fill_n@PAPAVKFbxProperty@fbxsdk_20102@@IPAV12@V?$allocator@PAVKFbxProperty@fbxsdk_20102@@@std@@@stdext@@YAXPAPAVKFbxProperty@fbxsdk_20102@@IABQAV12@AAV?$allocator@PAVKFbxProperty@fbxsdk_20102@@@std@@@Z
   ??$unchecked_uninitialized_fill_n@PAPAVThread@awThread@fbxsdk_20102@@IPAV123@V?$allocator@PAVThread@awThread@fbxsdk_20102@@@std@@@stdext@@YAXPAPAVThread@awThread@fbxsdk_20102@@IABQAV123@AAV?$allocator@PAVThread@awThread@fbxsdk_20102@@@std@@@Z
   ??$unchecked_uninitialized_fill_n@PAUMemoryBlock@?A0xefc851d3@fbxsdk_20102@@IU123@V?$allocator@UMemoryBlock@?A0xefc851d3@fbxsdk_20102@@@std@@@stdext@@YAXPAUMemoryBlock@?A0xefc851d3@fbxsdk_20102@@IABU123@AAV?$allocator@UMemoryBlock@?A0xefc851d3@fbxsdk_20102@@@std@@@Z
   ??$unchecked_uninitialized_fill_n@PAUProgressState@?A0x88b70b57@fbxsdk_20102@@IU123@V?$allocator@UProgressState@?A0x88b70b57@fbxsdk_20102@@@std@@@stdext@@YAXPAUProgressState@?A0x88b70b57@fbxsdk_20102@@IABU123@AAV?$allocator@UProgressState@?A0x88b70b57@fbxsdk_20102@@@std@@@Z
   ??$unchecked_uninitialized_fill_n@PAV?$KPair@HH@fbxsdk_20102@@IV12@V?$allocator@V?$KPair@HH@fbxsdk_20102@@@std@@@stdext@@YAXPAV?$KPair@HH@fbxsdk_20102@@IABV12@AAV?$allocator@V?$KPair@HH@fbxsdk_20102@@@std@@@Z
   ??$unchecked_uninitialized_fill_n@PAVawCachePerChannelInfo@fbxsdk_20102@@IV12@V?$allocator@VawCachePerChannelInfo@fbxsdk_20102@@@std@@@stdext@@YAXPAVawCachePerChannelInfo@fbxsdk_20102@@IABV12@AAV?$allocator@VawCachePerChannelInfo@fbxsdk_20102@@@std@@@Z
   ??$unchecked_uninitialized_fill_n@PAVIString@awString@fbxsdk_20102@@IV123@V?$allocator@VIString@awString@fbxsdk_20102@@@std@@@stdext@@YAXPAVIString@awString@fbxsdk_20102@@IABV123@AAV?$allocator@VIString@awString@fbxsdk_20102@@@std@@@Z
   ??$WriteFbxObjects@VKFbxBindingOperator@fbxsdk_20102@@@KFbxWriterFbx7Impl@fbxsdk_20102@@AAE_NPAVKFbxDocument@1@PBVKFbxBindingOperator@1@@Z
   ??$WriteFbxObjects@VKFbxBindingTable@fbxsdk_20102@@@KFbxWriterFbx7Impl@fbxsdk_20102@@AAE_NPAVKFbxDocument@1@PBVKFbxBindingTable@1@@Z
   ??$WriteFbxObjects@VKFbxCache@fbxsdk_20102@@@KFbxWriterFbx7Impl@fbxsdk_20102@@AAE_NPAVKFbxDocument@1@PBVKFbxCache@1@@Z
   ??$WriteFbxObjects@VKFbxCluster@fbxsdk_20102@@@KFbxWriterFbx7Impl@fbxsdk_20102@@AAE_NPAVKFbxDocument@1@PBVKFbxCluster@1@@Z
   ??$WriteFbxObjects@VKFbxGenericNode@fbxsdk_20102@@@KFbxWriterFbx7Impl@fbxsdk_20102@@AAE_NPAVKFbxDocument@1@PBVKFbxGenericNode@1@@Z
   ??$WriteFbxObjects@VKFbxImplementation@fbxsdk_20102@@@KFbxWriterFbx7Impl@fbxsdk_20102@@AAE_NPAVKFbxDocument@1@PBVKFbxImplementation@1@@Z
   ??$WriteFbxObjects@VKFbxLayeredTexture@fbxsdk_20102@@@KFbxWriterFbx7Impl@fbxsdk_20102@@AAE_NPAVKFbxDocument@1@PBVKFbxLayeredTexture@1@@Z
   ??$WriteFbxObjects@VKFbxNode@fbxsdk_20102@@@KFbxWriterFbx7Impl@fbxsdk_20102@@AAE_NPAVKFbxDocument@1@PBVKFbxNode@1@@Z
   ??$WriteFbxObjects@VKFbxNodeAttribute@fbxsdk_20102@@@KFbxWriterFbx7Impl@fbxsdk_20102@@AAE_NPAVKFbxDocument@1@PBVKFbxNodeAttribute@1@@Z
   ??$WriteFbxObjects@VKFbxPose@fbxsdk_20102@@@KFbxWriterFbx7Impl@fbxsdk_20102@@AAE_NPAVKFbxDocument@1@PBVKFbxPose@1@@Z
   ??$WriteFbxObjects@VKFbxSkin@fbxsdk_20102@@@KFbxWriterFbx7Impl@fbxsdk_20102@@AAE_NPAVKFbxDocument@1@PBVKFbxSkin@1@@Z
   ??$WriteFbxObjects@VKFbxSurfaceMaterial@fbxsdk_20102@@@KFbxWriterFbx7Impl@fbxsdk_20102@@AAE_NPAVKFbxDocument@1@PBVKFbxSurfaceMaterial@1@@Z
   ??$WriteFbxObjects@VKFbxTexture@fbxsdk_20102@@@KFbxWriterFbx7Impl@fbxsdk_20102@@AAE_NPAVKFbxDocument@1@PBVKFbxTexture@1@@Z
   ??$WriteFbxObjects@VKFbxThumbnail@fbxsdk_20102@@@KFbxWriterFbx7Impl@fbxsdk_20102@@AAE_NPAVKFbxDocument@1@PBVKFbxThumbnail@1@@Z
   ??$WriteFbxObjects@VKFbxVertexCacheDeformer@fbxsdk_20102@@@KFbxWriterFbx7Impl@fbxsdk_20102@@AAE_NPAVKFbxDocument@1@PBVKFbxVertexCacheDeformer@1@@Z
   ??$WriteValueArray@_N@KFbxWriterFbx7Impl@fbxsdk_20102@@AAEXAAV?$KFbxLayerElementArrayTemplate@_N@1@@Z
   ??$WriteValueArray@_N@KFbxWriterFbx7Impl@fbxsdk_20102@@AAEXPBDAAV?$KFbxLayerElementArrayTemplate@_N@1@@Z
   ??$WriteValueArray@_N@KFbxWriterFbx7Impl@fbxsdk_20102@@AAEXPBDHPB_N@Z
   ??$WriteValueArray@E@KFbxWriterFbx7Impl@fbxsdk_20102@@AAEXPBDHPBE@Z
   ??$WriteValueArray@H@KFbxWriterFbx7Impl@fbxsdk_20102@@AAEXAAV?$KFbxLayerElementArrayTemplate@H@1@@Z
   ??$WriteValueArray@H@KFbxWriterFbx7Impl@fbxsdk_20102@@AAEXPBDAAV?$KFbxLayerElementArrayTemplate@H@1@@Z
   ??$WriteValueArray@H@KFbxWriterFbx7Impl@fbxsdk_20102@@AAEXPBDHPBH@Z
   ??$WriteValueArray@M@KFbxWriterFbx7Impl@fbxsdk_20102@@AAEXAAV?$KFbxLayerElementArrayTemplate@M@1@@Z
   ??$WriteValueArray@N@KFbxWriterFbx7Impl@fbxsdk_20102@@AAEXAAV?$KFbxLayerElementArrayTemplate@N@1@@Z
   ??$WriteValueArray@N@KFbxWriterFbx7Impl@fbxsdk_20102@@AAEXPBDHPBN@Z
   ??0?$fbxVectorTemplate2@N@fbxsdk_20102@@QAE@NN@Z
   ??0?$fbxVectorTemplate2@N@fbxsdk_20102@@QAE@XZ
   ??0?$fbxVectorTemplate3@N@fbxsdk_20102@@QAE@NNN@Z
   ??0?$fbxVectorTemplate3@N@fbxsdk_20102@@QAE@XZ
   ??0?$fbxVectorTemplate4@N@fbxsdk_20102@@QAE@NNNN@Z
   ??0?$fbxVectorTemplate4@N@fbxsdk_20102@@QAE@XZ
   ??0?$fbxVectorTemplate4@V?$fbxVectorTemplate4@N@fbxsdk_20102@@@fbxsdk_20102@@QAE@V?$fbxVectorTemplate4@N@1@000@Z
   ??0?$fbxVectorTemplate4@V?$fbxVectorTemplate4@N@fbxsdk_20102@@@fbxsdk_20102@@QAE@XZ
   ??0?$FunctionArg@PAVSignalClient@awRTB@fbxsdk_20102@@@awRTB@fbxsdk_20102@@QAE@XZ
   ??0?$FunctionArgMember@PAVSignalClient@awRTB@fbxsdk_20102@@VSignalBase@23@@awRTB@fbxsdk_20102@@QAE@PAVSignalBase@12@P8312@AEXPAVSignalClient@12@@Z@Z
   ??0?$FunctionCreator@VKFbxAddBOF@fbxsdk_20102@@@KFbxBindingOperator@fbxsdk_20102@@QAE@XZ
   ??0?$FunctionCreator@VKFbxAssignBOF@fbxsdk_20102@@@KFbxBindingOperator@fbxsdk_20102@@QAE@XZ
   ??0?$FunctionCreator@VKFbxConditionalBOF@fbxsdk_20102@@@KFbxBindingOperator@fbxsdk_20102@@QAE@XZ
   ??0?$FunctionCreator@VKFbxDegreeToRadian@fbxsdk_20102@@@KFbxBindingOperator@fbxsdk_20102@@QAE@XZ
   ??0?$FunctionCreator@VKFbxIsYup@fbxsdk_20102@@@KFbxBindingOperator@fbxsdk_20102@@QAE@XZ
   ??0?$FunctionCreator@VKFbxMultiplyBOF@fbxsdk_20102@@@KFbxBindingOperator@fbxsdk_20102@@QAE@XZ
   ??0?$FunctionCreator@VKFbxMultiplyDistBOF@fbxsdk_20102@@@KFbxBindingOperator@fbxsdk_20102@@QAE@XZ
   ??0?$FunctionCreator@VKFbxNodeDirectionBOF@fbxsdk_20102@@@KFbxBindingOperator@fbxsdk_20102@@QAE@XZ
   ??0?$FunctionCreator@VKFbxNodePositionBOF@fbxsdk_20102@@@KFbxBindingOperator@fbxsdk_20102@@QAE@XZ
   ??0?$FunctionCreator@VKFbxOneOverXBOF@fbxsdk_20102@@@KFbxBindingOperator@fbxsdk_20102@@QAE@XZ
   ??0?$FunctionCreator@VKFbxPowerBOF@fbxsdk_20102@@@KFbxBindingOperator@fbxsdk_20102@@QAE@XZ
   ??0?$FunctionCreator@VKFbxSphericalToCartesianBOF@fbxsdk_20102@@@KFbxBindingOperator@fbxsdk_20102@@QAE@XZ
   ??0?$FunctionCreator@VKFbxSpotDistributionChooserBOF@fbxsdk_20102@@@KFbxBindingOperator@fbxsdk_20102@@QAE@XZ
   ??0?$FunctionCreator@VKFbxSubstractBOF@fbxsdk_20102@@@KFbxBindingOperator@fbxsdk_20102@@QAE@XZ
   ??0?$FunctionCreator@VKFbxSwitchBOF@fbxsdk_20102@@@KFbxBindingOperator@fbxsdk_20102@@QAE@XZ
   ??0?$FunctionCreator@VKFbxSymbolIDBOF@fbxsdk_20102@@@KFbxBindingOperator@fbxsdk_20102@@QAE@XZ
   ??0?$FunctionCreator@VKFbxTRSToMatrixBOF@fbxsdk_20102@@@KFbxBindingOperator@fbxsdk_20102@@QAE@XZ
   ??0?$FunctionCreator@VKFbxVectorDegreeToVectorRadian@fbxsdk_20102@@@KFbxBindingOperator@fbxsdk_20102@@QAE@XZ
   ??0?$FunctionVoidMember@VThreadPoolImpl@?A0xfd60b238@fbxsdk_20102@@@awRTB@fbxsdk_20102@@QAE@PAVThreadPoolImpl@?A0xfd60b238@2@P8342@AEXXZ@Z
   ??0?$KArrayTemplate@_N@fbxsdk_20102@@QAE@XZ
   ??0?$KArrayTemplate@D@fbxsdk_20102@@QAE@XZ
   ??0?$KArrayTemplate@H@fbxsdk_20102@@QAE@ABV01@@Z
   ??0?$KArrayTemplate@H@fbxsdk_20102@@QAE@XZ
   ??0?$KArrayTemplate@I@fbxsdk_20102@@QAE@ABV01@@Z
   ??0?$KArrayTemplate@I@fbxsdk_20102@@QAE@XZ
   ??0?$KArrayTemplate@M@fbxsdk_20102@@QAE@ABV01@@Z
   ??0?$KArrayTemplate@M@fbxsdk_20102@@QAE@XZ
   ??0?$KArrayTemplate@N@fbxsdk_20102@@QAE@ABV01@@Z
   ??0?$KArrayTemplate@N@fbxsdk_20102@@QAE@XZ
   ??0?$KArrayTemplate@PA_W@fbxsdk_20102@@QAE@XZ
   ??0?$KArrayTemplate@PAD@fbxsdk_20102@@QAE@ABV01@@Z
   ??0?$KArrayTemplate@PAD@fbxsdk_20102@@QAE@XZ
   ??0?$KArrayTemplate@PAH@fbxsdk_20102@@QAE@ABV01@@Z
   ??0?$KArrayTemplate@PAH@fbxsdk_20102@@QAE@XZ
   ??0?$KArrayTemplate@PAI@fbxsdk_20102@@QAE@ABV01@@Z
   ??0?$KArrayTemplate@PAI@fbxsdk_20102@@QAE@XZ
   ??0?$KArrayTemplate@PAM@fbxsdk_20102@@QAE@ABV01@@Z
   ??0?$KArrayTemplate@PAM@fbxsdk_20102@@QAE@XZ
   ??0?$KArrayTemplate@PAN@fbxsdk_20102@@QAE@ABV01@@Z
   ??0?$KArrayTemplate@PAN@fbxsdk_20102@@QAE@XZ
   ??0?$KArrayTemplate@PAU_iobuf@@@fbxsdk_20102@@QAE@XZ
   ??0?$KArrayTemplate@PAU_xmlNode@fbxsdk_20102@@@fbxsdk_20102@@QAE@ABV01@@Z
   ??0?$KArrayTemplate@PAU_xmlNode@fbxsdk_20102@@@fbxsdk_20102@@QAE@XZ
   ??0?$KArrayTemplate@PAUcamera3ds@fbxsdk_20102@@@fbxsdk_20102@@QAE@XZ
   ??0?$KArrayTemplate@PAUFbx6TypeReadReferenceInfo@fbxsdk_20102@@@fbxsdk_20102@@QAE@XZ
   ??0?$KArrayTemplate@PAUKFbxPoseInfo@fbxsdk_20102@@@fbxsdk_20102@@QAE@XZ
   ??0?$KArrayTemplate@PAUKFbxTimeMarker@KFbxGlobalTimeSettings@fbxsdk_20102@@@fbxsdk_20102@@QAE@XZ
   ??0?$KArrayTemplate@PAUkfcamera3ds@fbxsdk_20102@@@fbxsdk_20102@@QAE@XZ
   ??0?$KArrayTemplate@PAUkfmesh3ds@fbxsdk_20102@@@fbxsdk_20102@@QAE@XZ
   ??0?$KArrayTemplate@PAUkfomni3ds@fbxsdk_20102@@@fbxsdk_20102@@QAE@XZ
   ??0?$KArrayTemplate@PAUkfspot3ds@fbxsdk_20102@@@fbxsdk_20102@@QAE@XZ
   ??0?$KArrayTemplate@PAUKLayerInfo@fbxsdk_20102@@@fbxsdk_20102@@QAE@XZ
   ??0?$KArrayTemplate@PAUKTypeObjectHierarchyInfo@fbxsdk_20102@@@fbxsdk_20102@@QAE@XZ
   ??0?$KArrayTemplate@PAUKTypeReadReferenceInfo@?A0xa88da042@fbxsdk_20102@@@fbxsdk_20102@@QAE@XZ
   ??0?$KArrayTemplate@PAUKTypeWriteReferenceInfo@?A0xce6eb6f4@fbxsdk_20102@@@fbxsdk_20102@@QAE@XZ
   ??0?$KArrayTemplate@PAUKTypeWriteReferenceInfo@fbxsdk_20102@@@fbxsdk_20102@@QAE@XZ
   ??0?$KArrayTemplate@PAUlight3ds@fbxsdk_20102@@@fbxsdk_20102@@QAE@XZ
   ??0?$KArrayTemplate@PAUmaterial3ds@fbxsdk_20102@@@fbxsdk_20102@@QAE@XZ
   ??0?$KArrayTemplate@PAUMaterialTexture@KFbxReaderCollada@fbxsdk_20102@@@fbxsdk_20102@@QAE@XZ
   ??0?$KArrayTemplate@PAUmesh3ds@fbxsdk_20102@@@fbxsdk_20102@@QAE@XZ
   ??0?$KArrayTemplate@PAUModifiedPropertyInfo@KFbxWriterFbx6@fbxsdk_20102@@@fbxsdk_20102@@QAE@XZ
   ??0?$KArrayTemplate@PAUMultiTex@KFbxReader3DS@fbxsdk_20102@@@fbxsdk_20102@@QAE@XZ
   ??0?$KArrayTemplate@PAUNameCell@KFbxRenamingStrategy@fbxsdk_20102@@@fbxsdk_20102@@QAE@XZ
   ??0?$KArrayTemplate@PAUNameCell@KNumberRenamingStrategy@fbxsdk_20102@@@fbxsdk_20102@@QAE@XZ
   ??0?$KArrayTemplate@PAUNameCell@KRenamingStrategy3DS@fbxsdk_20102@@@fbxsdk_20102@@QAE@XZ
   ??0?$KArrayTemplate@PAUReaderPluginEntry@KFbxIOPluginRegistry@fbxsdk_20102@@@fbxsdk_20102@@QAE@XZ
   ??0?$KArrayTemplate@PAUWriterPluginEntry@KFbxIOPluginRegistry@fbxsdk_20102@@@fbxsdk_20102@@QAE@XZ
   ??0?$KArrayTemplate@PAV?$KArrayTemplate@H@fbxsdk_20102@@@fbxsdk_20102@@QAE@XZ
   ??0?$KArrayTemplate@PAV?$KArrayTemplate@UKElement@KFbxWeightedMapping@fbxsdk_20102@@@fbxsdk_20102@@@fbxsdk_20102@@QAE@XZ
   ??0?$KArrayTemplate@PAV?$KArrayTemplate@VKDuplicateVertex@KFbxMesh@fbxsdk_20102@@@fbxsdk_20102@@@fbxsdk_20102@@QAE@XZ
   ??0?$KArrayTemplate@PAV?$KMap@HHU?$KFbxLessCompare@H@fbxsdk_20102@@VKBaseAllocator@2@@fbxsdk_20102@@@fbxsdk_20102@@QAE@XZ
   ??0?$KArrayTemplate@PAVAccumulatorEntry@fbxsdk_20102@@@fbxsdk_20102@@QAE@XZ
   ??0?$KArrayTemplate@PAVAESequence@KFbxUserNotification@fbxsdk_20102@@@fbxsdk_20102@@QAE@XZ
   ??0?$KArrayTemplate@PAVFbx5ObjectTypeInfo@fbxsdk_20102@@@fbxsdk_20102@@QAE@XZ
   ??0?$KArrayTemplate@PAVFbx6ObjectTypeInfo@fbxsdk_20102@@@fbxsdk_20102@@QAE@XZ
   ??0?$KArrayTemplate@PAVFbx6TypeDefinitionInfo@fbxsdk_20102@@@fbxsdk_20102@@QAE@XZ
   ??0?$KArrayTemplate@PAVKBVHJoint@fbxsdk_20102@@@fbxsdk_20102@@QAE@XZ
   ??0?$KArrayTemplate@PAVKFbxAsfNode@fbxsdk_20102@@@fbxsdk_20102@@QAE@XZ
   ??0?$KArrayTemplate@PAVKFbxCamera@fbxsdk_20102@@@fbxsdk_20102@@QAE@XZ
   ??0?$KArrayTemplate@PAVKFbxCluster@fbxsdk_20102@@@fbxsdk_20102@@QAE@ABV01@@Z
   ??0?$KArrayTemplate@PAVKFbxCluster@fbxsdk_20102@@@fbxsdk_20102@@QAE@XZ
   ??0?$KArrayTemplate@PAVKFbxConnectionPoint@fbxsdk_20102@@@fbxsdk_20102@@QAE@XZ
   ??0?$KArrayTemplate@PAVKFbxDefaultTakeCallback@fbxsdk_20102@@@fbxsdk_20102@@QAE@XZ
   ??0?$KArrayTemplate@PAVKFbxDependency@fbxsdk_20102@@@fbxsdk_20102@@QAE@XZ
   ??0?$KArrayTemplate@PAVKFbxDocument@fbxsdk_20102@@@fbxsdk_20102@@QAE@XZ
   ??0?$KArrayTemplate@PAVKFbxFieldInstance@fbxsdk_20102@@@fbxsdk_20102@@QAE@XZ
   ??0?$KArrayTemplate@PAVKFbxGenericNode@fbxsdk_20102@@@fbxsdk_20102@@QAE@XZ
   ??0?$KArrayTemplate@PAVKFbxGobo@fbxsdk_20102@@@fbxsdk_20102@@QAE@XZ
   ??0?$KArrayTemplate@PAVKFbxHtrSegment@fbxsdk_20102@@@fbxsdk_20102@@QAE@XZ
   ??0?$KArrayTemplate@PAVKFbxImageConverter@fbxsdk_20102@@@fbxsdk_20102@@QAE@XZ
   ??0?$KArrayTemplate@PAVKFbxLayer@fbxsdk_20102@@@fbxsdk_20102@@QAE@XZ
   ??0?$KArrayTemplate@PAVKFbxLayeredTexture@fbxsdk_20102@@@fbxsdk_20102@@QAE@XZ
   ??0?$KArrayTemplate@PAVKFbxLayerElement@fbxsdk_20102@@@fbxsdk_20102@@QAE@XZ
   ??0?$KArrayTemplate@PAVKFbxLight@fbxsdk_20102@@@fbxsdk_20102@@QAE@XZ
   ??0?$KArrayTemplate@PAVKFbxLoadingStrategy@fbxsdk_20102@@@fbxsdk_20102@@QAE@XZ
   ??0?$KArrayTemplate@PAVKFbxLocalizationManager@fbxsdk_20102@@@fbxsdk_20102@@QAE@XZ
   ??0?$KArrayTemplate@PAVKFbxMarker@fbxsdk_20102@@@fbxsdk_20102@@QAE@XZ
   ??0?$KArrayTemplate@PAVKFbxMesh@fbxsdk_20102@@@fbxsdk_20102@@QAE@XZ
   ??0?$KArrayTemplate@PAVKFbxMessageListener@fbxsdk_20102@@@fbxsdk_20102@@QAE@XZ
   ??0?$KArrayTemplate@PAVKFbxNode@fbxsdk_20102@@@fbxsdk_20102@@QAE@ABV01@@Z
   ??0?$KArrayTemplate@PAVKFbxNode@fbxsdk_20102@@@fbxsdk_20102@@QAE@XZ
   ??0?$KArrayTemplate@PAVKFbxObject@fbxsdk_20102@@@fbxsdk_20102@@QAE@XZ
   ??0?$KArrayTemplate@PAVKFbxOffloadRecord@fbxsdk_20102@@@fbxsdk_20102@@QAE@XZ
   ??0?$KArrayTemplate@PAVKFbxPlugin@fbxsdk_20102@@@fbxsdk_20102@@QAE@XZ
   ??0?$KArrayTemplate@PAVKFbxPose@fbxsdk_20102@@@fbxsdk_20102@@QAE@XZ
   ??0?$KArrayTemplate@PAVKFbxPreviewGeneratorFactory@fbxsdk_20102@@@fbxsdk_20102@@QAE@XZ
   ??0?$KArrayTemplate@PAVKFbxProductInfo@fbxsdk_20102@@@fbxsdk_20102@@QAE@ABV01@@Z
   ??0?$KArrayTemplate@PAVKFbxProductInfo@fbxsdk_20102@@@fbxsdk_20102@@QAE@XZ
   ??0?$KArrayTemplate@PAVKFbxPropertyPage@fbxsdk_20102@@@fbxsdk_20102@@QAE@XZ
   ??0?$KArrayTemplate@PAVKFbxScene@fbxsdk_20102@@@fbxsdk_20102@@QAE@XZ
   ??0?$KArrayTemplate@PAVKFbxSelectionNode@fbxsdk_20102@@@fbxsdk_20102@@QAE@XZ
   ??0?$KArrayTemplate@PAVKFbxShape@fbxsdk_20102@@@fbxsdk_20102@@QAE@XZ
   ??0?$KArrayTemplate@PAVKFbxSurfaceMaterial@fbxsdk_20102@@@fbxsdk_20102@@QAE@XZ
   ??0?$KArrayTemplate@PAVKFbxTakeInfo@fbxsdk_20102@@@fbxsdk_20102@@QAE@XZ
   ??0?$KArrayTemplate@PAVKFbxTakeNode@fbxsdk_20102@@@fbxsdk_20102@@QAE@XZ
   ??0?$KArrayTemplate@PAVKFbxTexture@fbxsdk_20102@@@fbxsdk_20102@@QAE@XZ
   ??0?$KArrayTemplate@PAVKFbxUIInstance@fbxsdk_20102@@@fbxsdk_20102@@QAE@XZ
   ??0?$KArrayTemplate@PAVKFbxUINode@fbxsdk_20102@@@fbxsdk_20102@@QAE@XZ
   ??0?$KArrayTemplate@PAVKFbxUserParamEntry@fbxsdk_20102@@@fbxsdk_20102@@QAE@XZ
   ??0?$KArrayTemplate@PAVKFbxVector4@fbxsdk_20102@@@fbxsdk_20102@@QAE@XZ
   ??0?$KArrayTemplate@PAVKFbxVideo@fbxsdk_20102@@@fbxsdk_20102@@QAE@XZ
   ??0?$KArrayTemplate@PAVKFbxWeightInfo@fbxsdk_20102@@@fbxsdk_20102@@QAE@XZ
   ??0?$KArrayTemplate@PAVKFCurve@fbxsdk_20102@@@fbxsdk_20102@@QAE@ABV01@@Z
   ??0?$KArrayTemplate@PAVKFCurve@fbxsdk_20102@@@fbxsdk_20102@@QAE@XZ
   ??0?$KArrayTemplate@PAVKFCurveNode@fbxsdk_20102@@@fbxsdk_20102@@QAE@XZ
   ??0?$KArrayTemplate@PAVKObjFace@fbxsdk_20102@@@fbxsdk_20102@@QAE@XZ
   ??0?$KArrayTemplate@PAVKObjMaterial@fbxsdk_20102@@@fbxsdk_20102@@QAE@XZ
   ??0?$KArrayTemplate@PAVKString@fbxsdk_20102@@@fbxsdk_20102@@QAE@ABV01@@Z
   ??0?$KArrayTemplate@PAVKString@fbxsdk_20102@@@fbxsdk_20102@@QAE@XZ
   ??0?$KArrayTemplate@PAVKStringListItem@fbxsdk_20102@@@fbxsdk_20102@@QAE@ABV01@@Z
   ??0?$KArrayTemplate@PAVKStringListItem@fbxsdk_20102@@@fbxsdk_20102@@QAE@XZ
   ??0?$KArrayTemplate@PAVKTypeDefinitionInfo@?A0xce6eb6f4@fbxsdk_20102@@@fbxsdk_20102@@QAE@XZ
   ??0?$KArrayTemplate@PAVKXRefManagerProject@fbxsdk_20102@@@fbxsdk_20102@@QAE@XZ
   ??0?$KArrayTemplate@PAVLayerInfo@fbxsdk_20102@@@fbxsdk_20102@@QAE@XZ
   ??0?$KArrayTemplate@PAVLightAndGoboName@fbxsdk_20102@@@fbxsdk_20102@@QAE@XZ
   ??0?$KArrayTemplate@PAVListItem@?$KHashMap@PAVKFbxLayeredTexture@fbxsdk_20102@@HVLayeredTextureHash@2@V?$NoOpDestruct@H@2@VLayeredTexPtrComparator@KFbxMaterialConverterImpl@2@@fbxsdk_20102@@@fbxsdk_20102@@QAE@XZ
   ??0?$KArrayTemplate@PAVListItem@?$KHashMap@VkFbxClassId@fbxsdk_20102@@PAV?$KArrayTemplate@PAVKFbxPreviewGeneratorFactory@fbxsdk_20102@@@2@VClassIdHash@Impl@KFbxPreviewManager@2@V?$PtrDestruct@PAV?$KArrayTemplate@PAVKFbxPreviewGeneratorFactory@fbxsdk_20102@@@fbxsdk_20102@@@2@V?$DefaultComparator@VkFbxClassId@fbxsdk_20102@@@2@@fbxsdk_20102@@@fbxsdk_20102@@QAE@XZ
   ??0?$KArrayTemplate@PAVListItem@?$KHashMap@VKString@fbxsdk_20102@@UDependency@KFbxProcessorShaderDependency@2@VKStringHash@42@V?$NoOpDestruct@UDependency@KFbxProcessorShaderDependency@fbxsdk_20102@@@2@V?$DefaultComparator@VKString@fbxsdk_20102@@@2@@fbxsdk_20102@@@fbxsdk_20102@@QAE@XZ
   ??0?$KArrayTemplate@PAVListItem@?$KHashMap@VLayerConfig@fbxsdk_20102@@HVLayerConfigHash@2@V?$NoOpDestruct@H@2@V?$DefaultComparator@VLayerConfig@fbxsdk_20102@@@2@@fbxsdk_20102@@@fbxsdk_20102@@QAE@XZ
   ??0?$KArrayTemplate@PAVListItem@?$KHashMap@VLayerConfig@fbxsdk_20102@@PAVKFbxSurfaceMaterial@2@VLayerConfigHash@2@V?$NoOpDestruct@PAVKFbxSurfaceMaterial@fbxsdk_20102@@@2@V?$DefaultComparator@VLayerConfig@fbxsdk_20102@@@2@@fbxsdk_20102@@@fbxsdk_20102@@QAE@XZ
   ??0?$KArrayTemplate@PAVPropertyAssociation@fbxsdk_20102@@@fbxsdk_20102@@QAE@XZ
   ??0?$KArrayTemplate@PAVShapeInfo@fbxsdk_20102@@@fbxsdk_20102@@QAE@XZ
   ??0?$KArrayTemplate@PAX@fbxsdk_20102@@QAE@ABV01@@Z
   ??0?$KArrayTemplate@PAX@fbxsdk_20102@@QAE@XZ
   ??0?$KArrayTemplate@PBD@fbxsdk_20102@@QAE@XZ
   ??0?$KArrayTemplate@PBVKFbxLayerElementUV@fbxsdk_20102@@@fbxsdk_20102@@QAE@ABV01@@Z
   ??0?$KArrayTemplate@PBVKFbxLayerElementUV@fbxsdk_20102@@@fbxsdk_20102@@QAE@XZ
   ??0?$KArrayTemplate@PBVKFbxPlugin@fbxsdk_20102@@@fbxsdk_20102@@QAE@ABV01@@Z
   ??0?$KArrayTemplate@PBVKFbxPlugin@fbxsdk_20102@@@fbxsdk_20102@@QAE@XZ
   ??0?$KArrayTemplate@U?$KTypeObjectReferenceDepth@VKFbxImplementation@fbxsdk_20102@@@fbxsdk_20102@@@fbxsdk_20102@@QAE@XZ
   ??0?$KArrayTemplate@U?$KTypeObjectReferenceDepth@VKFbxSurfaceMaterial@fbxsdk_20102@@@fbxsdk_20102@@@fbxsdk_20102@@QAE@XZ
   ??0?$KArrayTemplate@U?$KTypeObjectReferenceDepth@VKFbxTexture@fbxsdk_20102@@@fbxsdk_20102@@@fbxsdk_20102@@QAE@XZ
   ??0?$KArrayTemplate@U?$KTypeObjectReferenceDepth@VKFbxThumbnail@fbxsdk_20102@@@fbxsdk_20102@@@fbxsdk_20102@@QAE@XZ
   ??0?$KArrayTemplate@U?$KTypeObjectReferenceDepth@VKFbxVideo@fbxsdk_20102@@@fbxsdk_20102@@@fbxsdk_20102@@QAE@XZ
   ??0?$KArrayTemplate@UInputData@KFbxLayeredTexture@fbxsdk_20102@@@fbxsdk_20102@@QAE@XZ
   ??0?$KArrayTemplate@UKElement@KFbxWeightedMapping@fbxsdk_20102@@@fbxsdk_20102@@QAE@XZ
   ??0?$KArrayTemplate@UKFbxPolygon@KFbxMesh@fbxsdk_20102@@@fbxsdk_20102@@QAE@XZ
   ??0?$KArrayTemplate@UKFbxShadowPlane@KFbxGlobalLightSettings@fbxsdk_20102@@@fbxsdk_20102@@QAE@XZ
   ??0?$KArrayTemplate@UKFbxSplitEdgeData@KFbxMesh@fbxsdk_20102@@@fbxsdk_20102@@QAE@XZ
   ??0?$KArrayTemplate@UNewOld@KFbxReader3DS@fbxsdk_20102@@@fbxsdk_20102@@QAE@XZ
   ??0?$KArrayTemplate@UPreviewEntry@Impl@KFbxPreviewManager@fbxsdk_20102@@@fbxsdk_20102@@QAE@XZ
   ??0?$KArrayTemplate@UTypedTexture@fbxsdk_20102@@@fbxsdk_20102@@QAE@XZ
   ??0?$KArrayTemplate@V?$KPair@HH@fbxsdk_20102@@@fbxsdk_20102@@QAE@XZ
   ??0?$KArrayTemplate@V?$KPair@PAVKFbxLayerElementUV@fbxsdk_20102@@_N@fbxsdk_20102@@@fbxsdk_20102@@QAE@XZ
   ??0?$KArrayTemplate@V?$KPair@PAVKFbxTexture@fbxsdk_20102@@W4EBlendMode@KFbxLayerElementTexture@2@@fbxsdk_20102@@@fbxsdk_20102@@QAE@XZ
   ??0?$KArrayTemplate@VKConnection@KConnectionList@KFbxConnectionPoint@fbxsdk_20102@@@fbxsdk_20102@@QAE@XZ
   ??0?$KArrayTemplate@VKDuplicateVertex@KFbxMesh@fbxsdk_20102@@@fbxsdk_20102@@QAE@XZ
   ??0?$KArrayTemplate@VKFbxColor@fbxsdk_20102@@@fbxsdk_20102@@QAE@XZ
   ??0?$KArrayTemplate@VKFbxDataType@fbxsdk_20102@@@fbxsdk_20102@@QAE@ABV01@@Z
   ??0?$KArrayTemplate@VKFbxDataType@fbxsdk_20102@@@fbxsdk_20102@@QAE@XZ
   ??0?$KArrayTemplate@VKFbxLinkToCharacter@KFbxNode_internal@fbxsdk_20102@@@fbxsdk_20102@@QAE@XZ
   ??0?$KArrayTemplate@VKFbxMatrix@fbxsdk_20102@@@fbxsdk_20102@@QAE@XZ
   ??0?$KArrayTemplate@VKFbxProperty@fbxsdk_20102@@@fbxsdk_20102@@QAE@XZ
   ??0?$KArrayTemplate@VKFbxVector2@fbxsdk_20102@@@fbxsdk_20102@@QAE@ABV01@@Z
   ??0?$KArrayTemplate@VKFbxVector2@fbxsdk_20102@@@fbxsdk_20102@@QAE@XZ
   ??0?$KArrayTemplate@VKFbxVector4@fbxsdk_20102@@@fbxsdk_20102@@QAE@ABV01@@Z
   ??0?$KArrayTemplate@VKFbxVector4@fbxsdk_20102@@@fbxsdk_20102@@QAE@XZ
   ??0?$KArrayTemplate@VKFbxXMatrix@fbxsdk_20102@@@fbxsdk_20102@@QAE@XZ
   ??0?$KArrayTemplate@VKString@fbxsdk_20102@@@fbxsdk_20102@@QAE@XZ
   ??0?$KArrayTemplate@VKVertexNormalInfo@KFbxMesh@fbxsdk_20102@@@fbxsdk_20102@@QAE@XZ
   ??0?$KArrayTemplate@VLayerConfig@fbxsdk_20102@@@fbxsdk_20102@@QAE@XZ
   ??0?$KArrayTemplate@W4EAttributeType@KFbxNodeAttribute@fbxsdk_20102@@@fbxsdk_20102@@QAE@XZ
   ??0?$KArrayTemplate@W4ECharacterInputType@fbxsdk_20102@@@fbxsdk_20102@@QAE@XZ
   ??0?$KArrayTemplate@W4ELayerElementType@KFbxLayerElement@fbxsdk_20102@@@fbxsdk_20102@@QAE@ABV01@@Z
   ??0?$KArrayTemplate@W4ELayerElementType@KFbxLayerElement@fbxsdk_20102@@@fbxsdk_20102@@QAE@XZ
   ??0?$KBaseArray@V?$KBaseArraySizeType@_N@fbxsdk_20102@@@fbxsdk_20102@@IAE@V?$KBaseArraySizeType@_N@1@@Z
   ??0?$KBaseArray@V?$KBaseArraySizeType@D@fbxsdk_20102@@@fbxsdk_20102@@IAE@V?$KBaseArraySizeType@D@1@@Z
   ??0?$KBaseArray@V?$KBaseArraySizeType@H@fbxsdk_20102@@@fbxsdk_20102@@IAE@V?$KBaseArraySizeType@H@1@@Z
   ??0?$KBaseArray@V?$KBaseArraySizeType@I@fbxsdk_20102@@@fbxsdk_20102@@IAE@V?$KBaseArraySizeType@I@1@@Z
   ??0?$KBaseArray@V?$KBaseArraySizeType@M@fbxsdk_20102@@@fbxsdk_20102@@IAE@V?$KBaseArraySizeType@M@1@@Z
   ??0?$KBaseArray@V?$KBaseArraySizeType@N@fbxsdk_20102@@@fbxsdk_20102@@IAE@V?$KBaseArraySizeType@N@1@@Z
   ??0?$KBaseArray@V?$KBaseArraySizeType@PA_W@fbxsdk_20102@@@fbxsdk_20102@@IAE@V?$KBaseArraySizeType@PA_W@1@@Z
   ??0?$KBaseArray@V?$KBaseArraySizeType@PAD@fbxsdk_20102@@@fbxsdk_20102@@IAE@V?$KBaseArraySizeType@PAD@1@@Z
   ??0?$KBaseArray@V?$KBaseArraySizeType@PAH@fbxsdk_20102@@@fbxsdk_20102@@IAE@V?$KBaseArraySizeType@PAH@1@@Z
   ??0?$KBaseArray@V?$KBaseArraySizeType@PAI@fbxsdk_20102@@@fbxsdk_20102@@IAE@V?$KBaseArraySizeType@PAI@1@@Z
   ??0?$KBaseArray@V?$KBaseArraySizeType@PAM@fbxsdk_20102@@@fbxsdk_20102@@IAE@V?$KBaseArraySizeType@PAM@1@@Z
   ??0?$KBaseArray@V?$KBaseArraySizeType@PAN@fbxsdk_20102@@@fbxsdk_20102@@IAE@V?$KBaseArraySizeType@PAN@1@@Z
   ??0?$KBaseArray@V?$KBaseArraySizeType@PAU_iobuf@@@fbxsdk_20102@@@fbxsdk_20102@@IAE@V?$KBaseArraySizeType@PAU_iobuf@@@1@@Z
   ??0?$KBaseArray@V?$KBaseArraySizeType@PAU_xmlNode@fbxsdk_20102@@@fbxsdk_20102@@@fbxsdk_20102@@IAE@V?$KBaseArraySizeType@PAU_xmlNode@fbxsdk_20102@@@1@@Z
   ??0?$KBaseArray@V?$KBaseArraySizeType@PAUcamera3ds@fbxsdk_20102@@@fbxsdk_20102@@@fbxsdk_20102@@IAE@V?$KBaseArraySizeType@PAUcamera3ds@fbxsdk_20102@@@1@@Z
   ??0?$KBaseArray@V?$KBaseArraySizeType@PAUFbx6TypeReadReferenceInfo@fbxsdk_20102@@@fbxsdk_20102@@@fbxsdk_20102@@IAE@V?$KBaseArraySizeType@PAUFbx6TypeReadReferenceInfo@fbxsdk_20102@@@1@@Z
   ??0?$KBaseArray@V?$KBaseArraySizeType@PAUKFbxPoseInfo@fbxsdk_20102@@@fbxsdk_20102@@@fbxsdk_20102@@IAE@V?$KBaseArraySizeType@PAUKFbxPoseInfo@fbxsdk_20102@@@1@@Z
   ??0?$KBaseArray@V?$KBaseArraySizeType@PAUKFbxTimeMarker@KFbxGlobalTimeSettings@fbxsdk_20102@@@fbxsdk_20102@@@fbxsdk_20102@@IAE@V?$KBaseArraySizeType@PAUKFbxTimeMarker@KFbxGlobalTimeSettings@fbxsdk_20102@@@1@@Z
   ??0?$KBaseArray@V?$KBaseArraySizeType@PAUkfcamera3ds@fbxsdk_20102@@@fbxsdk_20102@@@fbxsdk_20102@@IAE@V?$KBaseArraySizeType@PAUkfcamera3ds@fbxsdk_20102@@@1@@Z
   ??0?$KBaseArray@V?$KBaseArraySizeType@PAUkfmesh3ds@fbxsdk_20102@@@fbxsdk_20102@@@fbxsdk_20102@@IAE@V?$KBaseArraySizeType@PAUkfmesh3ds@fbxsdk_20102@@@1@@Z
   ??0?$KBaseArray@V?$KBaseArraySizeType@PAUkfomni3ds@fbxsdk_20102@@@fbxsdk_20102@@@fbxsdk_20102@@IAE@V?$KBaseArraySizeType@PAUkfomni3ds@fbxsdk_20102@@@1@@Z
   ??0?$KBaseArray@V?$KBaseArraySizeType@PAUkfspot3ds@fbxsdk_20102@@@fbxsdk_20102@@@fbxsdk_20102@@IAE@V?$KBaseArraySizeType@PAUkfspot3ds@fbxsdk_20102@@@1@@Z
   ??0?$KBaseArray@V?$KBaseArraySizeType@PAUKLayerInfo@fbxsdk_20102@@@fbxsdk_20102@@@fbxsdk_20102@@IAE@V?$KBaseArraySizeType@PAUKLayerInfo@fbxsdk_20102@@@1@@Z
   ??0?$KBaseArray@V?$KBaseArraySizeType@PAUKTypeObjectHierarchyInfo@fbxsdk_20102@@@fbxsdk_20102@@@fbxsdk_20102@@IAE@V?$KBaseArraySizeType@PAUKTypeObjectHierarchyInfo@fbxsdk_20102@@@1@@Z
   ??0?$KBaseArray@V?$KBaseArraySizeType@PAUKTypeReadReferenceInfo@?A0xa88da042@fbxsdk_20102@@@fbxsdk_20102@@@fbxsdk_20102@@IAE@V?$KBaseArraySizeType@PAUKTypeReadReferenceInfo@?A0xa88da042@fbxsdk_20102@@@1@@Z
   ??0?$KBaseArray@V?$KBaseArraySizeType@PAUKTypeWriteReferenceInfo@?A0xce6eb6f4@fbxsdk_20102@@@fbxsdk_20102@@@fbxsdk_20102@@IAE@V?$KBaseArraySizeType@PAUKTypeWriteReferenceInfo@?A0xce6eb6f4@fbxsdk_20102@@@1@@Z
   ??0?$KBaseArray@V?$KBaseArraySizeType@PAUKTypeWriteReferenceInfo@fbxsdk_20102@@@fbxsdk_20102@@@fbxsdk_20102@@IAE@V?$KBaseArraySizeType@PAUKTypeWriteReferenceInfo@fbxsdk_20102@@@1@@Z
   ??0?$KBaseArray@V?$KBaseArraySizeType@PAUlight3ds@fbxsdk_20102@@@fbxsdk_20102@@@fbxsdk_20102@@IAE@V?$KBaseArraySizeType@PAUlight3ds@fbxsdk_20102@@@1@@Z
   ??0?$KBaseArray@V?$KBaseArraySizeType@PAUmaterial3ds@fbxsdk_20102@@@fbxsdk_20102@@@fbxsdk_20102@@IAE@V?$KBaseArraySizeType@PAUmaterial3ds@fbxsdk_20102@@@1@@Z
   ??0?$KBaseArray@V?$KBaseArraySizeType@PAUMaterialTexture@KFbxReaderCollada@fbxsdk_20102@@@fbxsdk_20102@@@fbxsdk_20102@@IAE@V?$KBaseArraySizeType@PAUMaterialTexture@KFbxReaderCollada@fbxsdk_20102@@@1@@Z
   ??0?$KBaseArray@V?$KBaseArraySizeType@PAUmesh3ds@fbxsdk_20102@@@fbxsdk_20102@@@fbxsdk_20102@@IAE@V?$KBaseArraySizeType@PAUmesh3ds@fbxsdk_20102@@@1@@Z
   ??0?$KBaseArray@V?$KBaseArraySizeType@PAUModifiedPropertyInfo@KFbxWriterFbx6@fbxsdk_20102@@@fbxsdk_20102@@@fbxsdk_20102@@IAE@V?$KBaseArraySizeType@PAUModifiedPropertyInfo@KFbxWriterFbx6@fbxsdk_20102@@@1@@Z
   ??0?$KBaseArray@V?$KBaseArraySizeType@PAUMultiTex@KFbxReader3DS@fbxsdk_20102@@@fbxsdk_20102@@@fbxsdk_20102@@IAE@V?$KBaseArraySizeType@PAUMultiTex@KFbxReader3DS@fbxsdk_20102@@@1@@Z
   ??0?$KBaseArray@V?$KBaseArraySizeType@PAUNameCell@KFbxRenamingStrategy@fbxsdk_20102@@@fbxsdk_20102@@@fbxsdk_20102@@IAE@V?$KBaseArraySizeType@PAUNameCell@KFbxRenamingStrategy@fbxsdk_20102@@@1@@Z
   ??0?$KBaseArray@V?$KBaseArraySizeType@PAUNameCell@KNumberRenamingStrategy@fbxsdk_20102@@@fbxsdk_20102@@@fbxsdk_20102@@IAE@V?$KBaseArraySizeType@PAUNameCell@KNumberRenamingStrategy@fbxsdk_20102@@@1@@Z
   ??0?$KBaseArray@V?$KBaseArraySizeType@PAUNameCell@KRenamingStrategy3DS@fbxsdk_20102@@@fbxsdk_20102@@@fbxsdk_20102@@IAE@V?$KBaseArraySizeType@PAUNameCell@KRenamingStrategy3DS@fbxsdk_20102@@@1@@Z
   ??0?$KBaseArray@V?$KBaseArraySizeType@PAUReaderPluginEntry@KFbxIOPluginRegistry@fbxsdk_20102@@@fbxsdk_20102@@@fbxsdk_20102@@IAE@V?$KBaseArraySizeType@PAUReaderPluginEntry@KFbxIOPluginRegistry@fbxsdk_20102@@@1@@Z
   ??0?$KBaseArray@V?$KBaseArraySizeType@PAUWriterPluginEntry@KFbxIOPluginRegistry@fbxsdk_20102@@@fbxsdk_20102@@@fbxsdk_20102@@IAE@V?$KBaseArraySizeType@PAUWriterPluginEntry@KFbxIOPluginRegistry@fbxsdk_20102@@@1@@Z
   ??0?$KBaseArray@V?$KBaseArraySizeType@PAV?$KArrayTemplate@H@fbxsdk_20102@@@fbxsdk_20102@@@fbxsdk_20102@@IAE@V?$KBaseArraySizeType@PAV?$KArrayTemplate@H@fbxsdk_20102@@@1@@Z
   ??0?$KBaseArray@V?$KBaseArraySizeType@PAV?$KArrayTemplate@UKElement@KFbxWeightedMapping@fbxsdk_20102@@@fbxsdk_20102@@@fbxsdk_20102@@@fbxsdk_20102@@IAE@V?$KBaseArraySizeType@PAV?$KArrayTemplate@UKElement@KFbxWeightedMapping@fbxsdk_20102@@@fbxsdk_20102@@@1@@Z
   ??0?$KBaseArray@V?$KBaseArraySizeType@PAV?$KArrayTemplate@VKDuplicateVertex@KFbxMesh@fbxsdk_20102@@@fbxsdk_20102@@@fbxsdk_20102@@@fbxsdk_20102@@IAE@V?$KBaseArraySizeType@PAV?$KArrayTemplate@VKDuplicateVertex@KFbxMesh@fbxsdk_20102@@@fbxsdk_20102@@@1@@Z
   ??0?$KBaseArray@V?$KBaseArraySizeType@PAV?$KMap@HHU?$KFbxLessCompare@H@fbxsdk_20102@@VKBaseAllocator@2@@fbxsdk_20102@@@fbxsdk_20102@@@fbxsdk_20102@@IAE@V?$KBaseArraySizeType@PAV?$KMap@HHU?$KFbxLessCompare@H@fbxsdk_20102@@VKBaseAllocator@2@@fbxsdk_20102@@@1@@Z
   ??0?$KBaseArray@V?$KBaseArraySizeType@PAVAccumulatorEntry@fbxsdk_20102@@@fbxsdk_20102@@@fbxsdk_20102@@IAE@V?$KBaseArraySizeType@PAVAccumulatorEntry@fbxsdk_20102@@@1@@Z
   ??0?$KBaseArray@V?$KBaseArraySizeType@PAVAESequence@KFbxUserNotification@fbxsdk_20102@@@fbxsdk_20102@@@fbxsdk_20102@@IAE@V?$KBaseArraySizeType@PAVAESequence@KFbxUserNotification@fbxsdk_20102@@@1@@Z
   ??0?$KBaseArray@V?$KBaseArraySizeType@PAVFbx5ObjectTypeInfo@fbxsdk_20102@@@fbxsdk_20102@@@fbxsdk_20102@@IAE@V?$KBaseArraySizeType@PAVFbx5ObjectTypeInfo@fbxsdk_20102@@@1@@Z
   ??0?$KBaseArray@V?$KBaseArraySizeType@PAVFbx6ObjectTypeInfo@fbxsdk_20102@@@fbxsdk_20102@@@fbxsdk_20102@@IAE@V?$KBaseArraySizeType@PAVFbx6ObjectTypeInfo@fbxsdk_20102@@@1@@Z
   ??0?$KBaseArray@V?$KBaseArraySizeType@PAVFbx6TypeDefinitionInfo@fbxsdk_20102@@@fbxsdk_20102@@@fbxsdk_20102@@IAE@V?$KBaseArraySizeType@PAVFbx6TypeDefinitionInfo@fbxsdk_20102@@@1@@Z
   ??0?$KBaseArray@V?$KBaseArraySizeType@PAVKBVHJoint@fbxsdk_20102@@@fbxsdk_20102@@@fbxsdk_20102@@IAE@V?$KBaseArraySizeType@PAVKBVHJoint@fbxsdk_20102@@@1@@Z
   ??0?$KBaseArray@V?$KBaseArraySizeType@PAVKFbxAsfNode@fbxsdk_20102@@@fbxsdk_20102@@@fbxsdk_20102@@IAE@V?$KBaseArraySizeType@PAVKFbxAsfNode@fbxsdk_20102@@@1@@Z
   ??0?$KBaseArray@V?$KBaseArraySizeType@PAVKFbxCamera@fbxsdk_20102@@@fbxsdk_20102@@@fbxsdk_20102@@IAE@V?$KBaseArraySizeType@PAVKFbxCamera@fbxsdk_20102@@@1@@Z
   ??0?$KBaseArray@V?$KBaseArraySizeType@PAVKFbxCluster@fbxsdk_20102@@@fbxsdk_20102@@@fbxsdk_20102@@IAE@V?$KBaseArraySizeType@PAVKFbxCluster@fbxsdk_20102@@@1@@Z
   ??0?$KBaseArray@V?$KBaseArraySizeType@PAVKFbxConnectionPoint@fbxsdk_20102@@@fbxsdk_20102@@@fbxsdk_20102@@IAE@V?$KBaseArraySizeType@PAVKFbxConnectionPoint@fbxsdk_20102@@@1@@Z
   ??0?$KBaseArray@V?$KBaseArraySizeType@PAVKFbxDefaultTakeCallback@fbxsdk_20102@@@fbxsdk_20102@@@fbxsdk_20102@@IAE@V?$KBaseArraySizeType@PAVKFbxDefaultTakeCallback@fbxsdk_20102@@@1@@Z
   ??0?$KBaseArray@V?$KBaseArraySizeType@PAVKFbxDependency@fbxsdk_20102@@@fbxsdk_20102@@@fbxsdk_20102@@IAE@V?$KBaseArraySizeType@PAVKFbxDependency@fbxsdk_20102@@@1@@Z
   ??0?$KBaseArray@V?$KBaseArraySizeType@PAVKFbxDocument@fbxsdk_20102@@@fbxsdk_20102@@@fbxsdk_20102@@IAE@V?$KBaseArraySizeType@PAVKFbxDocument@fbxsdk_20102@@@1@@Z
   ??0?$KBaseArray@V?$KBaseArraySizeType@PAVKFbxFieldInstance@fbxsdk_20102@@@fbxsdk_20102@@@fbxsdk_20102@@IAE@V?$KBaseArraySizeType@PAVKFbxFieldInstance@fbxsdk_20102@@@1@@Z
   ??0?$KBaseArray@V?$KBaseArraySizeType@PAVKFbxGenericNode@fbxsdk_20102@@@fbxsdk_20102@@@fbxsdk_20102@@IAE@V?$KBaseArraySizeType@PAVKFbxGenericNode@fbxsdk_20102@@@1@@Z
   ??0?$KBaseArray@V?$KBaseArraySizeType@PAVKFbxGobo@fbxsdk_20102@@@fbxsdk_20102@@@fbxsdk_20102@@IAE@V?$KBaseArraySizeType@PAVKFbxGobo@fbxsdk_20102@@@1@@Z
   ??0?$KBaseArray@V?$KBaseArraySizeType@PAVKFbxHtrSegment@fbxsdk_20102@@@fbxsdk_20102@@@fbxsdk_20102@@IAE@V?$KBaseArraySizeType@PAVKFbxHtrSegment@fbxsdk_20102@@@1@@Z
   ??0?$KBaseArray@V?$KBaseArraySizeType@PAVKFbxImageConverter@fbxsdk_20102@@@fbxsdk_20102@@@fbxsdk_20102@@IAE@V?$KBaseArraySizeType@PAVKFbxImageConverter@fbxsdk_20102@@@1@@Z
   ??0?$KBaseArray@V?$KBaseArraySizeType@PAVKFbxLayer@fbxsdk_20102@@@fbxsdk_20102@@@fbxsdk_20102@@IAE@V?$KBaseArraySizeType@PAVKFbxLayer@fbxsdk_20102@@@1@@Z
   ??0?$KBaseArray@V?$KBaseArraySizeType@PAVKFbxLayeredTexture@fbxsdk_20102@@@fbxsdk_20102@@@fbxsdk_20102@@IAE@V?$KBaseArraySizeType@PAVKFbxLayeredTexture@fbxsdk_20102@@@1@@Z
   ??0?$KBaseArray@V?$KBaseArraySizeType@PAVKFbxLayerElement@fbxsdk_20102@@@fbxsdk_20102@@@fbxsdk_20102@@IAE@V?$KBaseArraySizeType@PAVKFbxLayerElement@fbxsdk_20102@@@1@@Z
   ??0?$KBaseArray@V?$KBaseArraySizeType@PAVKFbxLight@fbxsdk_20102@@@fbxsdk_20102@@@fbxsdk_20102@@IAE@V?$KBaseArraySizeType@PAVKFbxLight@fbxsdk_20102@@@1@@Z
   ??0?$KBaseArray@V?$KBaseArraySizeType@PAVKFbxLoadingStrategy@fbxsdk_20102@@@fbxsdk_20102@@@fbxsdk_20102@@IAE@V?$KBaseArraySizeType@PAVKFbxLoadingStrategy@fbxsdk_20102@@@1@@Z
   ??0?$KBaseArray@V?$KBaseArraySizeType@PAVKFbxLocalizationManager@fbxsdk_20102@@@fbxsdk_20102@@@fbxsdk_20102@@IAE@V?$KBaseArraySizeType@PAVKFbxLocalizationManager@fbxsdk_20102@@@1@@Z
   ??0?$KBaseArray@V?$KBaseArraySizeType@PAVKFbxMarker@fbxsdk_20102@@@fbxsdk_20102@@@fbxsdk_20102@@IAE@V?$KBaseArraySizeType@PAVKFbxMarker@fbxsdk_20102@@@1@@Z
   ??0?$KBaseArray@V?$KBaseArraySizeType@PAVKFbxMesh@fbxsdk_20102@@@fbxsdk_20102@@@fbxsdk_20102@@IAE@V?$KBaseArraySizeType@PAVKFbxMesh@fbxsdk_20102@@@1@@Z
   ??0?$KBaseArray@V?$KBaseArraySizeType@PAVKFbxMessageListener@fbxsdk_20102@@@fbxsdk_20102@@@fbxsdk_20102@@IAE@V?$KBaseArraySizeType@PAVKFbxMessageListener@fbxsdk_20102@@@1@@Z
   ??0?$KBaseArray@V?$KBaseArraySizeType@PAVKFbxNode@fbxsdk_20102@@@fbxsdk_20102@@@fbxsdk_20102@@IAE@V?$KBaseArraySizeType@PAVKFbxNode@fbxsdk_20102@@@1@@Z
   ??0?$KBaseArray@V?$KBaseArraySizeType@PAVKFbxObject@fbxsdk_20102@@@fbxsdk_20102@@@fbxsdk_20102@@IAE@V?$KBaseArraySizeType@PAVKFbxObject@fbxsdk_20102@@@1@@Z
   ??0?$KBaseArray@V?$KBaseArraySizeType@PAVKFbxOffloadRecord@fbxsdk_20102@@@fbxsdk_20102@@@fbxsdk_20102@@IAE@V?$KBaseArraySizeType@PAVKFbxOffloadRecord@fbxsdk_20102@@@1@@Z
   ??0?$KBaseArray@V?$KBaseArraySizeType@PAVKFbxPlugin@fbxsdk_20102@@@fbxsdk_20102@@@fbxsdk_20102@@IAE@V?$KBaseArraySizeType@PAVKFbxPlugin@fbxsdk_20102@@@1@@Z
   ??0?$KBaseArray@V?$KBaseArraySizeType@PAVKFbxPose@fbxsdk_20102@@@fbxsdk_20102@@@fbxsdk_20102@@IAE@V?$KBaseArraySizeType@PAVKFbxPose@fbxsdk_20102@@@1@@Z
   ??0?$KBaseArray@V?$KBaseArraySizeType@PAVKFbxPreviewGeneratorFactory@fbxsdk_20102@@@fbxsdk_20102@@@fbxsdk_20102@@IAE@V?$KBaseArraySizeType@PAVKFbxPreviewGeneratorFactory@fbxsdk_20102@@@1@@Z
   ??0?$KBaseArray@V?$KBaseArraySizeType@PAVKFbxProductInfo@fbxsdk_20102@@@fbxsdk_20102@@@fbxsdk_20102@@IAE@V?$KBaseArraySizeType@PAVKFbxProductInfo@fbxsdk_20102@@@1@@Z
   ??0?$KBaseArray@V?$KBaseArraySizeType@PAVKFbxPropertyPage@fbxsdk_20102@@@fbxsdk_20102@@@fbxsdk_20102@@IAE@V?$KBaseArraySizeType@PAVKFbxPropertyPage@fbxsdk_20102@@@1@@Z
   ??0?$KBaseArray@V?$KBaseArraySizeType@PAVKFbxScene@fbxsdk_20102@@@fbxsdk_20102@@@fbxsdk_20102@@IAE@V?$KBaseArraySizeType@PAVKFbxScene@fbxsdk_20102@@@1@@Z
   ??0?$KBaseArray@V?$KBaseArraySizeType@PAVKFbxSelectionNode@fbxsdk_20102@@@fbxsdk_20102@@@fbxsdk_20102@@IAE@V?$KBaseArraySizeType@PAVKFbxSelectionNode@fbxsdk_20102@@@1@@Z
   ??0?$KBaseArray@V?$KBaseArraySizeType@PAVKFbxShape@fbxsdk_20102@@@fbxsdk_20102@@@fbxsdk_20102@@IAE@V?$KBaseArraySizeType@PAVKFbxShape@fbxsdk_20102@@@1@@Z
   ??0?$KBaseArray@V?$KBaseArraySizeType@PAVKFbxSurfaceMaterial@fbxsdk_20102@@@fbxsdk_20102@@@fbxsdk_20102@@IAE@V?$KBaseArraySizeType@PAVKFbxSurfaceMaterial@fbxsdk_20102@@@1@@Z
   ??0?$KBaseArray@V?$KBaseArraySizeType@PAVKFbxTakeInfo@fbxsdk_20102@@@fbxsdk_20102@@@fbxsdk_20102@@IAE@V?$KBaseArraySizeType@PAVKFbxTakeInfo@fbxsdk_20102@@@1@@Z
   ??0?$KBaseArray@V?$KBaseArraySizeType@PAVKFbxTakeNode@fbxsdk_20102@@@fbxsdk_20102@@@fbxsdk_20102@@IAE@V?$KBaseArraySizeType@PAVKFbxTakeNode@fbxsdk_20102@@@1@@Z
   ??0?$KBaseArray@V?$KBaseArraySizeType@PAVKFbxTexture@fbxsdk_20102@@@fbxsdk_20102@@@fbxsdk_20102@@IAE@V?$KBaseArraySizeType@PAVKFbxTexture@fbxsdk_20102@@@1@@Z
   ??0?$KBaseArray@V?$KBaseArraySizeType@PAVKFbxUIInstance@fbxsdk_20102@@@fbxsdk_20102@@@fbxsdk_20102@@IAE@V?$KBaseArraySizeType@PAVKFbxUIInstance@fbxsdk_20102@@@1@@Z
   ??0?$KBaseArray@V?$KBaseArraySizeType@PAVKFbxUINode@fbxsdk_20102@@@fbxsdk_20102@@@fbxsdk_20102@@IAE@V?$KBaseArraySizeType@PAVKFbxUINode@fbxsdk_20102@@@1@@Z
   ??0?$KBaseArray@V?$KBaseArraySizeType@PAVKFbxUserParamEntry@fbxsdk_20102@@@fbxsdk_20102@@@fbxsdk_20102@@IAE@V?$KBaseArraySizeType@PAVKFbxUserParamEntry@fbxsdk_20102@@@1@@Z
   ??0?$KBaseArray@V?$KBaseArraySizeType@PAVKFbxVector4@fbxsdk_20102@@@fbxsdk_20102@@@fbxsdk_20102@@IAE@V?$KBaseArraySizeType@PAVKFbxVector4@fbxsdk_20102@@@1@@Z
   ??0?$KBaseArray@V?$KBaseArraySizeType@PAVKFbxVideo@fbxsdk_20102@@@fbxsdk_20102@@@fbxsdk_20102@@IAE@V?$KBaseArraySizeType@PAVKFbxVideo@fbxsdk_20102@@@1@@Z
   ??0?$KBaseArray@V?$KBaseArraySizeType@PAVKFbxWeightInfo@fbxsdk_20102@@@fbxsdk_20102@@@fbxsdk_20102@@IAE@V?$KBaseArraySizeType@PAVKFbxWeightInfo@fbxsdk_20102@@@1@@Z
   ??0?$KBaseArray@V?$KBaseArraySizeType@PAVKFCurve@fbxsdk_20102@@@fbxsdk_20102@@@fbxsdk_20102@@IAE@V?$KBaseArraySizeType@PAVKFCurve@fbxsdk_20102@@@1@@Z
   ??0?$KBaseArray@V?$KBaseArraySizeType@PAVKFCurveNode@fbxsdk_20102@@@fbxsdk_20102@@@fbxsdk_20102@@IAE@V?$KBaseArraySizeType@PAVKFCurveNode@fbxsdk_20102@@@1@@Z
   ??0?$KBaseArray@V?$KBaseArraySizeType@PAVKObjFace@fbxsdk_20102@@@fbxsdk_20102@@@fbxsdk_20102@@IAE@V?$KBaseArraySizeType@PAVKObjFace@fbxsdk_20102@@@1@@Z
   ??0?$KBaseArray@V?$KBaseArraySizeType@PAVKObjMaterial@fbxsdk_20102@@@fbxsdk_20102@@@fbxsdk_20102@@IAE@V?$KBaseArraySizeType@PAVKObjMaterial@fbxsdk_20102@@@1@@Z
   ??0?$KBaseArray@V?$KBaseArraySizeType@PAVKString@fbxsdk_20102@@@fbxsdk_20102@@@fbxsdk_20102@@IAE@V?$KBaseArraySizeType@PAVKString@fbxsdk_20102@@@1@@Z
   ??0?$KBaseArray@V?$KBaseArraySizeType@PAVKStringListItem@fbxsdk_20102@@@fbxsdk_20102@@@fbxsdk_20102@@IAE@V?$KBaseArraySizeType@PAVKStringListItem@fbxsdk_20102@@@1@@Z
   ??0?$KBaseArray@V?$KBaseArraySizeType@PAVKTypeDefinitionInfo@?A0xce6eb6f4@fbxsdk_20102@@@fbxsdk_20102@@@fbxsdk_20102@@IAE@V?$KBaseArraySizeType@PAVKTypeDefinitionInfo@?A0xce6eb6f4@fbxsdk_20102@@@1@@Z
   ??0?$KBaseArray@V?$KBaseArraySizeType@PAVKXRefManagerProject@fbxsdk_20102@@@fbxsdk_20102@@@fbxsdk_20102@@IAE@V?$KBaseArraySizeType@PAVKXRefManagerProject@fbxsdk_20102@@@1@@Z
   ??0?$KBaseArray@V?$KBaseArraySizeType@PAVLayerInfo@fbxsdk_20102@@@fbxsdk_20102@@@fbxsdk_20102@@IAE@V?$KBaseArraySizeType@PAVLayerInfo@fbxsdk_20102@@@1@@Z
   ??0?$KBaseArray@V?$KBaseArraySizeType@PAVLightAndGoboName@fbxsdk_20102@@@fbxsdk_20102@@@fbxsdk_20102@@IAE@V?$KBaseArraySizeType@PAVLightAndGoboName@fbxsdk_20102@@@1@@Z
   ??0?$KBaseArray@V?$KBaseArraySizeType@PAVListItem@?$KHashMap@PAVKFbxLayeredTexture@fbxsdk_20102@@HVLayeredTextureHash@2@V?$NoOpDestruct@H@2@VLayeredTexPtrComparator@KFbxMaterialConverterImpl@2@@fbxsdk_20102@@@fbxsdk_20102@@@fbxsdk_20102@@IAE@V?$KBaseArraySizeType@PAVListItem@?$KHashMap@PAVKFbxLayeredTexture@fbxsdk_20102@@HVLayeredTextureHash@2@V?$NoOpDestruct@H@2@VLayeredTexPtrComparator@KFbxMaterialConverterImpl@2@@fbxsdk_20102@@@1@@Z
   ??0?$KBaseArray@V?$KBaseArraySizeType@PAVListItem@?$KHashMap@VkFbxClassId@fbxsdk_20102@@PAV?$KArrayTemplate@PAVKFbxPreviewGeneratorFactory@fbxsdk_20102@@@2@VClassIdHash@Impl@KFbxPreviewManager@2@V?$PtrDestruct@PAV?$KArrayTemplate@PAVKFbxPreviewGeneratorFactory@fbxsdk_20102@@@fbxsdk_20102@@@2@V?$DefaultComparator@VkFbxClassId@fbxsdk_20102@@@2@@fbxsdk_20102@@@fbxsdk_20102@@@fbxsdk_20102@@IAE@V?$KBaseArraySizeType@PAVListItem@?$KHashMap@VkFbxClassId@fbxsdk_20102@@PAV?$KArrayTemplate@PAVKFbxPreviewGeneratorFactory@fbxsdk_20102@@@2@VClassIdHash@Impl@KFbxPreviewManager@2@V?$PtrDestruct@PAV?$KArrayTemplate@PAVKFbxPreviewGeneratorFactory@fbxsdk_20102@@@fbxsdk_20102@@@2@V?$DefaultComparator@VkFbxClassId@fbxsdk_20102@@@2@@fbxsdk_20102@@@1@@Z
   ??0?$KBaseArray@V?$KBaseArraySizeType@PAVListItem@?$KHashMap@VKString@fbxsdk_20102@@UDependency@KFbxProcessorShaderDependency@2@VKStringHash@42@V?$NoOpDestruct@UDependency@KFbxProcessorShaderDependency@fbxsdk_20102@@@2@V?$DefaultComparator@VKString@fbxsdk_20102@@@2@@fbxsdk_20102@@@fbxsdk_20102@@@fbxsdk_20102@@IAE@V?$KBaseArraySizeType@PAVListItem@?$KHashMap@VKString@fbxsdk_20102@@UDependency@KFbxProcessorShaderDependency@2@VKStringHash@42@V?$NoOpDestruct@UDependency@KFbxProcessorShaderDependency@fbxsdk_20102@@@2@V?$DefaultComparator@VKString@fbxsdk_20102@@@2@@fbxsdk_20102@@@1@@Z
   ??0?$KBaseArray@V?$KBaseArraySizeType@PAVListItem@?$KHashMap@VLayerConfig@fbxsdk_20102@@HVLayerConfigHash@2@V?$NoOpDestruct@H@2@V?$DefaultComparator@VLayerConfig@fbxsdk_20102@@@2@@fbxsdk_20102@@@fbxsdk_20102@@@fbxsdk_20102@@IAE@V?$KBaseArraySizeType@PAVListItem@?$KHashMap@VLayerConfig@fbxsdk_20102@@HVLayerConfigHash@2@V?$NoOpDestruct@H@2@V?$DefaultComparator@VLayerConfig@fbxsdk_20102@@@2@@fbxsdk_20102@@@1@@Z
   ??0?$KBaseArray@V?$KBaseArraySizeType@PAVListItem@?$KHashMap@VLayerConfig@fbxsdk_20102@@PAVKFbxSurfaceMaterial@2@VLayerConfigHash@2@V?$NoOpDestruct@PAVKFbxSurfaceMaterial@fbxsdk_20102@@@2@V?$DefaultComparator@VLayerConfig@fbxsdk_20102@@@2@@fbxsdk_20102@@@fbxsdk_20102@@@fbxsdk_20102@@IAE@V?$KBaseArraySizeType@PAVListItem@?$KHashMap@VLayerConfig@fbxsdk_20102@@PAVKFbxSurfaceMaterial@2@VLayerConfigHash@2@V?$NoOpDestruct@PAVKFbxSurfaceMaterial@fbxsdk_20102@@@2@V?$DefaultComparator@VLayerConfig@fbxsdk_20102@@@2@@fbxsdk_20102@@@1@@Z
   ??0?$KBaseArray@V?$KBaseArraySizeType@PAVPropertyAssociation@fbxsdk_20102@@@fbxsdk_20102@@@fbxsdk_20102@@IAE@V?$KBaseArraySizeType@PAVPropertyAssociation@fbxsdk_20102@@@1@@Z
   ??0?$KBaseArray@V?$KBaseArraySizeType@PAVShapeInfo@fbxsdk_20102@@@fbxsdk_20102@@@fbxsdk_20102@@IAE@V?$KBaseArraySizeType@PAVShapeInfo@fbxsdk_20102@@@1@@Z
   ??0?$KBaseArray@V?$KBaseArraySizeType@PAX@fbxsdk_20102@@@fbxsdk_20102@@IAE@V?$KBaseArraySizeType@PAX@1@@Z
   ??0?$KBaseArray@V?$KBaseArraySizeType@PBD@fbxsdk_20102@@@fbxsdk_20102@@IAE@V?$KBaseArraySizeType@PBD@1@@Z
   ??0?$KBaseArray@V?$KBaseArraySizeType@PBVKFbxLayerElementUV@fbxsdk_20102@@@fbxsdk_20102@@@fbxsdk_20102@@IAE@V?$KBaseArraySizeType@PBVKFbxLayerElementUV@fbxsdk_20102@@@1@@Z
   ??0?$KBaseArray@V?$KBaseArraySizeType@PBVKFbxPlugin@fbxsdk_20102@@@fbxsdk_20102@@@fbxsdk_20102@@IAE@V?$KBaseArraySizeType@PBVKFbxPlugin@fbxsdk_20102@@@1@@Z
   ??0?$KBaseArray@V?$KBaseArraySizeType@U?$KTypeObjectReferenceDepth@VKFbxImplementation@fbxsdk_20102@@@fbxsdk_20102@@@fbxsdk_20102@@@fbxsdk_20102@@IAE@V?$KBaseArraySizeType@U?$KTypeObjectReferenceDepth@VKFbxImplementation@fbxsdk_20102@@@fbxsdk_20102@@@1@@Z
   ??0?$KBaseArray@V?$KBaseArraySizeType@U?$KTypeObjectReferenceDepth@VKFbxSurfaceMaterial@fbxsdk_20102@@@fbxsdk_20102@@@fbxsdk_20102@@@fbxsdk_20102@@IAE@V?$KBaseArraySizeType@U?$KTypeObjectReferenceDepth@VKFbxSurfaceMaterial@fbxsdk_20102@@@fbxsdk_20102@@@1@@Z
   ??0?$KBaseArray@V?$KBaseArraySizeType@U?$KTypeObjectReferenceDepth@VKFbxTexture@fbxsdk_20102@@@fbxsdk_20102@@@fbxsdk_20102@@@fbxsdk_20102@@IAE@V?$KBaseArraySizeType@U?$KTypeObjectReferenceDepth@VKFbxTexture@fbxsdk_20102@@@fbxsdk_20102@@@1@@Z
   ??0?$KBaseArray@V?$KBaseArraySizeType@U?$KTypeObjectReferenceDepth@VKFbxThumbnail@fbxsdk_20102@@@fbxsdk_20102@@@fbxsdk_20102@@@fbxsdk_20102@@IAE@V?$KBaseArraySizeType@U?$KTypeObjectReferenceDepth@VKFbxThumbnail@fbxsdk_20102@@@fbxsdk_20102@@@1@@Z
   ??0?$KBaseArray@V?$KBaseArraySizeType@U?$KTypeObjectReferenceDepth@VKFbxVideo@fbxsdk_20102@@@fbxsdk_20102@@@fbxsdk_20102@@@fbxsdk_20102@@IAE@V?$KBaseArraySizeType@U?$KTypeObjectReferenceDepth@VKFbxVideo@fbxsdk_20102@@@fbxsdk_20102@@@1@@Z
   ??0?$KBaseArray@V?$KBaseArraySizeType@UInputData@KFbxLayeredTexture@fbxsdk_20102@@@fbxsdk_20102@@@fbxsdk_20102@@IAE@V?$KBaseArraySizeType@UInputData@KFbxLayeredTexture@fbxsdk_20102@@@1@@Z
   ??0?$KBaseArray@V?$KBaseArraySizeType@UKElement@KFbxWeightedMapping@fbxsdk_20102@@@fbxsdk_20102@@@fbxsdk_20102@@IAE@V?$KBaseArraySizeType@UKElement@KFbxWeightedMapping@fbxsdk_20102@@@1@@Z
   ??0?$KBaseArray@V?$KBaseArraySizeType@UKFbxPolygon@KFbxMesh@fbxsdk_20102@@@fbxsdk_20102@@@fbxsdk_20102@@IAE@V?$KBaseArraySizeType@UKFbxPolygon@KFbxMesh@fbxsdk_20102@@@1@@Z
   ??0?$KBaseArray@V?$KBaseArraySizeType@UKFbxShadowPlane@KFbxGlobalLightSettings@fbxsdk_20102@@@fbxsdk_20102@@@fbxsdk_20102@@IAE@V?$KBaseArraySizeType@UKFbxShadowPlane@KFbxGlobalLightSettings@fbxsdk_20102@@@1@@Z
   ??0?$KBaseArray@V?$KBaseArraySizeType@UKFbxSplitEdgeData@KFbxMesh@fbxsdk_20102@@@fbxsdk_20102@@@fbxsdk_20102@@IAE@V?$KBaseArraySizeType@UKFbxSplitEdgeData@KFbxMesh@fbxsdk_20102@@@1@@Z
   ??0?$KBaseArray@V?$KBaseArraySizeType@UNewOld@KFbxReader3DS@fbxsdk_20102@@@fbxsdk_20102@@@fbxsdk_20102@@IAE@V?$KBaseArraySizeType@UNewOld@KFbxReader3DS@fbxsdk_20102@@@1@@Z
   ??0?$KBaseArray@V?$KBaseArraySizeType@UPreviewEntry@Impl@KFbxPreviewManager@fbxsdk_20102@@@fbxsdk_20102@@@fbxsdk_20102@@IAE@V?$KBaseArraySizeType@UPreviewEntry@Impl@KFbxPreviewManager@fbxsdk_20102@@@1@@Z
   ??0?$KBaseArray@V?$KBaseArraySizeType@UTypedTexture@fbxsdk_20102@@@fbxsdk_20102@@@fbxsdk_20102@@IAE@V?$KBaseArraySizeType@UTypedTexture@fbxsdk_20102@@@1@@Z
   ??0?$KBaseArray@V?$KBaseArraySizeType@V?$KPair@HH@fbxsdk_20102@@@fbxsdk_20102@@@fbxsdk_20102@@IAE@V?$KBaseArraySizeType@V?$KPair@HH@fbxsdk_20102@@@1@@Z
   ??0?$KBaseArray@V?$KBaseArraySizeType@V?$KPair@PAVKFbxLayerElementUV@fbxsdk_20102@@_N@fbxsdk_20102@@@fbxsdk_20102@@@fbxsdk_20102@@IAE@V?$KBaseArraySizeType@V?$KPair@PAVKFbxLayerElementUV@fbxsdk_20102@@_N@fbxsdk_20102@@@1@@Z
   ??0?$KBaseArray@V?$KBaseArraySizeType@V?$KPair@PAVKFbxTexture@fbxsdk_20102@@W4EBlendMode@KFbxLayerElementTexture@2@@fbxsdk_20102@@@fbxsdk_20102@@@fbxsdk_20102@@IAE@V?$KBaseArraySizeType@V?$KPair@PAVKFbxTexture@fbxsdk_20102@@W4EBlendMode@KFbxLayerElementTexture@2@@fbxsdk_20102@@@1@@Z
   ??0?$KBaseArray@V?$KBaseArraySizeType@VKConnection@KConnectionList@KFbxConnectionPoint@fbxsdk_20102@@@fbxsdk_20102@@@fbxsdk_20102@@IAE@V?$KBaseArraySizeType@VKConnection@KConnectionList@KFbxConnectionPoint@fbxsdk_20102@@@1@@Z
   ??0?$KBaseArray@V?$KBaseArraySizeType@VKDuplicateVertex@KFbxMesh@fbxsdk_20102@@@fbxsdk_20102@@@fbxsdk_20102@@IAE@V?$KBaseArraySizeType@VKDuplicateVertex@KFbxMesh@fbxsdk_20102@@@1@@Z
   ??0?$KBaseArray@V?$KBaseArraySizeType@VKFbxColor@fbxsdk_20102@@@fbxsdk_20102@@@fbxsdk_20102@@IAE@V?$KBaseArraySizeType@VKFbxColor@fbxsdk_20102@@@1@@Z
   ??0?$KBaseArray@V?$KBaseArraySizeType@VKFbxDataType@fbxsdk_20102@@@fbxsdk_20102@@@fbxsdk_20102@@IAE@V?$KBaseArraySizeType@VKFbxDataType@fbxsdk_20102@@@1@@Z
   ??0?$KBaseArray@V?$KBaseArraySizeType@VKFbxLinkToCharacter@KFbxNode_internal@fbxsdk_20102@@@fbxsdk_20102@@@fbxsdk_20102@@IAE@V?$KBaseArraySizeType@VKFbxLinkToCharacter@KFbxNode_internal@fbxsdk_20102@@@1@@Z
   ??0?$KBaseArray@V?$KBaseArraySizeType@VKFbxMatrix@fbxsdk_20102@@@fbxsdk_20102@@@fbxsdk_20102@@IAE@V?$KBaseArraySizeType@VKFbxMatrix@fbxsdk_20102@@@1@@Z
   ??0?$KBaseArray@V?$KBaseArraySizeType@VKFbxProperty@fbxsdk_20102@@@fbxsdk_20102@@@fbxsdk_20102@@IAE@V?$KBaseArraySizeType@VKFbxProperty@fbxsdk_20102@@@1@@Z
   ??0?$KBaseArray@V?$KBaseArraySizeType@VKFbxVector2@fbxsdk_20102@@@fbxsdk_20102@@@fbxsdk_20102@@IAE@V?$KBaseArraySizeType@VKFbxVector2@fbxsdk_20102@@@1@@Z
   ??0?$KBaseArray@V?$KBaseArraySizeType@VKFbxVector4@fbxsdk_20102@@@fbxsdk_20102@@@fbxsdk_20102@@IAE@V?$KBaseArraySizeType@VKFbxVector4@fbxsdk_20102@@@1@@Z
   ??0?$KBaseArray@V?$KBaseArraySizeType@VKFbxXMatrix@fbxsdk_20102@@@fbxsdk_20102@@@fbxsdk_20102@@IAE@V?$KBaseArraySizeType@VKFbxXMatrix@fbxsdk_20102@@@1@@Z
   ??0?$KBaseArray@V?$KBaseArraySizeType@VKString@fbxsdk_20102@@@fbxsdk_20102@@@fbxsdk_20102@@IAE@V?$KBaseArraySizeType@VKString@fbxsdk_20102@@@1@@Z
   ??0?$KBaseArray@V?$KBaseArraySizeType@VKVertexNormalInfo@KFbxMesh@fbxsdk_20102@@@fbxsdk_20102@@@fbxsdk_20102@@IAE@V?$KBaseArraySizeType@VKVertexNormalInfo@KFbxMesh@fbxsdk_20102@@@1@@Z
   ??0?$KBaseArray@V?$KBaseArraySizeType@VLayerConfig@fbxsdk_20102@@@fbxsdk_20102@@@fbxsdk_20102@@IAE@V?$KBaseArraySizeType@VLayerConfig@fbxsdk_20102@@@1@@Z
   ??0?$KBaseArray@V?$KBaseArraySizeType@W4EAttributeType@KFbxNodeAttribute@fbxsdk_20102@@@fbxsdk_20102@@@fbxsdk_20102@@IAE@V?$KBaseArraySizeType@W4EAttributeType@KFbxNodeAttribute@fbxsdk_20102@@@1@@Z
   ??0?$KBaseArray@V?$KBaseArraySizeType@W4ECharacterInputType@fbxsdk_20102@@@fbxsdk_20102@@@fbxsdk_20102@@IAE@V?$KBaseArraySizeType@W4ECharacterInputType@fbxsdk_20102@@@1@@Z
   ??0?$KBaseArray@V?$KBaseArraySizeType@W4ELayerElementType@KFbxLayerElement@fbxsdk_20102@@@fbxsdk_20102@@@fbxsdk_20102@@IAE@V?$KBaseArraySizeType@W4ELayerElementType@KFbxLayerElement@fbxsdk_20102@@@1@@Z
   ??0?$KBaseArray@VKBaseArraySize@fbxsdk_20102@@@fbxsdk_20102@@IAE@VKBaseArraySize@1@@Z
   ??0?$KDynamicArray@_NVKBaseAllocator@fbxsdk_20102@@@fbxsdk_20102@@QAE@XZ
   ??0?$KDynamicArray@HVKBaseAllocator@fbxsdk_20102@@@fbxsdk_20102@@QAE@XZ
   ??0?$KDynamicArray@MVKBaseAllocator@fbxsdk_20102@@@fbxsdk_20102@@QAE@XZ
   ??0?$KDynamicArray@UFilePathData@KFbxProcessorShaderDependency@fbxsdk_20102@@VKBaseAllocator@3@@fbxsdk_20102@@QAE@XZ
   ??0?$KDynamicArray@VKFbxBindingTableEntry@fbxsdk_20102@@VKBaseAllocator@2@@fbxsdk_20102@@QAE@XZ
   ??0?$KDynamicArray@VKString@fbxsdk_20102@@VKBaseAllocator@2@@fbxsdk_20102@@QAE@XZ
   ??0?$KFbxEvent@VKFbxEventPopulateSystemLibrary@fbxsdk_20102@@@kfbxevents@fbxsdk_20102@@QAE@XZ
   ??0?$KFbxEvent@VKFbxEventPostExport@fbxsdk_20102@@@kfbxevents@fbxsdk_20102@@QAE@XZ
   ??0?$KFbxEvent@VKFbxEventPostImport@fbxsdk_20102@@@kfbxevents@fbxsdk_20102@@QAE@XZ
   ??0?$KFbxEvent@VKFbxEventPreExport@fbxsdk_20102@@@kfbxevents@fbxsdk_20102@@QAE@XZ
   ??0?$KFbxEvent@VKFbxEventPreImport@fbxsdk_20102@@@kfbxevents@fbxsdk_20102@@QAE@XZ
   ??0?$KFbxEvent@VKFbxEventReferencedDocument@fbxsdk_20102@@@kfbxevents@fbxsdk_20102@@QAE@XZ
   ??0?$KFbxEvent@VKFbxEventWriteLocalization@fbxsdk_20102@@@kfbxevents@fbxsdk_20102@@QAE@XZ
   ??0?$KFbxEvent@VKFbxObjectPropertyChanged@fbxsdk_20102@@@kfbxevents@fbxsdk_20102@@QAE@XZ
   ??0?$KFbxEvent@VKFbxScriptEvent@fbxsdk_20102@@@kfbxevents@fbxsdk_20102@@QAE@XZ
   ??0?$KFbxIterator@VKFbxProperty@fbxsdk_20102@@@fbxsdk_20102@@QAE@PBVKFbxObject@1@@Z
   ??0?$KFbxIteratorDst@VKFbxImplementation@fbxsdk_20102@@@fbxsdk_20102@@QAE@PAVKFbxObject@1@@Z
   ??0?$KFbxIteratorSrc@VKFbxLibrary@fbxsdk_20102@@@fbxsdk_20102@@QAE@PAVKFbxObject@1@@Z
   ??0?$KFbxIteratorSrc@VKFbxNode@fbxsdk_20102@@@fbxsdk_20102@@QAE@PAVKFbxObject@1@@Z
   ??0?$KFbxIteratorSrc@VKFbxObject@fbxsdk_20102@@@fbxsdk_20102@@QAE@AAVKFbxProperty@1@@Z
   ??0?$KFbxIteratorSrc@VKFbxObject@fbxsdk_20102@@@fbxsdk_20102@@QAE@PAVKFbxObject@1@@Z
   ??0?$KFbxLayerElementArrayReadLock@_N@fbxsdk_20102@@QAE@AAVKFbxLayerElementArray@1@@Z
   ??0?$KFbxLayerElementArrayReadLock@H@fbxsdk_20102@@QAE@AAVKFbxLayerElementArray@1@@Z
   ??0?$KFbxLayerElementArrayReadLock@M@fbxsdk_20102@@QAE@AAVKFbxLayerElementArray@1@@Z
   ??0?$KFbxLayerElementArrayReadLock@N@fbxsdk_20102@@QAE@AAVKFbxLayerElementArray@1@@Z
   ??0?$KFbxLayerElementArrayReadLock@VKFbxColor@fbxsdk_20102@@@fbxsdk_20102@@QAE@AAVKFbxLayerElementArray@1@@Z
   ??0?$KFbxLayerElementArrayReadLock@VKFbxVector2@fbxsdk_20102@@@fbxsdk_20102@@QAE@AAVKFbxLayerElementArray@1@@Z
   ??0?$KFbxLayerElementArrayReadLock@VKFbxVector4@fbxsdk_20102@@@fbxsdk_20102@@QAE@AAVKFbxLayerElementArray@1@@Z
   ??0?$KFbxLayerElementArrayTemplate@_N@fbxsdk_20102@@QAE@W4EFbxType@1@@Z
   ??0?$KFbxLayerElementArrayTemplate@H@fbxsdk_20102@@QAE@W4EFbxType@1@@Z
   ??0?$KFbxLayerElementArrayTemplate@M@fbxsdk_20102@@QAE@W4EFbxType@1@@Z
   ??0?$KFbxLayerElementArrayTemplate@N@fbxsdk_20102@@QAE@W4EFbxType@1@@Z
   ??0?$KFbxLayerElementArrayTemplate@PAVKFbxSurfaceMaterial@fbxsdk_20102@@@fbxsdk_20102@@QAE@W4EFbxType@1@@Z
   ??0?$KFbxLayerElementArrayTemplate@PAVKFbxTexture@fbxsdk_20102@@@fbxsdk_20102@@QAE@W4EFbxType@1@@Z
   ??0?$KFbxLayerElementArrayTemplate@PAX@fbxsdk_20102@@QAE@W4EFbxType@1@@Z
   ??0?$KFbxLayerElementArrayTemplate@VKFbxColor@fbxsdk_20102@@@fbxsdk_20102@@QAE@W4EFbxType@1@@Z
   ??0?$KFbxLayerElementArrayTemplate@VKFbxVector2@fbxsdk_20102@@@fbxsdk_20102@@QAE@W4EFbxType@1@@Z
   ??0?$KFbxLayerElementArrayTemplate@VKFbxVector4@fbxsdk_20102@@@fbxsdk_20102@@QAE@W4EFbxType@1@@Z
   ??0?$KFbxLayerElementTemplate@_N@fbxsdk_20102@@IAE@XZ
   ??0?$KFbxLayerElementTemplate@H@fbxsdk_20102@@IAE@XZ
   ??0?$KFbxLayerElementTemplate@N@fbxsdk_20102@@IAE@XZ
   ??0?$KFbxLayerElementTemplate@PAVKFbxSurfaceMaterial@fbxsdk_20102@@@fbxsdk_20102@@IAE@XZ
   ??0?$KFbxLayerElementTemplate@PAVKFbxTexture@fbxsdk_20102@@@fbxsdk_20102@@IAE@XZ
   ??0?$KFbxLayerElementTemplate@PAX@fbxsdk_20102@@IAE@XZ
   ??0?$KFbxLayerElementTemplate@VKFbxColor@fbxsdk_20102@@@fbxsdk_20102@@IAE@XZ
   ??0?$KFbxLayerElementTemplate@VKFbxVector2@fbxsdk_20102@@@fbxsdk_20102@@IAE@XZ
   ??0?$KFbxLayerElementTemplate@VKFbxVector4@fbxsdk_20102@@@fbxsdk_20102@@IAE@XZ
   ??0?$KFbxMap@VKString@fbxsdk_20102@@PAVKFbxObject@2@VKFbxMapKStringCompare@2@@fbxsdk_20102@@QAE@XZ
   ??0?$KFbxMemberFuncEventHandler@VKFbxObjectPropertyChanged@fbxsdk_20102@@VKFbxUINode@2@@kfbxevents@fbxsdk_20102@@QAE@PAVKFbxUINode@2@P832@AEXPBVKFbxObjectPropertyChanged@2@@Z@Z
   ??0?$KFbxMemberFuncEventHandler@VKFbxScriptEvent@fbxsdk_20102@@VKFbxUIInstance@2@@kfbxevents@fbxsdk_20102@@QAE@PAVKFbxUIInstance@2@P832@AEXPBVKFbxScriptEvent@2@@Z@Z
   ??0?$KFbxMemberFuncEventHandler@VKFbxUIUpdateEvent@fbxsdk_20102@@VKFbxUIInstance@2@@kfbxevents@fbxsdk_20102@@QAE@PAVKFbxUIInstance@2@P832@AEXPBVKFbxUIUpdateEvent@2@@Z@Z
   ??0?$KFbxObjectMap@VKString@fbxsdk_20102@@VKFbxMapKStringCompare@2@@fbxsdk_20102@@QAE@XZ
   ??0?$KFBXObjectScopedPtr@VKFbxCondition@fbxsdk_20102@@@fbxsdk_20102@@QAE@PAVKFbxCondition@1@@Z
   ??0?$KFBXObjectScopedPtr@VKFbxDocumentInfo@fbxsdk_20102@@@fbxsdk_20102@@QAE@PAVKFbxDocumentInfo@1@@Z
   ??0?$KFBXObjectScopedPtr@VKFbxExporter@fbxsdk_20102@@@fbxsdk_20102@@QAE@PAVKFbxExporter@1@@Z
   ??0?$KFBXObjectScopedPtr@VKFbxImporter@fbxsdk_20102@@@fbxsdk_20102@@QAE@PAVKFbxImporter@1@@Z
   ??0?$KFBXObjectScopedPtr@VKFbxLibrary@fbxsdk_20102@@@fbxsdk_20102@@QAE@PAVKFbxLibrary@1@@Z
   ??0?$KFBXObjectScopedPtr@VKFbxObject@fbxsdk_20102@@@fbxsdk_20102@@QAE@PAVKFbxObject@1@@Z
   ??0?$KFBXObjectScopedPtr@VKFbxProcessorXRefCopy@fbxsdk_20102@@@fbxsdk_20102@@QAE@PAVKFbxProcessorXRefCopy@1@@Z
   ??0?$KFBXObjectScopedPtr@VKFbxProcessorXRefCopyUserLibrary@fbxsdk_20102@@@fbxsdk_20102@@QAE@PAVKFbxProcessorXRefCopyUserLibrary@1@@Z
   ??0?$KFBXObjectScopedPtr@VKFbxStreamOptions@fbxsdk_20102@@@fbxsdk_20102@@QAE@PAVKFbxStreamOptions@1@@Z
   ??0?$KFBXObjectScopedPtr@VKFbxStreamOptionsFbxWriter@fbxsdk_20102@@@fbxsdk_20102@@QAE@PAVKFbxStreamOptionsFbxWriter@1@@Z
   ??0?$KFBXObjectScopedPtr@VKFbxUIDefinition@fbxsdk_20102@@@fbxsdk_20102@@QAE@PAVKFbxUIDefinition@1@@Z
   ??0?$KFBXObjectScopedPtr@VKFbxUIImporter@fbxsdk_20102@@@fbxsdk_20102@@QAE@PAVKFbxUIImporter@1@@Z
   ??0?$KFBXObjectScopedPtr@VKFbxUIInstance@fbxsdk_20102@@@fbxsdk_20102@@QAE@PAVKFbxUIInstance@1@@Z
   ??0?$KFBXObjectScopedPtr@VKFbxUIView@fbxsdk_20102@@@fbxsdk_20102@@QAE@PAVKFbxUIView@1@@Z
   ??0?$KFbxPropertyValueCondition@_N@fbxsdk_20102@@IAE@ABVKFbxProperty@1@_N1@Z
   ??0?$KFbxPropertyValueCondition@H@fbxsdk_20102@@IAE@ABVKFbxProperty@1@H_N@Z
   ??0?$KFbxPropertyValueCondition@M@fbxsdk_20102@@IAE@ABVKFbxProperty@1@M_N@Z
   ??0?$KFbxTypedProperty@_N@fbxsdk_20102@@QAE@ABV01@@Z
   ??0?$KFbxTypedProperty@_N@fbxsdk_20102@@QAE@ABVKFbxProperty@1@@Z
   ??0?$KFbxTypedProperty@_N@fbxsdk_20102@@QAE@XZ
   ??0?$KFbxTypedProperty@H@fbxsdk_20102@@QAE@ABVKFbxProperty@1@@Z
   ??0?$KFbxTypedProperty@H@fbxsdk_20102@@QAE@XZ
   ??0?$KFbxTypedProperty@N@fbxsdk_20102@@QAE@ABV01@@Z
   ??0?$KFbxTypedProperty@N@fbxsdk_20102@@QAE@ABVKFbxProperty@1@@Z
   ??0?$KFbxTypedProperty@N@fbxsdk_20102@@QAE@XZ
   ??0?$KFbxTypedProperty@PAVfbxReference@fbxsdk_20102@@@fbxsdk_20102@@QAE@ABVKFbxProperty@1@@Z
   ??0?$KFbxTypedProperty@PAVfbxReference@fbxsdk_20102@@@fbxsdk_20102@@QAE@XZ
   ??0?$KFbxTypedProperty@V?$fbxVectorTemplate2@N@fbxsdk_20102@@@fbxsdk_20102@@QAE@ABVKFbxProperty@1@@Z
   ??0?$KFbxTypedProperty@V?$fbxVectorTemplate2@N@fbxsdk_20102@@@fbxsdk_20102@@QAE@XZ
   ??0?$KFbxTypedProperty@V?$fbxVectorTemplate3@N@fbxsdk_20102@@@fbxsdk_20102@@QAE@ABV01@@Z
   ??0?$KFbxTypedProperty@V?$fbxVectorTemplate3@N@fbxsdk_20102@@@fbxsdk_20102@@QAE@ABVKFbxProperty@1@@Z
   ??0?$KFbxTypedProperty@V?$fbxVectorTemplate3@N@fbxsdk_20102@@@fbxsdk_20102@@QAE@XZ
   ??0?$KFbxTypedProperty@VfbxDateTime@fbxsdk_20102@@@fbxsdk_20102@@QAE@ABVKFbxProperty@1@@Z
   ??0?$KFbxTypedProperty@VfbxDateTime@fbxsdk_20102@@@fbxsdk_20102@@QAE@XZ
   ??0?$KFbxTypedProperty@VfbxReference@fbxsdk_20102@@@fbxsdk_20102@@QAE@ABVKFbxProperty@1@@Z
   ??0?$KFbxTypedProperty@VfbxReference@fbxsdk_20102@@@fbxsdk_20102@@QAE@XZ
   ??0?$KFbxTypedProperty@VKFbxXMatrix@fbxsdk_20102@@@fbxsdk_20102@@QAE@XZ
   ??0?$KFbxTypedProperty@VKString@fbxsdk_20102@@@fbxsdk_20102@@QAE@ABV01@@Z
   ??0?$KFbxTypedProperty@VKString@fbxsdk_20102@@@fbxsdk_20102@@QAE@ABVKFbxProperty@1@@Z
   ??0?$KFbxTypedProperty@VKString@fbxsdk_20102@@@fbxsdk_20102@@QAE@XZ
   ??0?$KFbxTypedProperty@VKTime@fbxsdk_20102@@@fbxsdk_20102@@QAE@ABVKFbxProperty@1@@Z
   ??0?$KFbxTypedProperty@VKTime@fbxsdk_20102@@@fbxsdk_20102@@QAE@XZ
   ??0?$KFbxTypedProperty@W4ComponentEncoding@KFbxImagePixelFormat@fbxsdk_20102@@@fbxsdk_20102@@QAE@ABVKFbxProperty@1@@Z
   ??0?$KFbxTypedProperty@W4ComponentEncoding@KFbxImagePixelFormat@fbxsdk_20102@@@fbxsdk_20102@@QAE@XZ
   ??0?$KFbxTypedProperty@W4EAccessMode@KFbxVideo@fbxsdk_20102@@@fbxsdk_20102@@QAE@ABVKFbxProperty@1@@Z
   ??0?$KFbxTypedProperty@W4EAccessMode@KFbxVideo@fbxsdk_20102@@@fbxsdk_20102@@QAE@XZ
   ??0?$KFbxTypedProperty@W4EBlendMode@KFbxTexture@fbxsdk_20102@@@fbxsdk_20102@@QAE@ABVKFbxProperty@1@@Z
   ??0?$KFbxTypedProperty@W4EBlendMode@KFbxTexture@fbxsdk_20102@@@fbxsdk_20102@@QAE@XZ
   ??0?$KFbxTypedProperty@W4ECameraAntialiasingMethod@KFbxCamera@fbxsdk_20102@@@fbxsdk_20102@@QAE@ABVKFbxProperty@1@@Z
   ??0?$KFbxTypedProperty@W4ECameraAntialiasingMethod@KFbxCamera@fbxsdk_20102@@@fbxsdk_20102@@QAE@XZ
   ??0?$KFbxTypedProperty@W4ECameraApertureFormat@KFbxCamera@fbxsdk_20102@@@fbxsdk_20102@@QAE@ABVKFbxProperty@1@@Z
   ??0?$KFbxTypedProperty@W4ECameraApertureFormat@KFbxCamera@fbxsdk_20102@@@fbxsdk_20102@@QAE@XZ
   ??0?$KFbxTypedProperty@W4ECameraApertureMode@KFbxCamera@fbxsdk_20102@@@fbxsdk_20102@@QAE@ABVKFbxProperty@1@@Z
   ??0?$KFbxTypedProperty@W4ECameraApertureMode@KFbxCamera@fbxsdk_20102@@@fbxsdk_20102@@QAE@XZ
   ??0?$KFbxTypedProperty@W4ECameraAspectRatioMode@KFbxCamera@fbxsdk_20102@@@fbxsdk_20102@@QAE@ABVKFbxProperty@1@@Z
   ??0?$KFbxTypedProperty@W4ECameraAspectRatioMode@KFbxCamera@fbxsdk_20102@@@fbxsdk_20102@@QAE@XZ
   ??0?$KFbxTypedProperty@W4ECameraFilmRollOrder@KFbxCamera@fbxsdk_20102@@@fbxsdk_20102@@QAE@ABVKFbxProperty@1@@Z
   ??0?$KFbxTypedProperty@W4ECameraFilmRollOrder@KFbxCamera@fbxsdk_20102@@@fbxsdk_20102@@QAE@XZ
   ??0?$KFbxTypedProperty@W4ECameraFocusDistanceSource@KFbxCamera@fbxsdk_20102@@@fbxsdk_20102@@QAE@ABVKFbxProperty@1@@Z
   ??0?$KFbxTypedProperty@W4ECameraFocusDistanceSource@KFbxCamera@fbxsdk_20102@@@fbxsdk_20102@@QAE@XZ
   ??0?$KFbxTypedProperty@W4ECameraFormat@KFbxCamera@fbxsdk_20102@@@fbxsdk_20102@@QAE@ABVKFbxProperty@1@@Z
   ??0?$KFbxTypedProperty@W4ECameraFormat@KFbxCamera@fbxsdk_20102@@@fbxsdk_20102@@QAE@XZ
   ??0?$KFbxTypedProperty@W4ECameraFrontBackPlaneDisplayMode@KFbxCamera@fbxsdk_20102@@@fbxsdk_20102@@QAE@ABVKFbxProperty@1@@Z
   ??0?$KFbxTypedProperty@W4ECameraFrontBackPlaneDisplayMode@KFbxCamera@fbxsdk_20102@@@fbxsdk_20102@@QAE@XZ
   ??0?$KFbxTypedProperty@W4ECameraFrontBackPlaneDistanceMode@KFbxCamera@fbxsdk_20102@@@fbxsdk_20102@@QAE@ABVKFbxProperty@1@@Z
   ??0?$KFbxTypedProperty@W4ECameraFrontBackPlaneDistanceMode@KFbxCamera@fbxsdk_20102@@@fbxsdk_20102@@QAE@XZ
   ??0?$KFbxTypedProperty@W4ECameraGateFit@KFbxCamera@fbxsdk_20102@@@fbxsdk_20102@@QAE@ABVKFbxProperty@1@@Z
   ??0?$KFbxTypedProperty@W4ECameraGateFit@KFbxCamera@fbxsdk_20102@@@fbxsdk_20102@@QAE@XZ
   ??0?$KFbxTypedProperty@W4ECameraProjectionType@KFbxCamera@fbxsdk_20102@@@fbxsdk_20102@@QAE@ABVKFbxProperty@1@@Z
   ??0?$KFbxTypedProperty@W4ECameraProjectionType@KFbxCamera@fbxsdk_20102@@@fbxsdk_20102@@QAE@XZ
   ??0?$KFbxTypedProperty@W4ECameraSafeAreaStyle@KFbxCamera@fbxsdk_20102@@@fbxsdk_20102@@QAE@ABVKFbxProperty@1@@Z
   ??0?$KFbxTypedProperty@W4ECameraSafeAreaStyle@KFbxCamera@fbxsdk_20102@@@fbxsdk_20102@@QAE@XZ
   ??0?$KFbxTypedProperty@W4ECameraSamplingType@KFbxCamera@fbxsdk_20102@@@fbxsdk_20102@@QAE@ABVKFbxProperty@1@@Z
   ??0?$KFbxTypedProperty@W4ECameraSamplingType@KFbxCamera@fbxsdk_20102@@@fbxsdk_20102@@QAE@XZ
   ??0?$KFbxTypedProperty@W4ECameraStereo@KFbxCameraStereo@fbxsdk_20102@@@fbxsdk_20102@@QAE@ABVKFbxProperty@1@@Z
   ??0?$KFbxTypedProperty@W4ECameraStereo@KFbxCameraStereo@fbxsdk_20102@@@fbxsdk_20102@@QAE@XZ
   ??0?$KFbxTypedProperty@W4EDecayType@KFbxLight@fbxsdk_20102@@@fbxsdk_20102@@QAE@ABVKFbxProperty@1@@Z
   ??0?$KFbxTypedProperty@W4EDecayType@KFbxLight@fbxsdk_20102@@@fbxsdk_20102@@QAE@XZ
   ??0?$KFbxTypedProperty@W4EInterlaceMode@KFbxVideo@fbxsdk_20102@@@fbxsdk_20102@@QAE@ABVKFbxProperty@1@@Z
   ??0?$KFbxTypedProperty@W4EInterlaceMode@KFbxVideo@fbxsdk_20102@@@fbxsdk_20102@@QAE@XZ
   ??0?$KFbxTypedProperty@W4ELightType@KFbxLight@fbxsdk_20102@@@fbxsdk_20102@@QAE@ABVKFbxProperty@1@@Z
   ??0?$KFbxTypedProperty@W4ELightType@KFbxLight@fbxsdk_20102@@@fbxsdk_20102@@QAE@XZ
   ??0?$KFbxTypedProperty@W4ELook@KFbxMarker@fbxsdk_20102@@@fbxsdk_20102@@QAE@ABVKFbxProperty@1@@Z
   ??0?$KFbxTypedProperty@W4ELook@KFbxMarker@fbxsdk_20102@@@fbxsdk_20102@@QAE@XZ
   ??0?$KFbxTypedProperty@W4ELook@KFbxNull@fbxsdk_20102@@@fbxsdk_20102@@QAE@ABVKFbxProperty@1@@Z
   ??0?$KFbxTypedProperty@W4ELook@KFbxNull@fbxsdk_20102@@@fbxsdk_20102@@QAE@XZ
   ??0?$KFbxTypedProperty@W4ERotationOrder@fbxsdk_20102@@@fbxsdk_20102@@QAE@ABVKFbxProperty@1@@Z
   ??0?$KFbxTypedProperty@W4ERotationOrder@fbxsdk_20102@@@fbxsdk_20102@@QAE@XZ
   ??0?$KFbxTypedProperty@W4ETextureUse6@KFbxTexture@fbxsdk_20102@@@fbxsdk_20102@@QAE@ABVKFbxProperty@1@@Z
   ??0?$KFbxTypedProperty@W4ETextureUse6@KFbxTexture@fbxsdk_20102@@@fbxsdk_20102@@QAE@XZ
   ??0?$KFbxTypedProperty@W4ETransformInheritType@fbxsdk_20102@@@fbxsdk_20102@@QAE@ABVKFbxProperty@1@@Z
   ??0?$KFbxTypedProperty@W4ETransformInheritType@fbxsdk_20102@@@fbxsdk_20102@@QAE@XZ
   ??0?$KFbxTypedProperty@W4EType@KFbxControlSet@fbxsdk_20102@@@fbxsdk_20102@@QAE@ABVKFbxProperty@1@@Z
   ??0?$KFbxTypedProperty@W4EType@KFbxControlSet@fbxsdk_20102@@@fbxsdk_20102@@QAE@XZ
   ??0?$KFbxTypedProperty@W4EUnifiedMappingType@KFbxTexture@fbxsdk_20102@@@fbxsdk_20102@@QAE@ABVKFbxProperty@1@@Z
   ??0?$KFbxTypedProperty@W4EUnifiedMappingType@KFbxTexture@fbxsdk_20102@@@fbxsdk_20102@@QAE@XZ
   ??0?$KFbxTypedProperty@W4EWrapMode@KFbxTexture@fbxsdk_20102@@@fbxsdk_20102@@QAE@ABVKFbxProperty@1@@Z
   ??0?$KFbxTypedProperty@W4EWrapMode@KFbxTexture@fbxsdk_20102@@@fbxsdk_20102@@QAE@XZ
   ??0?$KFbxTypedProperty@W4kCharacterAutoUser@fbxsdk_20102@@@fbxsdk_20102@@QAE@ABVKFbxProperty@1@@Z
   ??0?$KFbxTypedProperty@W4kCharacterAutoUser@fbxsdk_20102@@@fbxsdk_20102@@QAE@XZ
   ??0?$KFbxTypedProperty@W4kCharacterContactBehaviour@fbxsdk_20102@@@fbxsdk_20102@@QAE@ABVKFbxProperty@1@@Z
   ??0?$KFbxTypedProperty@W4kCharacterContactBehaviour@fbxsdk_20102@@@fbxsdk_20102@@QAE@XZ
   ??0?$KFbxTypedProperty@W4kCharacterFingerContactMode@fbxsdk_20102@@@fbxsdk_20102@@QAE@ABVKFbxProperty@1@@Z
   ??0?$KFbxTypedProperty@W4kCharacterFingerContactMode@fbxsdk_20102@@@fbxsdk_20102@@QAE@XZ
   ??0?$KFbxTypedProperty@W4kCharacterFloorPivot@fbxsdk_20102@@@fbxsdk_20102@@QAE@ABVKFbxProperty@1@@Z
   ??0?$KFbxTypedProperty@W4kCharacterFloorPivot@fbxsdk_20102@@@fbxsdk_20102@@QAE@XZ
   ??0?$KFbxTypedProperty@W4kCharacterFootContactType@fbxsdk_20102@@@fbxsdk_20102@@QAE@ABVKFbxProperty@1@@Z
   ??0?$KFbxTypedProperty@W4kCharacterFootContactType@fbxsdk_20102@@@fbxsdk_20102@@QAE@XZ
   ??0?$KFbxTypedProperty@W4kCharacterHandContactType@fbxsdk_20102@@@fbxsdk_20102@@QAE@ABVKFbxProperty@1@@Z
   ??0?$KFbxTypedProperty@W4kCharacterHandContactType@fbxsdk_20102@@@fbxsdk_20102@@QAE@XZ
   ??0?$KFbxTypedProperty@W4kCharacterHipsTranslationMode@fbxsdk_20102@@@fbxsdk_20102@@QAE@ABVKFbxProperty@1@@Z
   ??0?$KFbxTypedProperty@W4kCharacterHipsTranslationMode@fbxsdk_20102@@@fbxsdk_20102@@QAE@XZ
   ??0?$KFbxTypedProperty@W4kCharacterOffAutoUser@fbxsdk_20102@@@fbxsdk_20102@@QAE@ABVKFbxProperty@1@@Z
   ??0?$KFbxTypedProperty@W4kCharacterOffAutoUser@fbxsdk_20102@@@fbxsdk_20102@@QAE@XZ
   ??0?$KFbxTypedProperty@W4kCharacterPosture@fbxsdk_20102@@@fbxsdk_20102@@QAE@ABVKFbxProperty@1@@Z
   ??0?$KFbxTypedProperty@W4kCharacterPosture@fbxsdk_20102@@@fbxsdk_20102@@QAE@XZ
   ??0?$KFbxTypedProperty@W4kCharacterRollExtractionMode@fbxsdk_20102@@@fbxsdk_20102@@QAE@ABVKFbxProperty@1@@Z
   ??0?$KFbxTypedProperty@W4kCharacterRollExtractionMode@fbxsdk_20102@@@fbxsdk_20102@@QAE@XZ
   ??0?$KFbxTypedProperty@W4PixelEncoding@KFbxImagePixelFormat@fbxsdk_20102@@@fbxsdk_20102@@QAE@ABVKFbxProperty@1@@Z
   ??0?$KFbxTypedProperty@W4PixelEncoding@KFbxImagePixelFormat@fbxsdk_20102@@@fbxsdk_20102@@QAE@XZ
   ??0?$KFbxUITree@VKFbxUINode@fbxsdk_20102@@@fbxsdk_20102@@IAE@XZ
   ??0?$KHashMap@PAVKFbxLayeredTexture@fbxsdk_20102@@HVLayeredTextureHash@2@V?$NoOpDestruct@H@2@VLayeredTexPtrComparator@KFbxMaterialConverterImpl@2@@fbxsdk_20102@@QAE@XZ
   ??0?$KHashMap@VkFbxClassId@fbxsdk_20102@@PAV?$KArrayTemplate@PAVKFbxPreviewGeneratorFactory@fbxsdk_20102@@@2@VClassIdHash@Impl@KFbxPreviewManager@2@V?$PtrDestruct@PAV?$KArrayTemplate@PAVKFbxPreviewGeneratorFactory@fbxsdk_20102@@@fbxsdk_20102@@@2@V?$DefaultComparator@VkFbxClassId@fbxsdk_20102@@@2@@fbxsdk_20102@@QAE@H@Z
   ??0?$KHashMap@VKString@fbxsdk_20102@@UDependency@KFbxProcessorShaderDependency@2@VKStringHash@42@V?$NoOpDestruct@UDependency@KFbxProcessorShaderDependency@fbxsdk_20102@@@2@V?$DefaultComparator@VKString@fbxsdk_20102@@@2@@fbxsdk_20102@@QAE@XZ
   ??0?$KHashMap@VLayerConfig@fbxsdk_20102@@HVLayerConfigHash@2@V?$NoOpDestruct@H@2@V?$DefaultComparator@VLayerConfig@fbxsdk_20102@@@2@@fbxsdk_20102@@QAE@H@Z
   ??0?$KHashMap@VLayerConfig@fbxsdk_20102@@PAVKFbxSurfaceMaterial@2@VLayerConfigHash@2@V?$NoOpDestruct@PAVKFbxSurfaceMaterial@fbxsdk_20102@@@2@V?$DefaultComparator@VLayerConfig@fbxsdk_20102@@@2@@fbxsdk_20102@@QAE@XZ
   ??0?$KIntrusiveList@VKFbxEventHandler@kfbxevents@fbxsdk_20102@@$00@fbxsdk_20102@@QAE@XZ
   ??0?$KIntrusiveList@VKFbxEventHandler@kfbxevents@fbxsdk_20102@@$0A@@fbxsdk_20102@@QAE@XZ
   ??0?$KIntrusiveList@VKFbxPlugin@fbxsdk_20102@@$0A@@fbxsdk_20102@@QAE@XZ
   ??0?$KIntrusiveList@VKFbxPluginHandle@fbxsdk_20102@@$0A@@fbxsdk_20102@@QAE@XZ
   ??0?$KListNode@VKFbxEventHandler@kfbxevents@fbxsdk_20102@@@fbxsdk_20102@@QAE@PAVKFbxEventHandler@kfbxevents@1@@Z
   ??0?$KListNode@VKFbxPlugin@fbxsdk_20102@@@fbxsdk_20102@@QAE@PAVKFbxPlugin@1@@Z
   ??0?$KListNode@VKFbxPluginHandle@fbxsdk_20102@@@fbxsdk_20102@@QAE@PAVKFbxPluginHandle@1@@Z
   ??0?$KMap@_JPAVKFbxObject@fbxsdk_20102@@U?$KFbxLessCompare@_J@2@VKBaseAllocator@2@@fbxsdk_20102@@QAE@XZ
   ??0?$KMap@HHU?$KFbxLessCompare@H@fbxsdk_20102@@VKBaseAllocator@2@@fbxsdk_20102@@QAE@XZ
   ??0?$KMap@HPAVKFbxPropertyEntry@fbxsdk_20102@@U?$KFbxLessCompare@H@2@VKHungryAllocator@2@@fbxsdk_20102@@QAE@XZ
   ??0?$KMap@PAVKFbxObject@fbxsdk_20102@@_JU?$KFbxLessCompare@PAVKFbxObject@fbxsdk_20102@@@2@VKBaseAllocator@2@@fbxsdk_20102@@QAE@XZ
   ??0?$KMap@PAVKFbxObject@fbxsdk_20102@@UCloneSetElement@KFbxCloneManager@2@VKFbxObjectCompare@42@VKBaseAllocator@2@@fbxsdk_20102@@QAE@ABV01@@Z
   ??0?$KMap@PAVKFbxObject@fbxsdk_20102@@UCloneSetElement@KFbxCloneManager@2@VKFbxObjectCompare@42@VKBaseAllocator@2@@fbxsdk_20102@@QAE@XZ
   ??0?$KMap@PAVKFbxObject@fbxsdk_20102@@V?$KSet2@UKFbxPropertyUpdate@KFbxProcessorXRefCopy@fbxsdk_20102@@U?$KFbxLessCompare@UKFbxPropertyUpdate@KFbxProcessorXRefCopy@fbxsdk_20102@@@3@VKBaseAllocator@3@@2@U?$KFbxLessCompare@PAVKFbxObject@fbxsdk_20102@@@2@VKBaseAllocator@2@@fbxsdk_20102@@QAE@XZ
   ??0?$KMap@PAVKFbxObject@fbxsdk_20102@@V?$KSet2@UKFbxPropertyUrlIndex@KFbxEmbeddedFilesAccumulator@fbxsdk_20102@@UKFbxPropertyUrlIndexCompare@23@VKBaseAllocator@3@@2@U?$KFbxLessCompare@PAVKFbxObject@fbxsdk_20102@@@2@VKBaseAllocator@2@@fbxsdk_20102@@QAE@ABV01@@Z
   ??0?$KMap@PAVKFbxObject@fbxsdk_20102@@V?$KSet2@UKFbxPropertyUrlIndex@KFbxEmbeddedFilesAccumulator@fbxsdk_20102@@UKFbxPropertyUrlIndexCompare@23@VKBaseAllocator@3@@2@U?$KFbxLessCompare@PAVKFbxObject@fbxsdk_20102@@@2@VKBaseAllocator@2@@fbxsdk_20102@@QAE@XZ
   ??0?$KMap@PBDPBVFunctionCreatorBase@KFbxBindingOperator@fbxsdk_20102@@VKCharCompare@3@VKBaseAllocator@3@@fbxsdk_20102@@QAE@XZ
   ??0?$KMap@V?$KPair@HH@fbxsdk_20102@@HVPointsToEdgeComparator@2@VKBaseAllocator@2@@fbxsdk_20102@@QAE@XZ
   ??0?$KMap@V?$KPair@HPBD@fbxsdk_20102@@HVKNameMapCompare@2@VKBaseAllocator@2@@fbxsdk_20102@@QAE@XZ
   ??0?$KMap@V?$KPair@VKString@fbxsdk_20102@@V12@@fbxsdk_20102@@IVKStringPairCompare@2@VKBaseAllocator@2@@fbxsdk_20102@@QAE@XZ
   ??0?$KMap@VkFbxClassId@fbxsdk_20102@@PAVKFbxObject@2@VkFbxClassIdCompare@ClassTemplateMap@?A0xa88da042@2@VKBaseAllocator@2@@fbxsdk_20102@@QAE@XZ
   ??0?$KMap@VkFbxClassId@fbxsdk_20102@@PAVKFbxObject@2@VkFbxClassIdCompare@Fbx6ClassTemplateMap@2@VKBaseAllocator@2@@fbxsdk_20102@@QAE@XZ
   ??0?$KMap@VKString@fbxsdk_20102@@HVKStringCompare@2@VKBaseAllocator@2@@fbxsdk_20102@@QAE@XZ
   ??0?$KMap@VKString@fbxsdk_20102@@PAVKFbxObject@2@VKFbxMapKStringCompare@2@VKBaseAllocator@2@@fbxsdk_20102@@QAE@XZ
   ??0?$KMap@VKString@fbxsdk_20102@@UKFbxEmbeddedFileInfo@KFbxEmbeddedFilesAccumulator@2@U?$KFbxLessCompare@VKString@fbxsdk_20102@@@2@VKBaseAllocator@2@@fbxsdk_20102@@QAE@XZ
   ??0?$KMap@VKString@fbxsdk_20102@@V12@U?$KFbxLessCompare@VKString@fbxsdk_20102@@@2@VKBaseAllocator@2@@fbxsdk_20102@@QAE@XZ
   ??0?$KMap@VKString@fbxsdk_20102@@VKFbxProperty@2@VKFbxStringCompare@KFbxUIBuilder@2@VKBaseAllocator@2@@fbxsdk_20102@@QAE@XZ
   ??0?$KMpMutexHelper@VKMpMutex@fbxsdk_20102@@@fbxsdk_20102@@QAE@AAVKMpMutex@1@@Z
   ??0?$KPair@$$CB_JPAVKFbxObject@fbxsdk_20102@@@fbxsdk_20102@@QAE@AB_JABQAVKFbxObject@1@@Z
   ??0?$KPair@$$CBHH@fbxsdk_20102@@QAE@ABH0@Z
   ??0?$KPair@$$CBHPAVKFbxPropertyEntry@fbxsdk_20102@@@fbxsdk_20102@@QAE@ABHABQAVKFbxPropertyEntry@1@@Z
   ??0?$KPair@$$CBV?$KPair@HH@fbxsdk_20102@@H@fbxsdk_20102@@QAE@ABV?$KPair@HH@1@ABH@Z
   ??0?$KPair@$$CBV?$KPair@HPBD@fbxsdk_20102@@H@fbxsdk_20102@@QAE@ABV?$KPair@HPBD@1@ABH@Z
   ??0?$KPair@$$CBV?$KPair@VKString@fbxsdk_20102@@V12@@fbxsdk_20102@@I@fbxsdk_20102@@QAE@ABV?$KPair@VKString@fbxsdk_20102@@V12@@1@ABI@Z
   ??0?$KPair@$$CBV?$KPair@VKString@fbxsdk_20102@@V12@@fbxsdk_20102@@I@fbxsdk_20102@@QAE@ABV01@@Z
   ??0?$KPair@$$CBVkFbxClassId@fbxsdk_20102@@PAVKFbxObject@2@@fbxsdk_20102@@QAE@ABVkFbxClassId@1@ABQAVKFbxObject@1@@Z
   ??0?$KPair@$$CBVKString@fbxsdk_20102@@H@fbxsdk_20102@@QAE@ABV01@@Z
   ??0?$KPair@$$CBVKString@fbxsdk_20102@@H@fbxsdk_20102@@QAE@ABVKString@1@ABH@Z
   ??0?$KPair@$$CBVKString@fbxsdk_20102@@PAVKFbxObject@2@@fbxsdk_20102@@QAE@ABV01@@Z
   ??0?$KPair@$$CBVKString@fbxsdk_20102@@PAVKFbxObject@2@@fbxsdk_20102@@QAE@ABVKString@1@ABQAVKFbxObject@1@@Z
   ??0?$KPair@$$CBVKString@fbxsdk_20102@@UKFbxEmbeddedFileInfo@KFbxEmbeddedFilesAccumulator@2@@fbxsdk_20102@@QAE@ABV01@@Z
   ??0?$KPair@$$CBVKString@fbxsdk_20102@@UKFbxEmbeddedFileInfo@KFbxEmbeddedFilesAccumulator@2@@fbxsdk_20102@@QAE@ABVKString@1@ABUKFbxEmbeddedFileInfo@KFbxEmbeddedFilesAccumulator@1@@Z
   ??0?$KPair@$$CBVKString@fbxsdk_20102@@V12@@fbxsdk_20102@@QAE@ABV01@@Z
   ??0?$KPair@$$CBVKString@fbxsdk_20102@@V12@@fbxsdk_20102@@QAE@ABVKString@1@0@Z
   ??0?$KPair@$$CBVKString@fbxsdk_20102@@VKFbxProperty@2@@fbxsdk_20102@@QAE@ABV01@@Z
   ??0?$KPair@$$CBVKString@fbxsdk_20102@@VKFbxProperty@2@@fbxsdk_20102@@QAE@ABVKString@1@ABVKFbxProperty@1@@Z
   ??0?$KPair@HH@fbxsdk_20102@@QAE@XZ
   ??0?$KPair@HPBD@fbxsdk_20102@@QAE@ABHABQBD@Z
   ??0?$KPair@IV?$KMap@V?$KPair@HPBD@fbxsdk_20102@@HVKNameMapCompare@2@VKBaseAllocator@2@@fbxsdk_20102@@@fbxsdk_20102@@QAE@XZ
   ??0?$KPair@PAVKFbxLayeredTexture@fbxsdk_20102@@H@fbxsdk_20102@@QAE@XZ
   ??0?$KPair@PAVKFbxLayerElementUV@fbxsdk_20102@@_N@fbxsdk_20102@@QAE@XZ
   ??0?$KPair@PAVKFbxTexture@fbxsdk_20102@@W4EBlendMode@KFbxLayerElementTexture@2@@fbxsdk_20102@@QAE@ABQAVKFbxTexture@1@ABW4EBlendMode@KFbxLayerElementTexture@1@@Z
   ??0?$KPair@QAVKFbxObject@fbxsdk_20102@@_J@fbxsdk_20102@@QAE@ABQAVKFbxObject@1@AB_J@Z
   ??0?$KPair@QAVKFbxObject@fbxsdk_20102@@UCloneSetElement@KFbxCloneManager@2@@fbxsdk_20102@@QAE@ABQAVKFbxObject@1@ABUCloneSetElement@KFbxCloneManager@1@@Z
   ??0?$KPair@QAVKFbxObject@fbxsdk_20102@@V?$KSet2@UKFbxPropertyUpdate@KFbxProcessorXRefCopy@fbxsdk_20102@@U?$KFbxLessCompare@UKFbxPropertyUpdate@KFbxProcessorXRefCopy@fbxsdk_20102@@@3@VKBaseAllocator@3@@2@@fbxsdk_20102@@QAE@ABQAVKFbxObject@1@ABV?$KSet2@UKFbxPropertyUpdate@KFbxProcessorXRefCopy@fbxsdk_20102@@U?$KFbxLessCompare@UKFbxPropertyUpdate@KFbxProcessorXRefCopy@fbxsdk_20102@@@3@VKBaseAllocator@3@@1@@Z
   ??0?$KPair@QAVKFbxObject@fbxsdk_20102@@V?$KSet2@UKFbxPropertyUpdate@KFbxProcessorXRefCopy@fbxsdk_20102@@U?$KFbxLessCompare@UKFbxPropertyUpdate@KFbxProcessorXRefCopy@fbxsdk_20102@@@3@VKBaseAllocator@3@@2@@fbxsdk_20102@@QAE@ABV01@@Z
   ??0?$KPair@QAVKFbxObject@fbxsdk_20102@@V?$KSet2@UKFbxPropertyUrlIndex@KFbxEmbeddedFilesAccumulator@fbxsdk_20102@@UKFbxPropertyUrlIndexCompare@23@VKBaseAllocator@3@@2@@fbxsdk_20102@@QAE@ABQAVKFbxObject@1@ABV?$KSet2@UKFbxPropertyUrlIndex@KFbxEmbeddedFilesAccumulator@fbxsdk_20102@@UKFbxPropertyUrlIndexCompare@23@VKBaseAllocator@3@@1@@Z
   ??0?$KPair@QAVKFbxObject@fbxsdk_20102@@V?$KSet2@UKFbxPropertyUrlIndex@KFbxEmbeddedFilesAccumulator@fbxsdk_20102@@UKFbxPropertyUrlIndexCompare@23@VKBaseAllocator@3@@2@@fbxsdk_20102@@QAE@ABV01@@Z
   ??0?$KPair@QBDPBVFunctionCreatorBase@KFbxBindingOperator@fbxsdk_20102@@@fbxsdk_20102@@QAE@ABQBDABQBVFunctionCreatorBase@KFbxBindingOperator@1@@Z
   ??0?$KPair@VkFbxClassId@fbxsdk_20102@@PAV?$KArrayTemplate@PAVKFbxPreviewGeneratorFactory@fbxsdk_20102@@@2@@fbxsdk_20102@@QAE@XZ
   ??0?$KPair@VKString@fbxsdk_20102@@UDependency@KFbxProcessorShaderDependency@2@@fbxsdk_20102@@QAE@ABV01@@Z
   ??0?$KPair@VKString@fbxsdk_20102@@UDependency@KFbxProcessorShaderDependency@2@@fbxsdk_20102@@QAE@XZ
   ??0?$KPair@VKString@fbxsdk_20102@@V12@@fbxsdk_20102@@QAE@ABV01@@Z
   ??0?$KPair@VKString@fbxsdk_20102@@V12@@fbxsdk_20102@@QAE@ABVKString@1@0@Z
   ??0?$KPair@VLayerConfig@fbxsdk_20102@@H@fbxsdk_20102@@QAE@XZ
   ??0?$KPair@VLayerConfig@fbxsdk_20102@@PAVKFbxSurfaceMaterial@2@@fbxsdk_20102@@QAE@XZ
   ??0?$KScopedPtr@DV?$FreeDeletionPolicy@D@fbxsdk_20102@@@fbxsdk_20102@@QAE@PAD@Z
   ??0?$KScopedPtr@VKFbxCondition@fbxsdk_20102@@V?$FBXObjectDeletionPolicy@VKFbxCondition@fbxsdk_20102@@@2@@fbxsdk_20102@@QAE@PAVKFbxCondition@1@@Z
   ??0?$KScopedPtr@VKFbxDocumentInfo@fbxsdk_20102@@V?$FBXObjectDeletionPolicy@VKFbxDocumentInfo@fbxsdk_20102@@@2@@fbxsdk_20102@@QAE@PAVKFbxDocumentInfo@1@@Z
   ??0?$KScopedPtr@VKFbxExporter@fbxsdk_20102@@V?$FBXObjectDeletionPolicy@VKFbxExporter@fbxsdk_20102@@@2@@fbxsdk_20102@@QAE@PAVKFbxExporter@1@@Z
   ??0?$KScopedPtr@VKFbxImporter@fbxsdk_20102@@V?$FBXObjectDeletionPolicy@VKFbxImporter@fbxsdk_20102@@@2@@fbxsdk_20102@@QAE@PAVKFbxImporter@1@@Z
   ??0?$KScopedPtr@VKFbxLibrary@fbxsdk_20102@@V?$FBXObjectDeletionPolicy@VKFbxLibrary@fbxsdk_20102@@@2@@fbxsdk_20102@@QAE@PAVKFbxLibrary@1@@Z
   ??0?$KScopedPtr@VKFbxLocalization@fbxsdk_20102@@V?$DefaultDeletionPolicy@VKFbxLocalization@fbxsdk_20102@@@2@@fbxsdk_20102@@QAE@PAVKFbxLocalization@1@@Z
   ??0?$KScopedPtr@VKFbxObject@fbxsdk_20102@@V?$FBXObjectDeletionPolicy@VKFbxObject@fbxsdk_20102@@@2@@fbxsdk_20102@@QAE@PAVKFbxObject@1@@Z
   ??0?$KScopedPtr@VKFbxProcessorXRefCopy@fbxsdk_20102@@V?$FBXObjectDeletionPolicy@VKFbxProcessorXRefCopy@fbxsdk_20102@@@2@@fbxsdk_20102@@QAE@PAVKFbxProcessorXRefCopy@1@@Z
   ??0?$KScopedPtr@VKFbxProcessorXRefCopyUserLibrary@fbxsdk_20102@@V?$FBXObjectDeletionPolicy@VKFbxProcessorXRefCopyUserLibrary@fbxsdk_20102@@@2@@fbxsdk_20102@@QAE@PAVKFbxProcessorXRefCopyUserLibrary@1@@Z
   ??0?$KScopedPtr@VKFbxReaderFbx@fbxsdk_20102@@V?$DefaultDeletionPolicy@VKFbxReaderFbx@fbxsdk_20102@@@2@@fbxsdk_20102@@QAE@PAVKFbxReaderFbx@1@@Z
   ??0?$KScopedPtr@VKFbxReaderFbx6@fbxsdk_20102@@V?$DefaultDeletionPolicy@VKFbxReaderFbx6@fbxsdk_20102@@@2@@fbxsdk_20102@@QAE@PAVKFbxReaderFbx6@1@@Z
   ??0?$KScopedPtr@VKFbxReaderFbx7@fbxsdk_20102@@V?$DefaultDeletionPolicy@VKFbxReaderFbx7@fbxsdk_20102@@@2@@fbxsdk_20102@@QAE@PAVKFbxReaderFbx7@1@@Z
   ??0?$KScopedPtr@VKFbxStreamOptions@fbxsdk_20102@@V?$FBXObjectDeletionPolicy@VKFbxStreamOptions@fbxsdk_20102@@@2@@fbxsdk_20102@@QAE@PAVKFbxStreamOptions@1@@Z
   ??0?$KScopedPtr@VKFbxStreamOptionsFbxWriter@fbxsdk_20102@@V?$FBXObjectDeletionPolicy@VKFbxStreamOptionsFbxWriter@fbxsdk_20102@@@2@@fbxsdk_20102@@QAE@PAVKFbxStreamOptionsFbxWriter@1@@Z
   ??0?$KScopedPtr@VKFbxUIDefinition@fbxsdk_20102@@V?$FBXObjectDeletionPolicy@VKFbxUIDefinition@fbxsdk_20102@@@2@@fbxsdk_20102@@QAE@PAVKFbxUIDefinition@1@@Z
   ??0?$KScopedPtr@VKFbxUIImporter@fbxsdk_20102@@V?$FBXObjectDeletionPolicy@VKFbxUIImporter@fbxsdk_20102@@@2@@fbxsdk_20102@@QAE@PAVKFbxUIImporter@1@@Z
   ??0?$KScopedPtr@VKFbxUIInstance@fbxsdk_20102@@V?$FBXObjectDeletionPolicy@VKFbxUIInstance@fbxsdk_20102@@@2@@fbxsdk_20102@@QAE@PAVKFbxUIInstance@1@@Z
   ??0?$KScopedPtr@VKFbxUIView@fbxsdk_20102@@V?$FBXObjectDeletionPolicy@VKFbxUIView@fbxsdk_20102@@@2@@fbxsdk_20102@@QAE@PAVKFbxUIView@1@@Z
   ??0?$KScopedPtr@VKMemoryAllocator@fbxsdk_20102@@V?$DefaultDeletionPolicy@VKMemoryAllocator@fbxsdk_20102@@@2@@fbxsdk_20102@@QAE@PAVKMemoryAllocator@1@@Z
   ??0?$KScopedPtr@VKString@fbxsdk_20102@@V?$DeletionPolicy@VKString@fbxsdk_20102@@@2@@fbxsdk_20102@@QAE@PAVKString@1@@Z
   ??0?$KScopedPtr@VKStringList@fbxsdk_20102@@V?$DefaultDeletionPolicy@VKStringList@fbxsdk_20102@@@2@@fbxsdk_20102@@QAE@PAVKStringList@1@@Z
   ??0?$KSet2@PAVKFbxClassIdInfo@fbxsdk_20102@@U?$KFbxLessCompare@PAVKFbxClassIdInfo@fbxsdk_20102@@@2@VKBaseAllocator@2@@fbxsdk_20102@@QAE@XZ
   ??0?$KSet2@PAVKFbxObject@fbxsdk_20102@@U?$KFbxLessCompare@PAVKFbxObject@fbxsdk_20102@@@2@VKBaseAllocator@2@@fbxsdk_20102@@QAE@ABV01@@Z
   ??0?$KSet2@PAVKFbxObject@fbxsdk_20102@@U?$KFbxLessCompare@PAVKFbxObject@fbxsdk_20102@@@2@VKBaseAllocator@2@@fbxsdk_20102@@QAE@XZ
   ??0?$KSet2@PAVKFbxSurfaceMaterial@fbxsdk_20102@@U?$KFbxLessCompare@PAVKFbxSurfaceMaterial@fbxsdk_20102@@@2@VKBaseAllocator@2@@fbxsdk_20102@@QAE@XZ
   ??0?$KSet2@UKFbxPropertyUpdate@KFbxProcessorXRefCopy@fbxsdk_20102@@U?$KFbxLessCompare@UKFbxPropertyUpdate@KFbxProcessorXRefCopy@fbxsdk_20102@@@3@VKBaseAllocator@3@@fbxsdk_20102@@QAE@ABV01@@Z
   ??0?$KSet2@UKFbxPropertyUpdate@KFbxProcessorXRefCopy@fbxsdk_20102@@U?$KFbxLessCompare@UKFbxPropertyUpdate@KFbxProcessorXRefCopy@fbxsdk_20102@@@3@VKBaseAllocator@3@@fbxsdk_20102@@QAE@XZ
   ??0?$KSet2@UKFbxPropertyUrlIndex@KFbxEmbeddedFilesAccumulator@fbxsdk_20102@@UKFbxPropertyUrlIndexCompare@23@VKBaseAllocator@3@@fbxsdk_20102@@QAE@ABV01@@Z
   ??0?$KSet2@UKFbxPropertyUrlIndex@KFbxEmbeddedFilesAccumulator@fbxsdk_20102@@UKFbxPropertyUrlIndexCompare@23@VKBaseAllocator@3@@fbxsdk_20102@@QAE@XZ
   ??0?$KSet2@VkFbxClassId@fbxsdk_20102@@VkNewFbxClassIdCompare@2@VKBaseAllocator@2@@fbxsdk_20102@@QAE@XZ
   ??0?$KSet2@VkFbxClassId@fbxsdk_20102@@VkNewFbxFileClassIdCompare@2@VKBaseAllocator@2@@fbxsdk_20102@@QAE@XZ
   ??0?$KSet2@VKString@fbxsdk_20102@@U?$KFbxLessCompare@VKString@fbxsdk_20102@@@2@VKBaseAllocator@2@@fbxsdk_20102@@QAE@ABV01@@Z
   ??0?$KSet2@VKString@fbxsdk_20102@@U?$KFbxLessCompare@VKString@fbxsdk_20102@@@2@VKBaseAllocator@2@@fbxsdk_20102@@QAE@XZ
   ??0?$KStringListTemplate@VKStringListItem@fbxsdk_20102@@@fbxsdk_20102@@QAE@XZ
   ??0?$list@UiteratorEntry@DirectoryIterator@awOS@fbxsdk_20102@@@aw@fbxsdk_20102@@QAE@XZ
   ??0?$list@V?$pair@PAVInitializer@awUtil@fbxsdk_20102@@PAV123@@aw@fbxsdk_20102@@@aw@fbxsdk_20102@@QAE@XZ
   ??0?$list@V?$Reference@VIdleTask@awUtil@fbxsdk_20102@@@aw@fbxsdk_20102@@@aw@fbxsdk_20102@@QAE@XZ
   ??0?$list@VIString@awString@fbxsdk_20102@@@aw@fbxsdk_20102@@QAE@XZ
   ??0?$map@DV?$Reference@Vparse@impl@fbxsdk_20102@@@aw@fbxsdk_20102@@U?$less@D@23@@aw@fbxsdk_20102@@QAE@XZ
   ??0?$map@KPA_NU?$less@K@aw@fbxsdk_20102@@@aw@fbxsdk_20102@@QAE@XZ
   ??0?$map@V?$Reference@VIdleTask@awUtil@fbxsdk_20102@@@aw@fbxsdk_20102@@Viterator@?$list@V?$Reference@VIdleTask@awUtil@fbxsdk_20102@@@aw@fbxsdk_20102@@@23@U?$less@V?$Reference@VIdleTask@awUtil@fbxsdk_20102@@@aw@fbxsdk_20102@@@23@@aw@fbxsdk_20102@@QAE@XZ
   ??0?$map@VCString@awString@fbxsdk_20102@@HU?$less@VCString@awString@fbxsdk_20102@@@aw@3@@aw@fbxsdk_20102@@QAE@XZ
   ??0?$pair@$$CBVKFbxProperty@fbxsdk_20102@@H@std@@QAE@ABU01@@Z
   ??0?$pair@$$CBVKFbxProperty@fbxsdk_20102@@H@std@@QAE@ABVKFbxProperty@fbxsdk_20102@@ABH@Z
   ??0?$pair@$$CBVKString@fbxsdk_20102@@H@std@@QAE@ABU01@@Z
   ??0?$pair@$$CBVKString@fbxsdk_20102@@J@std@@QAE@ABU01@@Z
   ??0?$pair@$$CBVKString@fbxsdk_20102@@J@std@@QAE@ABVKString@fbxsdk_20102@@ABJ@Z
   ??0?$pair@JVError@awUtil@fbxsdk_20102@@@aw@fbxsdk_20102@@QAE@ABV012@@Z
   ??0?$pair@JVError@awUtil@fbxsdk_20102@@@aw@fbxsdk_20102@@QAE@XZ
   ??0?$pair@PAXVError@awUtil@fbxsdk_20102@@@aw@fbxsdk_20102@@QAE@ABV012@@Z
   ??0?$pair@PAXVError@awUtil@fbxsdk_20102@@@aw@fbxsdk_20102@@QAE@XZ
   ??0?$pair@VIString@awString@fbxsdk_20102@@VError@awUtil@3@@aw@fbxsdk_20102@@QAE@ABV012@@Z
   ??0?$pair@VIString@awString@fbxsdk_20102@@VError@awUtil@3@@aw@fbxsdk_20102@@QAE@XZ
   ??0?$pair@VKString@fbxsdk_20102@@H@std@@QAE@ABVKString@fbxsdk_20102@@ABH@Z
   ??0?$PropertyConverter@_N_N@?A0x7e486995@fbxsdk_20102@@QAE@XZ
   ??0?$PropertyConverter@HH@?A0x7e486995@fbxsdk_20102@@QAE@XZ
   ??0?$PropertyConverter@NN@?A0x7e486995@fbxsdk_20102@@QAE@XZ
   ??0?$PropertyConverter@V?$fbxVectorTemplate4@N@fbxsdk_20102@@V?$fbxVectorTemplate3@N@2@@?A0x7e486995@fbxsdk_20102@@QAE@XZ
   ??0?$PropertyConverter@V?$fbxVectorTemplate4@N@fbxsdk_20102@@V12@@?A0x7e486995@fbxsdk_20102@@QAE@XZ
   ??0?$rbtree@DV?$Reference@Vparse@impl@fbxsdk_20102@@@aw@fbxsdk_20102@@U?$less@D@23@@aw@fbxsdk_20102@@QAE@XZ
   ??0?$rbtree@KPA_NU?$less@K@aw@fbxsdk_20102@@@aw@fbxsdk_20102@@QAE@XZ
   ??0?$rbtree@V?$Reference@VIdleTask@awUtil@fbxsdk_20102@@@aw@fbxsdk_20102@@Viterator@?$list@V?$Reference@VIdleTask@awUtil@fbxsdk_20102@@@aw@fbxsdk_20102@@@23@U?$less@V?$Reference@VIdleTask@awUtil@fbxsdk_20102@@@aw@fbxsdk_20102@@@23@@aw@fbxsdk_20102@@QAE@XZ
   ??0?$rbtree@VCString@awString@fbxsdk_20102@@HU?$less@VCString@awString@fbxsdk_20102@@@aw@3@@aw@fbxsdk_20102@@QAE@XZ
   ??0?$Reference@VIdleTask@awUtil@fbxsdk_20102@@@aw@fbxsdk_20102@@QAE@ABV012@@Z
   ??0?$Reference@Voption@impl@fbxsdk_20102@@@aw@fbxsdk_20102@@QAE@ABV012@@Z
   ??0?$Reference@Voption@impl@fbxsdk_20102@@@aw@fbxsdk_20102@@QAE@PAVoption@impl@2@@Z
   ??0?$Reference@Vparse@impl@fbxsdk_20102@@@aw@fbxsdk_20102@@QAE@ABV012@@Z
   ??0?$Reference@Vparse@impl@fbxsdk_20102@@@aw@fbxsdk_20102@@QAE@PAVparse@impl@2@@Z
   ??0?$Reference@Vparse@impl@fbxsdk_20102@@@aw@fbxsdk_20102@@QAE@XZ
   ??0?$Signal3Args@PBDPAXH@awRTB@fbxsdk_20102@@QAE@XZ
   ??0?$SignalArg@AAVProgress@awUtil@fbxsdk_20102@@@awRTB@fbxsdk_20102@@QAE@XZ
   ??0?$SignalArg@PAVSignalClient@awRTB@fbxsdk_20102@@@awRTB@fbxsdk_20102@@QAE@XZ
   ??0?$vector@I@aw@fbxsdk_20102@@QAE@H@Z
   ??0?$vector@I@aw@fbxsdk_20102@@QAE@XZ
   ??0?$vector@PAVFileTransportFactory@awOS@fbxsdk_20102@@@aw@fbxsdk_20102@@QAE@XZ
   ??0?$vector@PAVInitializer@awUtil@fbxsdk_20102@@@aw@fbxsdk_20102@@QAE@XZ
   ??0?$vector@V?$Reference@Voption@impl@fbxsdk_20102@@@aw@fbxsdk_20102@@@aw@fbxsdk_20102@@QAE@XZ
   ??0?$vector@VCString@awString@fbxsdk_20102@@@aw@fbxsdk_20102@@QAE@ABV012@@Z
   ??0?$vector@VCString@awString@fbxsdk_20102@@@aw@fbxsdk_20102@@QAE@XZ
   ??0?$vector@VIString@awString@fbxsdk_20102@@@aw@fbxsdk_20102@@QAE@ABV012@@Z
   ??0?$vector@VIString@awString@fbxsdk_20102@@@aw@fbxsdk_20102@@QAE@XZ
   ??0?$vector@W4optionTypes@impl@fbxsdk_20102@@@aw@fbxsdk_20102@@QAE@XZ
   ??0_info@URL@awOS@fbxsdk_20102@@QAE@XZ
   ??0_KFbxObjectData@fbxsdk_20102@@QAE@AAVKFbxSdkManager@1@PBD@Z
   ??0AccumulatorEntry@fbxsdk_20102@@QAE@ABV01@_N@Z
   ??0AccumulatorEntry@fbxsdk_20102@@QAE@W4AEClass@01@ABVKString@1@1V31@_N@Z
   ??0AESequence@KFbxUserNotification@fbxsdk_20102@@QAE@PAVAccumulatorEntry@2@H@Z
   ??0AppMain@awOS@fbxsdk_20102@@AAE@XZ
   ??0AppOutput@awOS@fbxsdk_20102@@AAE@XZ
   ??0AppOutputStatusTab@awOS@fbxsdk_20102@@QAE@XZ
   ??0AppOutputStream@awOS@fbxsdk_20102@@QAE@_N@Z
   ??0AppOutputStreamImpl@awOS@fbxsdk_20102@@QAE@_N@Z
   ??0awCacheChannel@fbxsdk_20102@@QAE@ABVIString@awString@1@0W4awCacheDataType@awCacheData@1@@Z
   ??0awCacheChannel@fbxsdk_20102@@QAE@XZ
   ??0awCacheData@fbxsdk_20102@@QAE@H@Z
   ??0awCacheData@fbxsdk_20102@@QAE@XZ
   ??0awCacheDescriptionIO@fbxsdk_20102@@QAE@ABVIString@awString@1@@Z
   ??0awCacheFileAccessor@fbxsdk_20102@@IAE@XZ
   ??0awCacheFileIffIO@fbxsdk_20102@@QAE@W4awCacheFileAccess@awCacheFileIO@1@@Z
   ??0awCacheFileInterface@fbxsdk_20102@@QAE@XZ
   ??0awCacheFileIO@fbxsdk_20102@@QAE@W4awCacheFileAccess@01@@Z
   ??0awCachePerChannelInfo@fbxsdk_20102@@QAE@ABV01@@Z
   ??0awCachePerChannelInfo@fbxsdk_20102@@QAE@XZ
   ??0awFlibWrapper@fbxsdk_20102@@QAE@XZ
   ??0awIffBuffer@fbxsdk_20102@@QAE@XZ
   ??0awIffFile@fbxsdk_20102@@QAE@PBD0JJ@Z
   ??0awIffFile@fbxsdk_20102@@QAE@XZ
   ??0awIffParserCallback@fbxsdk_20102@@QAE@XZ
   ??0awIffTag@fbxsdk_20102@@QAE@ABV01@@Z
   ??0awIffTag@fbxsdk_20102@@QAE@EEEE@Z
   ??0awIffTag@fbxsdk_20102@@QAE@I@Z
   ??0awIffTag@fbxsdk_20102@@QAE@PBD@Z
   ??0awIffTag@fbxsdk_20102@@QAE@XZ
   ??0awNumericCacheData@fbxsdk_20102@@QAE@NH@Z
   ??0awPointCache2IO@fbxsdk_20102@@QAE@XZ
   ??0awPtrCacheData@fbxsdk_20102@@QAE@PAXIH@Z
   ??0Barrier@awThread@fbxsdk_20102@@QAE@H@Z
   ??0BarrierImpl@?A0x6d00b54d@fbxsdk_20102@@QAE@H@Z
   ??0BitField@awUtil@fbxsdk_20102@@QAE@ABV012@@Z
   ??0BitField@awUtil@fbxsdk_20102@@QAE@H@Z
   ??0BitField@awUtil@fbxsdk_20102@@QAE@XZ
   ??0BitFieldAuto@awUtil@fbxsdk_20102@@QAE@ABV012@@Z
   ??0CacheGroupBase@awUtil@fbxsdk_20102@@QAE@XZ
   ??0CacheItem@awUtil@fbxsdk_20102@@QAE@PAVCacheGroupBase@12@@Z
   ??0Cell@KFCurveFilterMatrixConverter@fbxsdk_20102@@QAE@XZ
   ??0ClassTemplateMap@?A0xa88da042@fbxsdk_20102@@QAE@XZ
   ??0CloneSetElement@KFbxCloneManager@fbxsdk_20102@@QAE@HHW4ECloneType@KFbxObject@2@@Z
   ??0CollectExcept@?A0xce6eb6f4@fbxsdk_20102@@QAE@PAVKFbxObject@2@@Z
   ??0CollectGenericObject@?A0xce6eb6f4@fbxsdk_20102@@QAE@PAVKTypeDefinition@12@@Z
   ??0Condition@awThread@fbxsdk_20102@@QAE@XZ
   ??0ConditionImpl@awThread@fbxsdk_20102@@QAE@XZ
   ??0connectionItem@SignalBase@awRTB@fbxsdk_20102@@QAE@PAV123@PAVFunctionBase@23@@Z
   ??0connectionItem@SignalBase@awRTB@fbxsdk_20102@@QAE@PAV123@PAVFunctionBase@23@PAV0123@@Z
   ??0const_iterator@?$list@UiteratorEntry@DirectoryIterator@awOS@fbxsdk_20102@@@aw@fbxsdk_20102@@IAE@PBUNode@ListImpl@23@@Z
   ??0const_iterator@?$list@V?$pair@PAVInitializer@awUtil@fbxsdk_20102@@PAV123@@aw@fbxsdk_20102@@@aw@fbxsdk_20102@@IAE@PBUNode@ListImpl@23@@Z
   ??0const_iterator@?$list@V?$pair@PAVInitializer@awUtil@fbxsdk_20102@@PAV123@@aw@fbxsdk_20102@@@aw@fbxsdk_20102@@QAE@XZ
   ??0const_iterator@?$list@V?$Reference@VIdleTask@awUtil@fbxsdk_20102@@@aw@fbxsdk_20102@@@aw@fbxsdk_20102@@IAE@PBUNode@ListImpl@23@@Z
   ??0const_iterator@?$list@V?$Reference@VIdleTask@awUtil@fbxsdk_20102@@@aw@fbxsdk_20102@@@aw@fbxsdk_20102@@QAE@XZ
   ??0const_iterator@?$list@VIString@awString@fbxsdk_20102@@@aw@fbxsdk_20102@@IAE@PBUNode@ListImpl@23@@Z
   ??0const_iterator@?$rbtree@DV?$Reference@Vparse@impl@fbxsdk_20102@@@aw@fbxsdk_20102@@U?$less@D@23@@aw@fbxsdk_20102@@QAE@PAVConcreteNode@123@@Z
   ??0const_iterator@?$rbtree@KPA_NU?$less@K@aw@fbxsdk_20102@@@aw@fbxsdk_20102@@QAE@PAVConcreteNode@123@@Z
   ??0const_iterator@?$rbtree@KPA_NU?$less@K@aw@fbxsdk_20102@@@aw@fbxsdk_20102@@QAE@XZ
   ??0const_iterator@?$rbtree@V?$Reference@VIdleTask@awUtil@fbxsdk_20102@@@aw@fbxsdk_20102@@Viterator@?$list@V?$Reference@VIdleTask@awUtil@fbxsdk_20102@@@aw@fbxsdk_20102@@@23@U?$less@V?$Reference@VIdleTask@awUtil@fbxsdk_20102@@@aw@fbxsdk_20102@@@23@@aw@fbxsdk_20102@@QAE@PAVConcreteNode@123@@Z
   ??0const_iterator@?$rbtree@VCString@awString@fbxsdk_20102@@HU?$less@VCString@awString@fbxsdk_20102@@@aw@3@@aw@fbxsdk_20102@@QAE@PAVConcreteNode@123@@Z
   ??0Controller@fbxsdk_20102@@QAE@XZ
   ??0CString@awString@fbxsdk_20102@@QAE@ABV012@@Z
   ??0CString@awString@fbxsdk_20102@@QAE@D@Z
   ??0CString@awString@fbxsdk_20102@@QAE@ID@Z
   ??0CString@awString@fbxsdk_20102@@QAE@PBD@Z
   ??0CString@awString@fbxsdk_20102@@QAE@PBDH@Z
   ??0CString@awString@fbxsdk_20102@@QAE@XZ
   ??0CStringImpl@awString@fbxsdk_20102@@QAE@XZ
   ??0DaeUrl@fbxsdk_20102@@QAE@ABV01@@Z
   ??0DaeUrl@fbxsdk_20102@@QAE@XZ
   ??0Dependency@KFbxProcessorShaderDependency@fbxsdk_20102@@QAE@ABU012@@Z
   ??0Dependency@KFbxProcessorShaderDependency@fbxsdk_20102@@QAE@XZ
   ??0DirectoryIterator@awOS@fbxsdk_20102@@QAE@ABVIString@awString@2@@Z
   ??0DoubleQuotesPair@fbxsdk_20102@@QAE@XZ
   ??0EasyXmlWriter@fbxsdk_20102@@QAE@XZ
   ??0Error@awUtil@fbxsdk_20102@@QAA@HPB_WZZ
   ??0Error@awUtil@fbxsdk_20102@@QAA@HPBDZZ
   ??0Error@awUtil@fbxsdk_20102@@QAE@ABV012@@Z
   ??0Error@awUtil@fbxsdk_20102@@QAE@HPB_WPAD@Z
   ??0Error@awUtil@fbxsdk_20102@@QAE@HPBDPAD@Z
   ??0Error@awUtil@fbxsdk_20102@@QAE@XZ
   ??0Fbx5ObjectTypeInfo@fbxsdk_20102@@QAE@XZ
   ??0Fbx6ClassTemplateMap@fbxsdk_20102@@QAE@XZ
   ??0Fbx6ObjectTypeInfo@fbxsdk_20102@@QAE@XZ
   ??0Fbx6TypeDefinition@fbxsdk_20102@@QAE@XZ
   ??0Fbx6TypeDefinitionInfo@fbxsdk_20102@@QAE@XZ
   ??0Fbx6TypeObjectHierarchy@fbxsdk_20102@@QAE@XZ
   ??0Fbx6TypeReadReferenceInfo@fbxsdk_20102@@QAE@XZ
   ??0Fbx6TypeReadReferences@fbxsdk_20102@@QAE@XZ
   ??0Fbx6TypeWriteReferences@fbxsdk_20102@@QAE@XZ
   ??0fbxBlob@fbxsdk_20102@@QAE@ABV01@@Z
   ??0fbxBlob@fbxsdk_20102@@QAE@H@Z
   ??0fbxBlob@fbxsdk_20102@@QAE@XZ
   ??0fbxDateTime@fbxsdk_20102@@QAE@HHHHHHH@Z
   ??0fbxDateTime@fbxsdk_20102@@QAE@XZ
   ??0fbxDistance@fbxsdk_20102@@QAE@MPBD@Z
   ??0fbxDistance@fbxsdk_20102@@QAE@XZ
   ??0fbxHalfFloat@fbxsdk_20102@@QAE@ABV01@@Z
   ??0fbxHalfFloat@fbxsdk_20102@@QAE@M@Z
   ??0fbxHalfFloat@fbxsdk_20102@@QAE@XZ
   ??0File@awOS@fbxsdk_20102@@QAE@ABVCString@awString@2@@Z
   ??0File@awOS@fbxsdk_20102@@QAE@ABVIString@awString@2@@Z
   ??0File@awOS@fbxsdk_20102@@QAE@PAVFileTransport@12@@Z
   ??0File@awOS@fbxsdk_20102@@QAE@PBD@Z
   ??0FileFactory@awOS@fbxsdk_20102@@QAE@XZ
   ??0FileFactoryImpl@?A0xefc32dd0@fbxsdk_20102@@QAE@XZ
   ??0FileInformation@Impl@KFbxAssetReader@fbxsdk_20102@@QAE@XZ
   ??0FileInformation@Impl@KFbxAssetWriter@fbxsdk_20102@@QAE@ABU0123@@Z
   ??0FileInformation@Impl@KFbxAssetWriter@fbxsdk_20102@@QAE@XZ
   ??0Filename@awOS@fbxsdk_20102@@QAE@ABV012@@Z
   ??0Filename@awOS@fbxsdk_20102@@QAE@ABV012@0@Z
   ??0Filename@awOS@fbxsdk_20102@@QAE@ABVCString@awString@2@D@Z
   ??0Filename@awOS@fbxsdk_20102@@QAE@ABVIString@awString@2@@Z
   ??0Filename@awOS@fbxsdk_20102@@QAE@ABVIString@awString@2@_W@Z
   ??0Filename@awOS@fbxsdk_20102@@QAE@ABVIString@awString@2@0@Z
   ??0Filename@awOS@fbxsdk_20102@@QAE@PBDD@Z
   ??0Filename@awOS@fbxsdk_20102@@QAE@XZ
   ??0FilenameImpl@?A0xba0fa78e@fbxsdk_20102@@QAE@ABVIString@awString@2@_W@Z
   ??0FilePathData@KFbxProcessorShaderDependency@fbxsdk_20102@@QAE@ABU012@@Z
   ??0FilePathData@KFbxProcessorShaderDependency@fbxsdk_20102@@QAE@XZ
   ??0FileStatus@awOS@fbxsdk_20102@@QAE@XZ
   ??0Filesystem@awOS@fbxsdk_20102@@QAE@ABVCString@awString@2@@Z
   ??0Filesystem@awOS@fbxsdk_20102@@QAE@ABVIString@awString@2@@Z
   ??0Filesystem@awOS@fbxsdk_20102@@QAE@PBD@Z
   ??0FileTransport@awOS@fbxsdk_20102@@QAE@XZ
   ??0FileTransportFactory@awOS@fbxsdk_20102@@QAE@XZ
   ??0FSAllocator@awOS@fbxsdk_20102@@QAE@II@Z
   ??0FSAllocatorImpl@?A0xefc851d3@fbxsdk_20102@@QAE@II@Z
   ??0Function@KFbxBindingOperator@fbxsdk_20102@@QAE@XZ
   ??0FunctionBase@awRTB@fbxsdk_20102@@QAE@XZ
   ??0FunctionCreatorBase@KFbxBindingOperator@fbxsdk_20102@@QAE@XZ
   ??0FunctionVoid@awRTB@fbxsdk_20102@@QAE@XZ
   ??0GetOpt@awOS@fbxsdk_20102@@QAE@XZ
   ??0GetOptImpl@awOS@fbxsdk_20102@@QAE@XZ
   ??0GlobalCache@awUtil@fbxsdk_20102@@IAE@XZ
   ??0GlobalCacheImpl@?A0x05c75dd8@fbxsdk_20102@@QAE@XZ
   ??0IdleTask@awUtil@fbxsdk_20102@@QAE@XZ
   ??0IdleTasks@awUtil@fbxsdk_20102@@IAE@XZ
   ??0IdleTasksImpl@?A0x7f5057f2@fbxsdk_20102@@QAE@XZ
   ??0IFbxFileMotionBase@fbxsdk_20102@@QAE@XZ
   ??0ImageConverterBuffer@fbxsdk_20102@@QAE@XZ
   ??0Impl@EasyXmlWriter@fbxsdk_20102@@QAE@XZ
   ??0Impl@KFbxAssetReader@fbxsdk_20102@@QAE@XZ
   ??0Impl@KFbxAssetWriter@fbxsdk_20102@@QAE@XZ
   ??0Impl@KFbxPreviewGenerator@fbxsdk_20102@@QAE@XZ
   ??0Impl@KFbxPreviewManager@fbxsdk_20102@@QAE@AAVKFbxSdkManager@2@@Z
   ??0Impl@KFbxUINode@fbxsdk_20102@@QAE@PAV12@@Z
   ??0Interval@awUtil@fbxsdk_20102@@QAE@N@Z
   ??0Interval@awUtil@fbxsdk_20102@@QAE@PBD@Z
   ??0Interval@awUtil@fbxsdk_20102@@QAE@XZ
   ??0IntRange2d@awUtil@fbxsdk_20102@@QAE@ABV012@@Z
   ??0IntRange2d@awUtil@fbxsdk_20102@@QAE@XZ
   ??0IntrusiveListConstIterator@?$KIntrusiveList@VKFbxPlugin@fbxsdk_20102@@$0A@@fbxsdk_20102@@QAE@PBV?$KListNode@VKFbxPlugin@fbxsdk_20102@@@2@@Z
   ??0IntrusiveListIterator@?$KIntrusiveList@VKFbxEventHandler@kfbxevents@fbxsdk_20102@@$00@fbxsdk_20102@@QAE@PAV?$KListNode@VKFbxEventHandler@kfbxevents@fbxsdk_20102@@@2@@Z
   ??0IntrusiveListIterator@?$KIntrusiveList@VKFbxEventHandler@kfbxevents@fbxsdk_20102@@$0A@@fbxsdk_20102@@QAE@PAV?$KListNode@VKFbxEventHandler@kfbxevents@fbxsdk_20102@@@2@@Z
   ??0IntrusiveListIterator@?$KIntrusiveList@VKFbxPlugin@fbxsdk_20102@@$0A@@fbxsdk_20102@@QAE@PAV?$KListNode@VKFbxPlugin@fbxsdk_20102@@@2@@Z
   ??0IntrusiveListIterator@?$KIntrusiveList@VKFbxPluginHandle@fbxsdk_20102@@$0A@@fbxsdk_20102@@QAE@PAV?$KListNode@VKFbxPluginHandle@fbxsdk_20102@@@2@@Z
   ??0IOStream@awOS@fbxsdk_20102@@QAE@XZ
   ??0IString@awString@fbxsdk_20102@@QAE@_W@Z
   ??0IString@awString@fbxsdk_20102@@QAE@ABV012@@Z
   ??0IString@awString@fbxsdk_20102@@QAE@ABVCString@12@W4Encoding@12@@Z
   ??0IString@awString@fbxsdk_20102@@QAE@DW4Encoding@12@@Z
   ??0IString@awString@fbxsdk_20102@@QAE@I_W@Z
   ??0IString@awString@fbxsdk_20102@@QAE@IDW4Encoding@12@@Z
   ??0IString@awString@fbxsdk_20102@@QAE@PB_W@Z
   ??0IString@awString@fbxsdk_20102@@QAE@PB_WH@Z
   ??0IString@awString@fbxsdk_20102@@QAE@PBDW4Encoding@12@@Z
   ??0IString@awString@fbxsdk_20102@@QAE@XZ
   ??0IStringImpl@awString@fbxsdk_20102@@QAE@XZ
   ??0Iterator@?$KHashMap@PAVKFbxLayeredTexture@fbxsdk_20102@@HVLayeredTextureHash@2@V?$NoOpDestruct@H@2@VLayeredTexPtrComparator@KFbxMaterialConverterImpl@2@@fbxsdk_20102@@AAE@PBV12@HPAVListItem@12@@Z
   ??0Iterator@?$KHashMap@PAVKFbxLayeredTexture@fbxsdk_20102@@HVLayeredTextureHash@2@V?$NoOpDestruct@H@2@VLayeredTexPtrComparator@KFbxMaterialConverterImpl@2@@fbxsdk_20102@@QAE@ABV012@@Z
   ??0Iterator@?$KHashMap@VkFbxClassId@fbxsdk_20102@@PAV?$KArrayTemplate@PAVKFbxPreviewGeneratorFactory@fbxsdk_20102@@@2@VClassIdHash@Impl@KFbxPreviewManager@2@V?$PtrDestruct@PAV?$KArrayTemplate@PAVKFbxPreviewGeneratorFactory@fbxsdk_20102@@@fbxsdk_20102@@@2@V?$DefaultComparator@VkFbxClassId@fbxsdk_20102@@@2@@fbxsdk_20102@@AAE@PBV12@HPAVListItem@12@@Z
   ??0Iterator@?$KHashMap@VkFbxClassId@fbxsdk_20102@@PAV?$KArrayTemplate@PAVKFbxPreviewGeneratorFactory@fbxsdk_20102@@@2@VClassIdHash@Impl@KFbxPreviewManager@2@V?$PtrDestruct@PAV?$KArrayTemplate@PAVKFbxPreviewGeneratorFactory@fbxsdk_20102@@@fbxsdk_20102@@@2@V?$DefaultComparator@VkFbxClassId@fbxsdk_20102@@@2@@fbxsdk_20102@@QAE@ABV012@@Z
   ??0Iterator@?$KHashMap@VKString@fbxsdk_20102@@UDependency@KFbxProcessorShaderDependency@2@VKStringHash@42@V?$NoOpDestruct@UDependency@KFbxProcessorShaderDependency@fbxsdk_20102@@@2@V?$DefaultComparator@VKString@fbxsdk_20102@@@2@@fbxsdk_20102@@AAE@PBV12@HPAVListItem@12@@Z
   ??0Iterator@?$KHashMap@VKString@fbxsdk_20102@@UDependency@KFbxProcessorShaderDependency@2@VKStringHash@42@V?$NoOpDestruct@UDependency@KFbxProcessorShaderDependency@fbxsdk_20102@@@2@V?$DefaultComparator@VKString@fbxsdk_20102@@@2@@fbxsdk_20102@@QAE@ABV012@@Z
   ??0Iterator@?$KHashMap@VLayerConfig@fbxsdk_20102@@HVLayerConfigHash@2@V?$NoOpDestruct@H@2@V?$DefaultComparator@VLayerConfig@fbxsdk_20102@@@2@@fbxsdk_20102@@AAE@PBV12@HPAVListItem@12@@Z
   ??0Iterator@?$KHashMap@VLayerConfig@fbxsdk_20102@@HVLayerConfigHash@2@V?$NoOpDestruct@H@2@V?$DefaultComparator@VLayerConfig@fbxsdk_20102@@@2@@fbxsdk_20102@@QAE@ABV012@@Z
   ??0Iterator@?$KHashMap@VLayerConfig@fbxsdk_20102@@PAVKFbxSurfaceMaterial@2@VLayerConfigHash@2@V?$NoOpDestruct@PAVKFbxSurfaceMaterial@fbxsdk_20102@@@2@V?$DefaultComparator@VLayerConfig@fbxsdk_20102@@@2@@fbxsdk_20102@@AAE@PBV12@HPAVListItem@12@@Z
   ??0Iterator@?$KHashMap@VLayerConfig@fbxsdk_20102@@PAVKFbxSurfaceMaterial@2@VLayerConfigHash@2@V?$NoOpDestruct@PAVKFbxSurfaceMaterial@fbxsdk_20102@@@2@V?$DefaultComparator@VLayerConfig@fbxsdk_20102@@@2@@fbxsdk_20102@@QAE@ABV012@@Z
   ??0iterator@?$list@UiteratorEntry@DirectoryIterator@awOS@fbxsdk_20102@@@aw@fbxsdk_20102@@IAE@PAUNode@ListImpl@23@@Z
   ??0iterator@?$list@V?$pair@PAVInitializer@awUtil@fbxsdk_20102@@PAV123@@aw@fbxsdk_20102@@@aw@fbxsdk_20102@@IAE@PAUNode@ListImpl@23@@Z
   ??0iterator@?$list@V?$pair@PAVInitializer@awUtil@fbxsdk_20102@@PAV123@@aw@fbxsdk_20102@@@aw@fbxsdk_20102@@QAE@XZ
   ??0iterator@?$list@V?$Reference@VIdleTask@awUtil@fbxsdk_20102@@@aw@fbxsdk_20102@@@aw@fbxsdk_20102@@IAE@PAUNode@ListImpl@23@@Z
   ??0iterator@?$list@V?$Reference@VIdleTask@awUtil@fbxsdk_20102@@@aw@fbxsdk_20102@@@aw@fbxsdk_20102@@QAE@XZ
   ??0iterator@?$list@VIString@awString@fbxsdk_20102@@@aw@fbxsdk_20102@@IAE@PAUNode@ListImpl@23@@Z
   ??0iterator@?$rbtree@DV?$Reference@Vparse@impl@fbxsdk_20102@@@aw@fbxsdk_20102@@U?$less@D@23@@aw@fbxsdk_20102@@QAE@PAVConcreteNode@123@@Z
   ??0iterator@?$rbtree@KPA_NU?$less@K@aw@fbxsdk_20102@@@aw@fbxsdk_20102@@QAE@PAVConcreteNode@123@@Z
   ??0iterator@?$rbtree@KPA_NU?$less@K@aw@fbxsdk_20102@@@aw@fbxsdk_20102@@QAE@XZ
   ??0iterator@?$rbtree@V?$Reference@VIdleTask@awUtil@fbxsdk_20102@@@aw@fbxsdk_20102@@Viterator@?$list@V?$Reference@VIdleTask@awUtil@fbxsdk_20102@@@aw@fbxsdk_20102@@@23@U?$less@V?$Reference@VIdleTask@awUtil@fbxsdk_20102@@@aw@fbxsdk_20102@@@23@@aw@fbxsdk_20102@@QAE@PAVConcreteNode@123@@Z
   ??0iterator@?$rbtree@VCString@awString@fbxsdk_20102@@HU?$less@VCString@awString@fbxsdk_20102@@@aw@3@@aw@fbxsdk_20102@@QAE@PAVConcreteNode@123@@Z
   ??0iteratorEntry@DirectoryIterator@awOS@fbxsdk_20102@@QAE@ABU0123@@Z
   ??0iteratorEntry@DirectoryIterator@awOS@fbxsdk_20102@@QAE@ABVIString@awString@3@@Z
   ??0KBaseAllocator@fbxsdk_20102@@QAE@I@Z
   ??0KBaseArraySize@fbxsdk_20102@@QAE@H@Z
   ??0KBitSet@fbxsdk_20102@@QAE@XZ
   ??0KBVHJoint@fbxsdk_20102@@QAE@XZ
   ??0KChainedFile@fbxsdk_20102@@QAE@HPAV01@W4EMode@01@_N@Z
   ??0KCharPtrSet@fbxsdk_20102@@QAE@H@Z
   ??0KConfigFile@fbxsdk_20102@@QAE@PAD_N@Z
   ??0KConfigFile@fbxsdk_20102@@QAE@PAD0@Z
   ??0KConnection@KConnectionList@KFbxConnectionPoint@fbxsdk_20102@@QAE@PAV23@D@Z
   ??0KConnectionList@KFbxConnectionPoint@fbxsdk_20102@@QAE@XZ
   ??0KCrcFile@fbxsdk_20102@@QAE@HPAVKChainedFile@1@W4EMode@21@_N@Z
   ??0KDataType@fbxsdk_20102@@QAE@PAD_N@Z
   ??0KDataTypeAction@fbxsdk_20102@@QAE@PAD@Z
   ??0KDataTypeBool@fbxsdk_20102@@QAE@PAD@Z
   ??0KDataTypeCameraIndex@fbxsdk_20102@@QAE@PAD@Z
   ??0KDataTypeColor@fbxsdk_20102@@QAE@PAD@Z
   ??0KDataTypeColorAndAlpha@fbxsdk_20102@@QAE@PAD@Z
   ??0KDataTypeColorHSB@fbxsdk_20102@@QAE@PAD@Z
   ??0KDataTypeConeAngle@fbxsdk_20102@@QAE@PAD@Z
   ??0KDataTypeEnum@fbxsdk_20102@@QAE@PAD@Z
   ??0KDataTypeFieldOfView@fbxsdk_20102@@QAE@PAD@Z
   ??0KDataTypeFieldOfViewX@fbxsdk_20102@@QAE@PAD@Z
   ??0KDataTypeFieldOfViewY@fbxsdk_20102@@QAE@PAD@Z
   ??0KDataTypeFloat@fbxsdk_20102@@QAE@PAD@Z
   ??0KDataTypeFog@fbxsdk_20102@@QAE@PAD@Z
   ??0KDataTypeIKReachRotation@fbxsdk_20102@@QAE@PAD@Z
   ??0KDataTypeIKReachTranslation@fbxsdk_20102@@QAE@PAD@Z
   ??0KDataTypeInteger@fbxsdk_20102@@QAE@PAD@Z
   ??0KDataTypeIntensity@fbxsdk_20102@@QAE@PAD@Z
   ??0KDataTypeLclQuaternion@fbxsdk_20102@@QAE@PAD@Z
   ??0KDataTypeLclRotation@fbxsdk_20102@@QAE@PAD@Z
   ??0KDataTypeLclScaling@fbxsdk_20102@@QAE@PAD@Z
   ??0KDataTypeLclTranslation@fbxsdk_20102@@QAE@PAD@Z
   ??0KDataTypeLookAt@fbxsdk_20102@@QAE@PAD@Z
   ??0KDataTypeMatrix@fbxsdk_20102@@QAE@PAD@Z
   ??0KDataTypeMatrixRotation@fbxsdk_20102@@QAE@PAD@Z
   ??0KDataTypeMatrixScaling@fbxsdk_20102@@QAE@PAD@Z
   ??0KDataTypeMatrixTransformation@fbxsdk_20102@@QAE@PAD@Z
   ??0KDataTypeMatrixTranslation@fbxsdk_20102@@QAE@PAD@Z
   ??0KDataTypeNumber@fbxsdk_20102@@QAE@PAD@Z
   ??0KDataTypeOcclusion@fbxsdk_20102@@QAE@PAD@Z
   ??0KDataTypeOpticalCenterX@fbxsdk_20102@@QAE@PAD@Z
   ??0KDataTypeOpticalCenterY@fbxsdk_20102@@QAE@PAD@Z
   ??0KDataTypeOrientation@fbxsdk_20102@@QAE@PAD@Z
   ??0KDataTypeQuaternion@fbxsdk_20102@@QAE@PAD@Z
   ??0KDataTypeReal@fbxsdk_20102@@QAE@PAD@Z
   ??0KDataTypeRoll@fbxsdk_20102@@QAE@PAD@Z
   ??0KDataTypeRotation@fbxsdk_20102@@QAE@PAD@Z
   ??0KDataTypeScaling@fbxsdk_20102@@QAE@PAD@Z
   ??0KDataTypeScalingUV@fbxsdk_20102@@QAE@PAD@Z
   ??0KDataTypeShape@fbxsdk_20102@@QAE@PAD@Z
   ??0KDataTypeTime@fbxsdk_20102@@QAE@PAD@Z
   ??0KDataTypeTimeWarp@fbxsdk_20102@@QAE@PAD@Z
   ??0KDataTypeTranslation@fbxsdk_20102@@QAE@PAD@Z
   ??0KDataTypeTranslationUV@fbxsdk_20102@@QAE@PAD@Z
   ??0KDataTypeVector@fbxsdk_20102@@QAE@PAD@Z
   ??0KDataTypeVector4@fbxsdk_20102@@QAE@PAD@Z
   ??0KDataTypeVisibility@fbxsdk_20102@@QAE@PAD@Z
   ??0KDataTypeWeight@fbxsdk_20102@@QAE@PAD@Z
   ??0KDateTime@fbxsdk_20102@@QAE@_J0HH@Z
   ??0KDateTime@fbxsdk_20102@@QAE@_JH@Z
   ??0KDateTime@fbxsdk_20102@@QAE@_JVKTime@1@HH@Z
   ??0KDateTime@fbxsdk_20102@@QAE@ABV01@@Z
   ??0KDateTime@fbxsdk_20102@@QAE@HH@Z
   ??0KDateTime@fbxsdk_20102@@QAE@HHHHH@Z
   ??0KDateTime@fbxsdk_20102@@QAE@HHHHHH@Z
   ??0KDateTime@fbxsdk_20102@@QAE@HHHHHHHH@Z
   ??0KDateTime@fbxsdk_20102@@QAE@NHH@Z
   ??0KDateTime@fbxsdk_20102@@QAE@PAD@Z
   ??0KDateTime@fbxsdk_20102@@QAE@VKTime@1@H@Z
   ??0KDateTime@fbxsdk_20102@@QAE@XZ
   ??0KDefaultRenderResolution@fbxsdk_20102@@QAE@XZ
   ??0KDir@fbxsdk_20102@@QAE@XZ
   ??0KDuplicateVertex@KFbxMesh@fbxsdk_20102@@QAE@ABV012@@Z
   ??0KDuplicateVertex@KFbxMesh@fbxsdk_20102@@QAE@XZ
   ??0KEncryptedFile@fbxsdk_20102@@QAE@PADHPAVKChainedFile@1@W4EMode@21@_N@Z
   ??0KError@fbxsdk_20102@@QAE@QAPADH@Z
   ??0KError@fbxsdk_20102@@QAE@XZ
   ??0KEventBase@fbxsdk_20102@@QAE@XZ
   ??0KFbx@fbxsdk_20102@@QAE@XZ
   ??0KFbx7FileHeaderInfo@KFbxReaderFbx7Impl@fbxsdk_20102@@QAE@PAU12@@Z
   ??0KFbxActivationDependency@fbxsdk_20102@@IAE@AAVKFbxUINode@1@PAVKFbxCondition@1@_N@Z
   ??0KFbxAddBOF@fbxsdk_20102@@QAE@XZ
   ??0KFbxAsfNode@fbxsdk_20102@@QAE@XZ
   ??0KFbxAsfScene@fbxsdk_20102@@QAE@XZ
   ??0KFbxAsfSceneInterface@fbxsdk_20102@@QAE@XZ
   ??0KFbxAssetBuilder@fbxsdk_20102@@QAE@AAVKFbxSdkManager@1@@Z
   ??0KFbxAssetReader@fbxsdk_20102@@QAE@AAVKFbxSdkManager@1@@Z
   ??0KFbxAssetWriter@fbxsdk_20102@@QAE@AAVKFbxSdkManager@1@@Z
   ??0KFbxAssignBOF@fbxsdk_20102@@QAE@XZ
   ??0KFbxAutoResetXRefManager@KFbx@fbxsdk_20102@@QAE@PAV12@AAVKFbxXRefManager@2@@Z
   ??0KFbxAutoRevertPropertyChanges@KFbxProcessorXRefCopy@fbxsdk_20102@@QAE@PAV12@@Z
   ??0KFbxAxisSystem@fbxsdk_20102@@QAE@ABV01@@Z
   ??0KFbxAxisSystem@fbxsdk_20102@@QAE@W4ePreDefinedAxisSystem@01@@Z
   ??0KFbxAxisSystem@fbxsdk_20102@@QAE@W4eUpVector@01@W4eFrontVector@01@W4eCoorSystem@01@@Z
   ??0KFbxBase64Decoder@fbxsdk_20102@@QAE@XZ
   ??0KFbxBase64Encoder@fbxsdk_20102@@QAE@XZ
   ??0KFbxBinaryBlobReader@?A0xce6eb6f4@fbxsdk_20102@@QAE@VKFbxProperty@2@@Z
   ??0KFbxBinaryBlobTarget@?A0xa88da042@fbxsdk_20102@@QAE@XZ
   ??0KFbxBinaryDataReader@?A0xce6eb6f4@fbxsdk_20102@@QAE@XZ
   ??0KFbxBinaryFileReader@?A0xce6eb6f4@fbxsdk_20102@@QAE@AAVKFbxFile@2@@Z
   ??0KFbxBinaryFileTarget@?A0xa88da042@fbxsdk_20102@@QAE@ABVKString@2@@Z
   ??0KFbxBinaryTarget@?A0xa88da042@fbxsdk_20102@@QAE@XZ
   ??0KFbxBindingOperator@fbxsdk_20102@@IAE@AAVKFbxSdkManager@1@PBD@Z
   ??0KFbxBindingsEntryView@fbxsdk_20102@@QAE@PAVKFbxBindingTableEntry@1@_N1@Z
   ??0KFbxBindingTable@fbxsdk_20102@@AAE@AAVKFbxSdkManager@1@PBD@Z
   ??0KFbxBindingTableBase@fbxsdk_20102@@IAE@AAVKFbxSdkManager@1@PBD@Z
   ??0KFbxBindingTableEntry@fbxsdk_20102@@QAE@ABV01@@Z
   ??0KFbxBindingTableEntry@fbxsdk_20102@@QAE@XZ
   ??0KFbxBoundary@fbxsdk_20102@@IAE@AAVKFbxSdkManager@1@PBD@Z
   ??0KFbxCache@fbxsdk_20102@@IAE@AAVKFbxSdkManager@1@PBD@Z
   ??0KFbxCache_internal@fbxsdk_20102@@QAE@QAPADH@Z
   ??0KFbxCamera@fbxsdk_20102@@IAE@AAVKFbxSdkManager@1@PBD@Z
   ??0KFbxCameraManipulator@fbxsdk_20102@@AAE@AAVKFbxSdkManager@1@PBD@Z
   ??0KFbxCameraStereo@fbxsdk_20102@@IAE@AAVKFbxSdkManager@1@PBD@Z
   ??0KFbxCameraSwitcher@fbxsdk_20102@@IAE@AAVKFbxSdkManager@1@PBD@Z
   ??0KFbxCamManip_state@fbxsdk_20102@@QAE@XZ
   ??0KFbxCharacter@fbxsdk_20102@@QAE@AAVKFbxSdkManager@1@PBD@Z
   ??0KFbxCharacterLink@fbxsdk_20102@@QAE@ABV01@@Z
   ??0KFbxCharacterLink@fbxsdk_20102@@QAE@XZ
   ??0KFbxCharacterPose@fbxsdk_20102@@AAE@AAVKFbxSdkManager@1@PBD@Z
   ??0KFbxCharacterPose_internal@fbxsdk_20102@@QAE@PAVKFbxCharacterPose@1@@Z
   ??0kFbxClassId@fbxsdk_20102@@AAE@PAVKFbxClassIdInfo@1@@Z
   ??0kFbxClassId@fbxsdk_20102@@QAE@PBDABV01@P6APAVKFbxPlug@1@AAVKFbxSdkManager@1@0PBV21@00@Z00@Z
   ??0kFbxClassId@fbxsdk_20102@@QAE@XZ
   ??0KFbxClassIdInfo@fbxsdk_20102@@QAE@PBDPAV01@P6APAVKFbxPlug@1@AAVKFbxSdkManager@1@0PBV21@00@Z00@Z
   ??0KFbxCloneManager@fbxsdk_20102@@QAE@XZ
   ??0KFbxCluster@fbxsdk_20102@@IAE@AAVKFbxSdkManager@1@PBD@Z
   ??0KFbxCollection@fbxsdk_20102@@IAE@AAVKFbxSdkManager@1@PBD@Z
   ??0KFbxCollectionExclusive@fbxsdk_20102@@IAE@AAVKFbxSdkManager@1@PBD@Z
   ??0KFbxColor@fbxsdk_20102@@QAE@NNNN@Z
   ??0KFbxColor@fbxsdk_20102@@QAE@XZ
   ??0KFbxComponentMap@KFbxMesh@fbxsdk_20102@@QAE@XZ
   ??0KFbxCondition@fbxsdk_20102@@QAE@XZ
   ??0KFbxConditionalBOF@fbxsdk_20102@@QAE@XZ
   ??0KFbxConnectEvent@fbxsdk_20102@@QAE@W4eFbxConnectEventType@1@W4eFbxConnectEventDirection@1@PAVKFbxProperty@1@2@Z
   ??0KFbxConnectionPoint@fbxsdk_20102@@QAE@PAX@Z
   ??0KFbxConnectionPointFilter@fbxsdk_20102@@QAE@XZ
   ??0KFbxConstantEntryView@fbxsdk_20102@@QAE@PAVKFbxBindingTableEntry@1@_N1@Z
   ??0KFbxConstraint@fbxsdk_20102@@IAE@AAVKFbxSdkManager@1@PBD@Z
   ??0KFbxConstraint_internal@fbxsdk_20102@@QAE@PAVKFbxObject@1@@Z
   ??0KFbxConstraintAim@fbxsdk_20102@@IAE@AAVKFbxSdkManager@1@PBD@Z
   ??0KFbxConstraintCustom@fbxsdk_20102@@IAE@AAVKFbxSdkManager@1@PBD@Z
   ??0KFbxConstraintParent@fbxsdk_20102@@IAE@AAVKFbxSdkManager@1@PBD@Z
   ??0KFbxConstraintPosition@fbxsdk_20102@@IAE@AAVKFbxSdkManager@1@PBD@Z
   ??0KFbxConstraintRotation@fbxsdk_20102@@IAE@AAVKFbxSdkManager@1@PBD@Z
   ??0KFbxConstraintScale@fbxsdk_20102@@IAE@AAVKFbxSdkManager@1@PBD@Z
   ??0KFbxConstraintSingleChainIK@fbxsdk_20102@@IAE@AAVKFbxSdkManager@1@PBD@Z
   ??0KFbxContainer@fbxsdk_20102@@IAE@AAVKFbxSdkManager@1@PBD@Z
   ??0KFbxContainerTemplate@fbxsdk_20102@@IAE@AAVKFbxSdkManager@1@PBD@Z
   ??0KFbxControlSet@fbxsdk_20102@@AAE@XZ
   ??0KFbxControlSetLink@fbxsdk_20102@@QAE@ABV01@@Z
   ??0KFbxControlSetLink@fbxsdk_20102@@QAE@XZ
   ??0KFbxControlSetPlug@fbxsdk_20102@@IAE@AAVKFbxSdkManager@1@PBD@Z
   ??0KFbxCriteria@fbxsdk_20102@@AAE@PAVKFbxQuery@1@@Z
   ??0KFbxCriteria@fbxsdk_20102@@QAE@ABV01@@Z
   ??0KFbxCurrentDirectory@KFbxImpl@KFbxAssetBuilder@fbxsdk_20102@@QAE@XZ
   ??0KFbxDataType@fbxsdk_20102@@QAE@ABV01@@Z
   ??0KFbxDataType@fbxsdk_20102@@QAE@ABVKFbxPropertyHandle@1@@Z
   ??0KFbxDataType@fbxsdk_20102@@QAE@XZ
   ??0KFbxDefaultMemoryAllocator@fbxsdk_20102@@QAE@XZ
   ??0KFbxDefaultTakeCallback@fbxsdk_20102@@QAE@AAVKFbxProperty@1@HPAVKFCurve@1@PAVKFbxTakeNodeContainer@1@@Z
   ??0KFbxDeformer@fbxsdk_20102@@IAE@AAVKFbxSdkManager@1@PBD@Z
   ??0KFbxDegreeToRadian@fbxsdk_20102@@QAE@XZ
   ??0KFbxDependenciesHelper@fbxsdk_20102@@QAE@XZ
   ??0KFbxDependency@fbxsdk_20102@@IAE@AAVKFbxUINode@1@PAVKFbxCondition@1@@Z
   ??0KFbxDependencyBindFunctor@fbxsdk_20102@@QAE@ABVKFbxUIInstance@1@@Z
   ??0KFbxDisplayLayer@fbxsdk_20102@@IAE@AAVKFbxSdkManager@1@PBD@Z
   ??0KFbxDocument@fbxsdk_20102@@IAE@AAVKFbxSdkManager@1@PBD@Z
   ??0KFbxDocumentInfo@fbxsdk_20102@@IAE@AAVKFbxSdkManager@1@PBD@Z
   ??0KFbxDumper@fbxsdk_20102@@QAE@PAU_iobuf@@@Z
   ??0KFbxDumper@fbxsdk_20102@@QAE@PBD0@Z
   ??0KFbxDumper@fbxsdk_20102@@QAE@XZ
   ??0KFbxEdgeLookup@KFbxMesh@fbxsdk_20102@@QAE@XZ
   ??0KFbxEffector@fbxsdk_20102@@QAE@XZ
   ??0KFbxEmbeddedFileInfo@KFbxEmbeddedFilesAccumulator@fbxsdk_20102@@QAE@ABU012@@Z
   ??0KFbxEmbeddedFileInfo@KFbxEmbeddedFilesAccumulator@fbxsdk_20102@@QAE@XZ
   ??0KFbxEmbeddedFilesAccumulator@fbxsdk_20102@@QAE@AAVKFbxSdkManager@1@PBDAAV?$KSet2@VKString@fbxsdk_20102@@U?$KFbxLessCompare@VKString@fbxsdk_20102@@@2@VKBaseAllocator@2@@1@@Z
   ??0KFbxEmitter@kfbxevents@fbxsdk_20102@@QAE@XZ
   ??0KFbxEmitterData@KFbxEmitter@kfbxevents@fbxsdk_20102@@QAE@XZ
   ??0KFbxEntryView@fbxsdk_20102@@QAE@PAVKFbxBindingTableEntry@1@_N1@Z
   ??0KFbxEnvironment@fbxsdk_20102@@IAE@AAVKFbxSdkManager@1@PBD@Z
   ??0KFbxEventBase@kfbxevents@fbxsdk_20102@@QAE@XZ
   ??0KFbxEventHandler@kfbxevents@fbxsdk_20102@@QAE@XZ
   ??0KFbxEventPopulateSystemLibrary@fbxsdk_20102@@QAE@PAVKFbxLibrary@1@@Z
   ??0KFbxEventPostExport@fbxsdk_20102@@QAE@PAVKFbxDocument@1@@Z
   ??0KFbxEventPostImport@fbxsdk_20102@@QAE@PAVKFbxDocument@1@@Z
   ??0KFbxEventPreExport@fbxsdk_20102@@QAE@PAVKFbxDocument@1@@Z
   ??0KFbxEventPreImport@fbxsdk_20102@@QAE@PAVKFbxDocument@1@@Z
   ??0KFbxEventReferencedDocument@fbxsdk_20102@@QAE@XZ
   ??0KFbxEventWriteLocalization@fbxsdk_20102@@QAE@PAVKFbxLibrary@1@@Z
   ??0KFbxExporter@fbxsdk_20102@@IAE@AAVKFbxSdkManager@1@PBD@Z
   ??0KFbxExporterImp@fbxsdk_20102@@QAE@XZ
   ??0KFbxExposureControl@fbxsdk_20102@@IAE@AAVKFbxSdkManager@1@PBD@Z
   ??0KFbxExternalDocRefListener@fbxsdk_20102@@QAE@AAVKFbxSdkManager@1@ABVKString@1@@Z
   ??0KFbxExternalDocRefListenerData@fbxsdk_20102@@QAE@AAVKFbxSdkManager@1@ABVKString@1@@Z
   ??0KFbxExternalDocumentInfo@fbxsdk_20102@@QAE@ABU01@@Z
   ??0KFbxExternalDocumentInfo@fbxsdk_20102@@QAE@XZ
   ??0KFbxField@fbxsdk_20102@@QAE@XZ
   ??0KFbxFieldInfo@KFbxFieldInstance@fbxsdk_20102@@QAE@XZ
   ??0KFbxFieldInstance@fbxsdk_20102@@QAE@XZ
   ??0KFbxFieldList@fbxsdk_20102@@QAE@PAVKChainedFile@1@H_N1PAD@Z
   ??0KFbxFieldZlib@fbxsdk_20102@@QAE@XZ
   ??0KFbxFieldZlibBufferConsumer@fbxsdk_20102@@QAE@PADH@Z
   ??0KFbxFieldZlibConsumer@fbxsdk_20102@@QAE@XZ
   ??0KFbxFieldZlibFileConsumer@fbxsdk_20102@@QAE@PAVKChainedFile@1@@Z
   ??0KFbxFile@fbxsdk_20102@@QAE@XZ
   ??0KFbxFileAcclaimAmc@fbxsdk_20102@@QAE@_N@Z
   ??0KFbxFileAcclaimAsf@fbxsdk_20102@@QAE@_N@Z
   ??0KFbxFileAdaptiveOptics@fbxsdk_20102@@QAE@XZ
   ??0KFbxFileBiovision@fbxsdk_20102@@QAE@_N@Z
   ??0KFbxFileHeaderInfo@fbxsdk_20102@@QAE@XZ
   ??0KFbxFileMotionAnalysisHtr@fbxsdk_20102@@QAE@_N@Z
   ??0KFbxFileMotionAnalysisTrc@fbxsdk_20102@@QAE@XZ
   ??0KFbxFileVicon@fbxsdk_20102@@QAE@XZ
   ??0KFbxGenericNode@fbxsdk_20102@@IAE@AAVKFbxSdkManager@1@PBD@Z
   ??0KFbxGeometry@fbxsdk_20102@@IAE@AAVKFbxSdkManager@1@PBD@Z
   ??0KFbxGeometryBase@fbxsdk_20102@@IAE@AAVKFbxSdkManager@1@PBD@Z
   ??0KFbxGeometryConverter@fbxsdk_20102@@QAE@PAVKFbxSdkManager@1@@Z
   ??0KFbxGeometryWeightedMap@fbxsdk_20102@@IAE@AAVKFbxSdkManager@1@PBD@Z
   ??0KFbxGlobalCameraSettings@fbxsdk_20102@@AAE@AAVKFbxSdkManager@1@AAVKFbxScene@1@@Z
   ??0KFbxGlobalCameraSettingsProperties@fbxsdk_20102@@QAE@AAVKFbxScene@1@@Z
   ??0KFbxGlobalLightSettings@fbxsdk_20102@@AAE@XZ
   ??0KFbxGlobalLightSettingsProperties@fbxsdk_20102@@QAE@XZ
   ??0KFbxGlobalSettings@fbxsdk_20102@@AAE@AAVKFbxSdkManager@1@PBD@Z
   ??0KFbxGlobalTimeSettings@fbxsdk_20102@@AAE@XZ
   ??0KFbxGlobalTimeSettingsProperties@fbxsdk_20102@@QAE@XZ
   ??0KFbxGobo@fbxsdk_20102@@QAE@PAD@Z
   ??0KFbxHtrSegment@fbxsdk_20102@@QAE@XZ
   ??0KFbxImage@fbxsdk_20102@@IAE@AAVKFbxSdkManager@1@PBD@Z
   ??0KFbxImageConverter@fbxsdk_20102@@IAE@AAVKFbxSdkManager@1@PBD@Z
   ??0KFbxImageData@fbxsdk_20102@@QAE@PAXABVKFbxImagePixelFormat@1@HH@Z
   ??0KFbxImageData@fbxsdk_20102@@QAE@XZ
   ??0KFbxImagePixelFormat@fbxsdk_20102@@QAE@W4ComponentEncoding@01@W4PixelEncoding@01@@Z
   ??0KFbxImagePixelFormat@fbxsdk_20102@@QAE@XZ
   ??0KFbxImageProcess@fbxsdk_20102@@IAE@AAVKFbxSdkManager@1@PBD@Z
   ??0KFbxImageWidgetPreviewGenerator@fbxsdk_20102@@IAE@AAVKFbxSdkManager@1@PBD@Z
   ??0KFbxImpl@KFbx@fbxsdk_20102@@QAE@XZ
   ??0KFbxImpl@KFbxAssetBuilder@fbxsdk_20102@@QAE@AAVKFbxSdkManager@2@@Z
   ??0KFbxImpl@KFbxFieldZlib@fbxsdk_20102@@QAE@XZ
   ??0KFbxImpl@KFbxLocalizationBuilder@fbxsdk_20102@@QAE@AAVKFbxSdkManager@2@@Z
   ??0KFbxImplementation@fbxsdk_20102@@IAE@AAVKFbxSdkManager@1@PBD@Z
   ??0KFbxImplementationFilter@fbxsdk_20102@@QAE@PBD000@Z
   ??0KFbxImporter@fbxsdk_20102@@IAE@AAVKFbxSdkManager@1@PBD@Z
   ??0KFbxImporterImp@fbxsdk_20102@@QAE@XZ
   ??0KFbxInternalFilter@KFbxQuery@fbxsdk_20102@@QAE@PAV12@@Z
   ??0KFbxIO@fbxsdk_20102@@IAE@AAVKFbxSdkManager@1@PBD@Z
   ??0KFbxIOPluginRegistry@fbxsdk_20102@@QAE@XZ
   ??0KFbxIOSettings@fbxsdk_20102@@IAE@AAVKFbxSdkManager@1@PBD@Z
   ??0KFbxIsYup@fbxsdk_20102@@QAE@XZ
   ??0KFbxIteratorDstBase@fbxsdk_20102@@QAE@PAVKFbxObject@1@VkFbxClassId@1@@Z
   ??0KFbxIteratorSrcBase@fbxsdk_20102@@QAE@AAVKFbxProperty@1@VkFbxClassId@1@@Z
   ??0KFbxIteratorSrcBase@fbxsdk_20102@@QAE@PAVKFbxObject@1@VkFbxClassId@1@@Z
   ??0KFbxKFCurveFilterConstantKeyReducer@fbxsdk_20102@@IAE@AAVKFbxSdkManager@1@PBD@Z
   ??0KFbxKFCurveFilterMatrixConverter@fbxsdk_20102@@IAE@AAVKFbxSdkManager@1@PBD@Z
   ??0KFbxKFCurveFilterResample@fbxsdk_20102@@IAE@AAVKFbxSdkManager@1@PBD@Z
   ??0KFbxKFCurveFilters@fbxsdk_20102@@IAE@AAVKFbxSdkManager@1@PBD@Z
   ??0KFbxKFCurveFilterTSS@fbxsdk_20102@@IAE@AAVKFbxSdkManager@1@PBD@Z
   ??0KFbxKFCurveFilterUnroll@fbxsdk_20102@@IAE@AAVKFbxSdkManager@1@PBD@Z
   ??0KFbxLayer@fbxsdk_20102@@AAE@AAVKFbxLayerContainer@1@@Z
   ??0KFbxLayerContainer@fbxsdk_20102@@IAE@AAVKFbxSdkManager@1@PBD@Z
   ??0KFbxLayeredTexture@fbxsdk_20102@@IAE@AAVKFbxSdkManager@1@PBD@Z
   ??0KFbxLayerElement@fbxsdk_20102@@IAE@XZ
   ??0KFbxLayerElementArray@fbxsdk_20102@@QAE@W4EFbxType@1@@Z
   ??0KFbxLayerElementBinormal@fbxsdk_20102@@IAE@XZ
   ??0KFbxLayerElementCrease@fbxsdk_20102@@IAE@XZ
   ??0KFbxLayerElementMaterial@fbxsdk_20102@@IAE@XZ
   ??0KFbxLayerElementNormal@fbxsdk_20102@@IAE@XZ
   ??0KFbxLayerElementPolygonGroup@fbxsdk_20102@@IAE@XZ
   ??0KFbxLayerElementSmoothing@fbxsdk_20102@@IAE@XZ
   ??0KFbxLayerElementTangent@fbxsdk_20102@@IAE@XZ
   ??0KFbxLayerElementTexture@fbxsdk_20102@@IAE@XZ
   ??0KFbxLayerElementUserData@fbxsdk_20102@@IAE@ABV01@@Z
   ??0KFbxLayerElementUserData@fbxsdk_20102@@IAE@HAAV?$KArrayTemplate@VKFbxDataType@fbxsdk_20102@@@1@AAV?$KArrayTemplate@PBD@1@@Z
   ??0KFbxLayerElementUV@fbxsdk_20102@@IAE@XZ
   ??0KFbxLayerElementVertexColor@fbxsdk_20102@@IAE@XZ
   ??0KFbxLayerElementVisibility@fbxsdk_20102@@IAE@XZ
   ??0KFbxLayerEntryView@fbxsdk_20102@@QAE@PAVKFbxBindingTableEntry@1@_N1@Z
   ??0KFbxLibrary@fbxsdk_20102@@IAE@AAVKFbxSdkManager@1@PBD@Z
   ??0KFbxLight@fbxsdk_20102@@IAE@AAVKFbxSdkManager@1@PBD@Z
   ??0KFbxLimits@fbxsdk_20102@@QAE@PAVKMBTransform@1@@Z
   ??0KFbxLimitsUtilities@fbxsdk_20102@@QAE@PAVKFbxNodeLimits@1@@Z
   ??0KFbxListener@kfbxevents@fbxsdk_20102@@QAE@XZ
   ??0KFbxLoadingStrategy@fbxsdk_20102@@QAE@XZ
   ??0KFbxLocalization@fbxsdk_20102@@IAE@PBD@Z
   ??0KFbxLocalizationBuilder@fbxsdk_20102@@QAE@AAVKFbxSdkManager@1@@Z
   ??0KFbxLocalizationData@fbxsdk_20102@@QAE@XZ
   ??0KFbxLocalizationManager@fbxsdk_20102@@QAE@XZ
   ??0KFbxLocalizationManagerData@fbxsdk_20102@@QAE@XZ
   ??0KFbxLocalizationReadData@fbxsdk_20102@@QAE@XZ
   ??0KFbxLocalizationTriplet@fbxsdk_20102@@QAE@PBD00@Z
   ??0KFbxLocalizationTriplet@fbxsdk_20102@@QAE@XZ
   ??0KFbxLocalizer@fbxsdk_20102@@QAE@AAVKFbxSdkManager@1@@Z
   ??0KFbxLodGroup@fbxsdk_20102@@IAE@AAVKFbxSdkManager@1@PBD@Z
   ??0KFbxLogBase@fbxsdk_20102@@QAE@XZ
   ??0KFbxLogCallback@fbxsdk_20102@@QAE@PBD@Z
   ??0KFbxLogConsole@fbxsdk_20102@@QAE@PBD@Z
   ??0KFbxLogFile@fbxsdk_20102@@QAE@PBD@Z
   ??0KFbxLogMsg@fbxsdk_20102@@IAE@PBD@Z
   ??0KFbxLogMsg@fbxsdk_20102@@IAE@XZ
   ??0KFbxMarker@fbxsdk_20102@@IAE@AAVKFbxSdkManager@1@PBD@Z
   ??0KFbxMaterialConverter@fbxsdk_20102@@QAE@AAVKFbxSdkManager@1@PAVKFbxSurfaceMaterial@1@@Z
   ??0KFbxMaterialConverterImpl@fbxsdk_20102@@QAE@XZ
   ??0KFbxMatrix@fbxsdk_20102@@QAE@ABV01@@Z
   ??0KFbxMatrix@fbxsdk_20102@@QAE@ABVKFbxVector4@1@00@Z
   ??0KFbxMatrix@fbxsdk_20102@@QAE@ABVKFbxVector4@1@ABVKFbxQuaternion@1@0@Z
   ??0KFbxMatrix@fbxsdk_20102@@QAE@ABVKFbxXMatrix@1@@Z
   ??0KFbxMatrix@fbxsdk_20102@@QAE@XZ
   ??0KFbxMaxConverter@fbxsdk_20102@@QAE@AAVKFbxSdkManager@1@@Z
   ??0KFbxMaxExposureControlConverter@fbxsdk_20102@@QAE@AAVKFbxSdkManager@1@@Z
   ??0KFbxMaxLightConverter@fbxsdk_20102@@QAE@AAVKFbxSdkManager@1@@Z
   ??0KFbxMemoryAllocator@fbxsdk_20102@@QAE@P6APAXI@ZP6APAXII@ZP6APAXPAXI@ZP6AX2@ZP6AI2@Z@Z
   ??0KFbxMentalShaderParameterView@fbxsdk_20102@@QAE@PAVKFbxBindingTableEntry@1@_N1@Z
   ??0KFbxMesh@fbxsdk_20102@@IAE@AAVKFbxSdkManager@1@PBD@Z
   ??0KFbxMessage@fbxsdk_20102@@IAE@PBD@Z
   ??0KFbxMessage@fbxsdk_20102@@IAE@XZ
   ??0KFbxMessageEmitter@fbxsdk_20102@@QAE@XZ
   ??0KFbxMessageListener@fbxsdk_20102@@QAE@XZ
   ??0KFbxMissingUrlHandler@KFbxProcessorXRefCopy@fbxsdk_20102@@QAE@XZ
   ??0KFbxMissingUrlHandlerAsset@Impl@KFbxAssetWriter@fbxsdk_20102@@QAE@XZ
   ??0KFbxMultiplyBOF@fbxsdk_20102@@QAE@XZ
   ??0KFbxMultiplyDistBOF@fbxsdk_20102@@QAE@XZ
   ??0KFbxMutexData@KFbxMutex@kfbxmp@fbxsdk_20102@@QAE@XZ
   ??0KFbxMutexHelper@kfbxmp@fbxsdk_20102@@QAE@AAVKFbxMutex@12@@Z
   ??0KFbxNamedPipe@fbxsdk_20102@@QAE@PBDW4CommMode@01@@Z
   ??0KFbxNamedPipe@fbxsdk_20102@@QAE@XZ
   ??0KFbxNamedPipeData@fbxsdk_20102@@QAE@XZ
   ??0KFbxNode@fbxsdk_20102@@IAE@AAVKFbxSdkManager@1@PBD@Z
   ??0KFbxNode_internal@fbxsdk_20102@@QAE@PAVKFbxNode@1@@Z
   ??0KFbxNodeAttribute@fbxsdk_20102@@IAE@AAVKFbxSdkManager@1@PBD@Z
   ??0KFbxNodeDirectionBOF@fbxsdk_20102@@QAE@XZ
   ??0KFbxNodeFinder@fbxsdk_20102@@QAE@XZ
   ??0KFbxNodeFinderDuplicateName@fbxsdk_20102@@QAE@PAVKFbxScene@1@@Z
   ??0KFbxNodeIterator@fbxsdk_20102@@QAE@ABV01@@Z
   ??0KFbxNodeIterator@fbxsdk_20102@@QAE@PAVKFbxNode@1@W4TraversalType@01@@Z
   ??0KFbxNodeLimits@fbxsdk_20102@@QAE@PAVKFbxNode@1@PAVKMBTransform@1@@Z
   ??0KFbxNodePositionBOF@fbxsdk_20102@@QAE@XZ
   ??0KFbxNull@fbxsdk_20102@@IAE@AAVKFbxSdkManager@1@PBD@Z
   ??0KFbxNurb@fbxsdk_20102@@IAE@AAVKFbxSdkManager@1@PBD@Z
   ??0KFbxNurbsCurve@fbxsdk_20102@@IAE@AAVKFbxSdkManager@1@PBD@Z
   ??0KFbxNurbsSurface@fbxsdk_20102@@IAE@AAVKFbxSdkManager@1@PBD@Z
   ??0KFBXNURBSurfaceEvaluator@fbxsdk_20102@@QAE@XZ
   ??0KFbxObject@fbxsdk_20102@@IAE@AAVKFbxSdkManager@1@PBD@Z
   ??0KFbxObject_internal@fbxsdk_20102@@QAE@PAVKFbxObject@1@@Z
   ??0KFbxObjectCollapserUndo@KFbxWriterFbx7Impl@fbxsdk_20102@@QAE@PAU12@_N@Z
   ??0KFbxObjectFilter@fbxsdk_20102@@QAE@XZ
   ??0KFbxObjectMetaData@fbxsdk_20102@@IAE@AAVKFbxSdkManager@1@PBD@Z
   ??0KFbxObjectPropertyChanged@fbxsdk_20102@@QAE@VKFbxProperty@1@@Z
   ??0KFbxObjectsContainer@fbxsdk_20102@@QAE@XZ
   ??0KFbxObjectStringMap@fbxsdk_20102@@QAE@XZ
   ??0KFbxObjectThumbnailGenerator@fbxsdk_20102@@IAE@AAVKFbxSdkManager@1@PBD@Z
   ??0KFbxOffloadRecord@fbxsdk_20102@@QAE@PAVKFbxObject@1@KH@Z
   ??0KFbxOneOverXBOF@fbxsdk_20102@@QAE@XZ
   ??0KFbxOperatorEntryView@fbxsdk_20102@@QAE@PAVKFbxBindingTableEntry@1@_N1@Z
   ??0KFbxOpticalReference@fbxsdk_20102@@IAE@AAVKFbxSdkManager@1@PBD@Z
   ??0KFbxOverlappedIo@fbxsdk_20102@@QAE@XZ
   ??0KFbxPatch@fbxsdk_20102@@IAE@AAVKFbxSdkManager@1@PBD@Z
   ??0KFbxPeripheral@fbxsdk_20102@@QAE@XZ
   ??0KFbxPipeForwarder@fbxsdk_20102@@QAE@AAVKFbxNamedPipe@1@@Z
   ??0KFbxPipeForwarder@fbxsdk_20102@@QAE@XZ
   ??0KFbxPipeRetransmitter@fbxsdk_20102@@QAE@AAVKFbxNamedPipe@1@@Z
   ??0KFbxPipeRetransmitter@fbxsdk_20102@@QAE@XZ
   ??0KFbxPivot@KFbxNode_internal@fbxsdk_20102@@QAE@XZ
   ??0KFbxPivots@KFbxNode_internal@fbxsdk_20102@@QAE@XZ
   ??0KFbxPlug@fbxsdk_20102@@IAE@XZ
   ??0KFbxPlugin@fbxsdk_20102@@IAE@ABUKFbxPluginDefinition@1@PAX@Z
   ??0KFbxPluginContainer@fbxsdk_20102@@QAE@XZ
   ??0KFbxPluginData@fbxsdk_20102@@QAE@XZ
   ??0KFbxPluginDefinition@fbxsdk_20102@@QAE@ABU01@@Z
   ??0KFbxPluginHandle@fbxsdk_20102@@QAE@PAX@Z
   ??0KFbxPose@fbxsdk_20102@@IAE@AAVKFbxSdkManager@1@PBD@Z
   ??0KFbxPoseInfo@fbxsdk_20102@@QAE@XZ
   ??0KFbxPowerBOF@fbxsdk_20102@@QAE@XZ
   ??0KFbxPreviewDescriptor@fbxsdk_20102@@QAE@ABV01@@Z
   ??0KFbxPreviewDescriptor@fbxsdk_20102@@QAE@PBD0@Z
   ??0KFbxPreviewGenerator@fbxsdk_20102@@IAE@AAVKFbxSdkManager@1@PBD@Z
   ??0KFbxPreviewManager@fbxsdk_20102@@QAE@AAVKFbxSdkManager@1@@Z
   ??0KFbxProceduralGeometry@fbxsdk_20102@@IAE@AAVKFbxSdkManager@1@PBD@Z
   ??0KFbxProcessor@fbxsdk_20102@@IAE@AAVKFbxSdkManager@1@PBD@Z
   ??0KFbxProcessorShaderDependency@fbxsdk_20102@@IAE@AAVKFbxSdkManager@1@PBD@Z
   ??0KFbxProcessorXRefCopy@fbxsdk_20102@@IAE@AAVKFbxSdkManager@1@PBD@Z
   ??0KFbxProcessorXRefCopyUserLibrary@fbxsdk_20102@@IAE@AAVKFbxSdkManager@1@PBD@Z
   ??0KFbxProductInfo@fbxsdk_20102@@QAE@VKString@1@0000000@Z
   ??0KFbxProductInfo@fbxsdk_20102@@QAE@VKString@1@00000PAVKStringList@1@_N@Z
   ??0KFbxProductInfoBuilder@fbxsdk_20102@@QAE@XZ
   ??0KFbxProgressReporter@fbxsdk_20102@@QAE@PBD@Z
   ??0KFbxProperty@fbxsdk_20102@@IAE@ABV01@PBDABVKFbxDataType@1@1@Z
   ??0KFbxProperty@fbxsdk_20102@@QAE@ABV01@@Z
   ??0KFbxProperty@fbxsdk_20102@@QAE@ABVKFbxPropertyHandle@1@@Z
   ??0KFbxProperty@fbxsdk_20102@@QAE@XZ
   ??0KFbxPropertyConnect@fbxsdk_20102@@AAE@PAVKFbxPropertyPage@1@H@Z
   ??0KFbxPropertyEntry@fbxsdk_20102@@AAE@HPAVKFbxPropertyInfo@1@PAVKFbxPropertyValue@1@PAVKFbxPropertyConnect@1@@Z
   ??0KFbxPropertyEntryView@fbxsdk_20102@@QAE@PAVKFbxBindingTableEntry@1@_N1@Z
   ??0KFbxPropertyFlags@fbxsdk_20102@@QAE@W4eFbxPropertyFlags@FbxPropertyFlags@1@@Z
   ??0KFbxPropertyFlags@fbxsdk_20102@@QAE@XZ
   ??0KFbxPropertyHandle@fbxsdk_20102@@QAE@ABV01@@Z
   ??0KFbxPropertyHandle@fbxsdk_20102@@QAE@PAVKFbxPropertyPage@1@H@Z
   ??0KFbxPropertyHandle@fbxsdk_20102@@QAE@XZ
   ??0KFbxPropertyIdGenerator@fbxsdk_20102@@QAE@XZ
   ??0KFbxPropertyInfo@fbxsdk_20102@@AAE@PBDPAVKFbxPropertyPage@1@@Z
   ??0KFbxPropertyInfo@fbxsdk_20102@@AAE@PBDW4EFbxType@1@@Z
   ??0KFbxPropertyInfo@fbxsdk_20102@@AAE@VKFbxStringSymbol@1@PAVKFbxPropertyPage@1@@Z
   ??0KFbxPropertyNameCache@KFbxProperty@fbxsdk_20102@@QAE@ABV12@@Z
   ??0KFbxPropertyPage@fbxsdk_20102@@IAE@PAV01@@Z
   ??0KFbxPropertyPage@fbxsdk_20102@@IAE@PBDPAV01@@Z
   ??0KFbxPropertyPage@fbxsdk_20102@@IAE@PBDW4EFbxType@1@@Z
   ??0KFbxPropertyUpdate@KFbxProcessorXRefCopy@fbxsdk_20102@@QAE@ABU012@@Z
   ??0KFbxPropertyUpdate@KFbxProcessorXRefCopy@fbxsdk_20102@@QAE@ABVKFbxProperty@2@ABVKString@2@@Z
   ??0KFbxPropertyUrlIndex@KFbxEmbeddedFilesAccumulator@fbxsdk_20102@@QAE@ABU012@@Z
   ??0KFbxPropertyUrlIndex@KFbxEmbeddedFilesAccumulator@fbxsdk_20102@@QAE@ABVKString@2@H@Z
   ??0KFbxPropertyValue@fbxsdk_20102@@AAE@PAXW4EFbxType@1@@Z
   ??0KFbxQuaternion@fbxsdk_20102@@QAE@ABV01@@Z
   ??0KFbxQuaternion@fbxsdk_20102@@QAE@NNNN@Z
   ??0KFbxQuaternion@fbxsdk_20102@@QAE@XZ
   ??0KFbxQuery@fbxsdk_20102@@IAE@XZ
   ??0KFbxQueryClassId@fbxsdk_20102@@IAE@VkFbxClassId@1@@Z
   ??0KFbxQueryConnectionType@fbxsdk_20102@@IAE@W4kFbxConnectionType@1@@Z
   ??0KFbxQueryIsA@fbxsdk_20102@@IAE@VkFbxClassId@1@@Z
   ??0KFbxQueryOperator@fbxsdk_20102@@IAE@PAVKFbxQuery@1@W4eFbxQueryOperator@1@0@Z
   ??0KFbxQueryProperty@fbxsdk_20102@@IAE@XZ
   ??0KFbxRawImage@fbxsdk_20102@@IAE@AAVKFbxSdkManager@1@PBD@Z
   ??0KFbxReader@fbxsdk_20102@@QAE@AAVKFbxSdkManager@1@H@Z
   ??0KFbxReader3DS@fbxsdk_20102@@QAE@AAVKFbxSdkManager@1@H@Z
   ??0KFbxReaderAcclaimAmc@fbxsdk_20102@@QAE@AAVKFbxSdkManager@1@H@Z
   ??0KFbxReaderAcclaimAsf@fbxsdk_20102@@QAE@AAVKFbxSdkManager@1@H@Z
   ??0KFbxReaderAdaptiveOptics@fbxsdk_20102@@QAE@AAVKFbxSdkManager@1@H_N@Z
   ??0KFbxReaderBiovision@fbxsdk_20102@@QAE@AAVKFbxSdkManager@1@H@Z
   ??0KFbxReaderCollada@fbxsdk_20102@@QAE@AAVKFbxSdkManager@1@H@Z
   ??0KFbxReaderDxf@fbxsdk_20102@@QAE@AAVKFbxSdkManager@1@H@Z
   ??0KFbxReaderFbx@fbxsdk_20102@@QAE@AAVKFbxSdkManager@1@AAVKFbxImporter@1@H@Z
   ??0KFbxReaderFbx6@fbxsdk_20102@@QAE@AAVKFbxSdkManager@1@AAVKFbxImporter@1@H@Z
   ??0KFbxReaderFbx7@fbxsdk_20102@@QAE@AAVKFbxSdkManager@1@AAVKFbxImporter@1@H@Z
   ??0KFbxReaderFbx7Impl@fbxsdk_20102@@QAE@AAVKFbxSdkManager@1@AAVKFbxImporter@1@PAVKFbxReader@1@AAVKError@1@@Z
   ??0KFbxReaderMotionAnalysisHtr@fbxsdk_20102@@QAE@AAVKFbxSdkManager@1@H@Z
   ??0KFbxReaderMotionAnalysisTrc@fbxsdk_20102@@QAE@AAVKFbxSdkManager@1@H@Z
   ??0KFbxReaderMotionBase@fbxsdk_20102@@QAE@AAVKFbxSdkManager@1@H@Z
   ??0KFbxReaderObj@fbxsdk_20102@@QAE@AAVKFbxSdkManager@1@H@Z
   ??0KFbxReaderVicon@fbxsdk_20102@@QAE@AAVKFbxSdkManager@1@H@Z
   ??0KFbxRecursiveDumper@fbxsdk_20102@@QAE@PAU_iobuf@@ABVKFbxDumperOptions@1@@Z
   ??0KFbxRenamingStrategy@fbxsdk_20102@@QAE@W4EMode@01@_N@Z
   ??0KFbxRenamingStrategyAmc@fbxsdk_20102@@QAE@XZ
   ??0KFbxRenamingStrategyAsf@fbxsdk_20102@@QAE@XZ
   ??0KFbxRenamingStrategyBase@fbxsdk_20102@@QAE@D@Z
   ??0KFbxRenamingStrategyBase@fbxsdk_20102@@QAE@XZ
   ??0KFbxRenamingStrategyBvh@fbxsdk_20102@@QAE@XZ
   ??0KFbxRenamingStrategyC3d@fbxsdk_20102@@QAE@XZ
   ??0KFbxRenamingStrategyFbx5@fbxsdk_20102@@QAE@XZ
   ??0KFbxRenamingStrategyFbx6@fbxsdk_20102@@QAE@XZ
   ??0KFbxRenamingStrategyFbx7@fbxsdk_20102@@QAE@XZ
   ??0KFbxRenamingStrategyHtr@fbxsdk_20102@@QAE@XZ
   ??0KFbxRenamingStrategyMax@fbxsdk_20102@@QAE@XZ
   ??0KFbxRenamingStrategyMaya@fbxsdk_20102@@QAE@XZ
   ??0KFbxRenamingStrategyMotionBuilder@fbxsdk_20102@@QAE@XZ
   ??0KFbxRenamingStrategyTrc@fbxsdk_20102@@QAE@XZ
   ??0KFbxRootNodeUtility@fbxsdk_20102@@IAE@ABV01@@Z
   ??0KFbxRootNodeUtility@fbxsdk_20102@@IAE@XZ
   ??0KFbxScene@fbxsdk_20102@@AAE@AAVKFbxSdkManager@1@PBD@Z
   ??0KFbxSceneRenamer@fbxsdk_20102@@QAE@PAVKFbxScene@1@@Z
   ??0KFbxScopedLoadingDirectory@fbxsdk_20102@@QAE@PBD0@Z
   ??0KFbxScopedLoadingFileName@fbxsdk_20102@@QAE@PBD@Z
   ??0KFbxScriptBindFunctor@fbxsdk_20102@@QAE@AAVKFbxListener@kfbxevents@1@@Z
   ??0KFbxScriptEvent@fbxsdk_20102@@QAE@ABVKString@1@ABVKFbxUINode@1@@Z
   ??0KFbxSdkManager@fbxsdk_20102@@IAE@XZ
   ??0KFbxSdkManager_internal@fbxsdk_20102@@QAE@AAVKFbxSdkManager@1@@Z
   ??0KFbxSelectionNode@fbxsdk_20102@@IAE@AAVKFbxSdkManager@1@PBD@Z
   ??0KFbxSelectionSet@fbxsdk_20102@@IAE@AAVKFbxSdkManager@1@PBD@Z
   ??0KFbxSemanticEntryView@fbxsdk_20102@@QAE@PAVKFbxBindingTableEntry@1@_N1@Z
   ??0KFbxShadingNode@fbxsdk_20102@@IAE@AAVKFbxSdkManager@1@PBD@Z
   ??0KFbxShadingObject@fbxsdk_20102@@IAE@AAVKFbxSdkManager@1@PBD@Z
   ??0KFbxShadowPlane@KFbxGlobalLightSettings@fbxsdk_20102@@QAE@ABU012@@Z
   ??0KFbxShadowPlane@KFbxGlobalLightSettings@fbxsdk_20102@@QAE@XZ
   ??0KFbxShape@fbxsdk_20102@@IAE@AAVKFbxSdkManager@1@PBD@Z
   ??0KFbxSkeleton@fbxsdk_20102@@IAE@AAVKFbxSdkManager@1@PBD@Z
   ??0KFbxSkin@fbxsdk_20102@@IAE@AAVKFbxSdkManager@1@PBD@Z
   ??0KFbxSphericalToCartesianBOF@fbxsdk_20102@@QAE@XZ
   ??0KFbxSpotDistributionChooserBOF@fbxsdk_20102@@QAE@XZ
   ??0KFbxState@KFbxNode_internal@fbxsdk_20102@@QAE@XZ
   ??0KFbxStatistics@fbxsdk_20102@@QAE@XZ
   ??0KFbxStatisticsFbx@fbxsdk_20102@@QAE@XZ
   ??0KFbxStream@fbxsdk_20102@@QAE@XZ
   ??0KFbxStreamOptions@fbxsdk_20102@@IAE@AAVKFbxSdkManager@1@PBD@Z
   ??0KFbxStreamOptions3dsReader@fbxsdk_20102@@IAE@AAVKFbxSdkManager@1@PBD@Z
   ??0KFbxStreamOptions3dsWriter@fbxsdk_20102@@IAE@AAVKFbxSdkManager@1@PBD@Z
   ??0KFbxStreamOptionsColladaReader@fbxsdk_20102@@IAE@AAVKFbxSdkManager@1@PBD@Z
   ??0KFbxStreamOptionsColladaWriter@fbxsdk_20102@@IAE@AAVKFbxSdkManager@1@PBD@Z
   ??0KFbxStreamOptionsDxfReader@fbxsdk_20102@@IAE@AAVKFbxSdkManager@1@PBD@Z
   ??0KFbxStreamOptionsDxfWriter@fbxsdk_20102@@IAE@AAVKFbxSdkManager@1@PBD@Z
   ??0KFbxStreamOptionsFbxReader@fbxsdk_20102@@IAE@AAVKFbxSdkManager@1@PBD@Z
   ??0KFbxStreamOptionsFbxWriter@fbxsdk_20102@@IAE@AAVKFbxSdkManager@1@PBD@Z
   ??0KFbxStreamOptionsMotionReader@fbxsdk_20102@@IAE@AAVKFbxSdkManager@1@PBD@Z
   ??0KFbxStreamOptionsMotionWriter@fbxsdk_20102@@IAE@AAVKFbxSdkManager@1@PBD@Z
   ??0KFbxStreamOptionsObjReader@fbxsdk_20102@@IAE@AAVKFbxSdkManager@1@PBD@Z
   ??0KFbxStreamOptionsObjWriter@fbxsdk_20102@@IAE@AAVKFbxSdkManager@1@PBD@Z
   ??0KFbxStringSymbol@fbxsdk_20102@@QAE@ABV01@@Z
   ??0KFbxStringSymbol@fbxsdk_20102@@QAE@PBD@Z
   ??0KFbxStringSymbol@fbxsdk_20102@@QAE@XZ
   ??0KFbxSubDeformer@fbxsdk_20102@@IAE@AAVKFbxSdkManager@1@PBD@Z
   ??0KFbxSubdiv@fbxsdk_20102@@QAE@AAVKFbxSdkManager@1@PBD@Z
   ??0KFbxSubstractBOF@fbxsdk_20102@@QAE@XZ
   ??0KFBXSurfaceEvaluator@fbxsdk_20102@@QAE@XZ
   ??0KFbxSurfaceLambert@fbxsdk_20102@@IAE@AAVKFbxSdkManager@1@PBD@Z
   ??0KFbxSurfaceMaterial@fbxsdk_20102@@IAE@AAVKFbxSdkManager@1@PBD@Z
   ??0KFbxSurfacePhong@fbxsdk_20102@@IAE@AAVKFbxSdkManager@1@PBD@Z
   ??0KFbxSwatchScene@fbxsdk_20102@@AAE@AAVKFbxSdkManager@1@PBD@Z
   ??0KFbxSwitchBOF@fbxsdk_20102@@QAE@XZ
   ??0KFbxSymbol@fbxsdk_20102@@QAE@PBD0@Z
   ??0KFbxSymbolIDBOF@fbxsdk_20102@@QAE@XZ
   ??0KFbxSymbolTable@fbxsdk_20102@@QAE@XZ
   ??0KFbxSystemUnit@fbxsdk_20102@@QAE@NN@Z
   ??0KFbxTakeInfo@fbxsdk_20102@@QAE@ABV01@@Z
   ??0KFbxTakeInfo@fbxsdk_20102@@QAE@XZ
   ??0KFbxTakeNode@fbxsdk_20102@@QAE@AAV01@@Z
   ??0KFbxTakeNode@fbxsdk_20102@@QAE@PAD@Z
   ??0KFbxTakeNodeContainer@fbxsdk_20102@@IAE@AAVKFbxSdkManager@1@PBDPAVKError@1@@Z
   ??0KFbxTempFileStream@fbxsdk_20102@@QAE@XZ
   ??0KFbxTextFile@fbxsdk_20102@@QAE@PBD00_N1@Z
   ??0KFbxTexture@fbxsdk_20102@@IAE@AAVKFbxSdkManager@1@PBD@Z
   ??0KFbxThumbnail@fbxsdk_20102@@IAE@AAVKFbxSdkManager@1@PBD@Z
   ??0KFbxThumbnailGenerator@fbxsdk_20102@@IAE@AAVKFbxSdkManager@1@PBD@Z
   ??0KFbxThumbnailMembers@fbxsdk_20102@@QAE@XZ
   ??0KFbxTiledImage@fbxsdk_20102@@IAE@AAVKFbxSdkManager@1@PBD@Z
   ??0KFbxTimeMarker@KFbxGlobalTimeSettings@fbxsdk_20102@@QAE@ABU012@@Z
   ??0KFbxTimeMarker@KFbxGlobalTimeSettings@fbxsdk_20102@@QAE@XZ
   ??0KFbxTrimNurbsSurface@fbxsdk_20102@@IAE@AAVKFbxSdkManager@1@PBD@Z
   ??0KFbxTRSCache@KFbxNode_internal@fbxsdk_20102@@QAE@XZ
   ??0KFbxTRSToMatrixBOF@fbxsdk_20102@@QAE@XZ
   ??0KFbxUIBuilder@fbxsdk_20102@@QAE@XZ
   ??0KFbxUIDefinition@fbxsdk_20102@@IAE@AAVKFbxSdkManager@1@PBD@Z
   ??0KFbxUIDefinitionBuilder@fbxsdk_20102@@QAE@XZ
   ??0KFbxUIImporter@fbxsdk_20102@@IAE@AAVKFbxSdkManager@1@PBD@Z
   ??0KFbxUIInstance@fbxsdk_20102@@IAE@PAVKFbxUINode@1@@Z
   ??0KFbxUINode@fbxsdk_20102@@IAE@PAV01@@Z
   ??0KFbxUIObject@fbxsdk_20102@@IAE@AAVKFbxSdkManager@1@PBD@Z
   ??0KFbxUIUpdateFunctor@fbxsdk_20102@@QAE@AAVKFbxListener@kfbxevents@1@@Z
   ??0KFbxUIView@fbxsdk_20102@@IAE@PAVKFbxUINode@1@@Z
   ??0KFbxUIWidgetDefinition@fbxsdk_20102@@IAE@AAVKFbxSdkManager@1@PBD@Z
   ??0KFbxUnaryQueryOperator@fbxsdk_20102@@IAE@PAVKFbxQuery@1@W4eFbxUnaryQueryOperator@1@@Z
   ??0KFbxUniqueNameObjectList@fbxsdk_20102@@QAE@HH@Z
   ??0KFbxUserNotification@fbxsdk_20102@@QAE@PAVKFbxSdkManager@1@ABVKString@1@1@Z
   ??0KFbxUserNotificationFilteredIterator@fbxsdk_20102@@QAE@AAVKFbxUserNotification@1@HW4OutputSource@21@_N@Z
   ??0KFbxUserParamEntry@fbxsdk_20102@@QAE@VKString@1@W4ETypeID@01@0H@Z
   ??0KFbxUserParams@fbxsdk_20102@@IAE@XZ
   ??0KFbxVector2@fbxsdk_20102@@QAE@ABV01@@Z
   ??0KFbxVector2@fbxsdk_20102@@QAE@NN@Z
   ??0KFbxVector2@fbxsdk_20102@@QAE@XZ
   ??0KFbxVector4@fbxsdk_20102@@QAE@ABV?$fbxVectorTemplate3@N@1@@Z
   ??0KFbxVector4@fbxsdk_20102@@QAE@ABV01@@Z
   ??0KFbxVector4@fbxsdk_20102@@QAE@NNNN@Z
   ??0KFbxVector4@fbxsdk_20102@@QAE@QBN@Z
   ??0KFbxVector4@fbxsdk_20102@@QAE@XZ
   ??0KFbxVectorDegreeToVectorRadian@fbxsdk_20102@@QAE@XZ
   ??0KFbxVertexCacheDeformer@fbxsdk_20102@@IAE@AAVKFbxSdkManager@1@PBD@Z
   ??0KFbxVideo@fbxsdk_20102@@IAE@AAVKFbxSdkManager@1@PBD@Z
   ??0KFbxVisibilityDependency@fbxsdk_20102@@IAE@AAVKFbxUINode@1@PAVKFbxCondition@1@_N@Z
   ??0KFbxWeightedMapping@fbxsdk_20102@@QAE@HH@Z
   ??0KFbxWeightInfo@fbxsdk_20102@@QAE@XZ
   ??0KFbxWriter@fbxsdk_20102@@QAE@AAVKFbxSdkManager@1@H@Z
   ??0KFbxWriter3DS@fbxsdk_20102@@QAE@AAVKFbxSdkManager@1@H@Z
   ??0KFbxWriterAcclaimAmc@fbxsdk_20102@@QAE@AAVKFbxSdkManager@1@H@Z
   ??0KFbxWriterAcclaimAsf@fbxsdk_20102@@QAE@AAVKFbxSdkManager@1@H@Z
   ??0KFbxWriterAdaptiveOptics@fbxsdk_20102@@QAE@AAVKFbxSdkManager@1@H_N@Z
   ??0KFbxWriterBiovision@fbxsdk_20102@@QAE@AAVKFbxSdkManager@1@H@Z
   ??0KFbxWriterCollada@fbxsdk_20102@@QAE@AAVKFbxSdkManager@1@H@Z
   ??0KFbxWriterDxf@fbxsdk_20102@@QAE@AAVKFbxSdkManager@1@H@Z
   ??0KFbxWriterFbx@fbxsdk_20102@@QAE@AAVKFbxSdkManager@1@AAVKFbxExporter@1@H@Z
   ??0KFbxWriterFbx6@fbxsdk_20102@@QAE@AAVKFbxSdkManager@1@AAVKFbxExporter@1@H@Z
   ??0KFbxWriterFbx7@fbxsdk_20102@@QAE@AAVKFbxSdkManager@1@AAVKFbxExporter@1@H@Z
   ??0KFbxWriterFbx7@fbxsdk_20102@@QAE@AAVKFbxSdkManager@1@AAVKFbxExporter@1@W4EExportMode@01@H@Z
   ??0KFbxWriterFbx7Impl@fbxsdk_20102@@QAE@AAVKFbxSdkManager@1@AAVKFbxExporter@1@AAVKError@1@@Z
   ??0KFbxWriterMotionAnalysisHtr@fbxsdk_20102@@QAE@AAVKFbxSdkManager@1@H@Z
   ??0KFbxWriterMotionAnalysisTrc@fbxsdk_20102@@QAE@AAVKFbxSdkManager@1@H@Z
   ??0KFbxWriterMotionBase@fbxsdk_20102@@QAE@AAVKFbxSdkManager@1@H@Z
   ??0KFbxWriterObj@fbxsdk_20102@@QAE@AAVKFbxSdkManager@1@H@Z
   ??0KFbxWriterVicon@fbxsdk_20102@@QAE@AAVKFbxSdkManager@1@H@Z
   ??0KFbxXMatrix@fbxsdk_20102@@QAE@ABV01@@Z
   ??0KFbxXMatrix@fbxsdk_20102@@QAE@ABVKFbxVector4@1@00@Z
   ??0KFbxXMatrix@fbxsdk_20102@@QAE@XZ
   ??0KFbxXRefManager@fbxsdk_20102@@QAE@XZ
   ??0KFCurve@fbxsdk_20102@@QAE@XZ
   ??0KFCurveCtrlPoint@fbxsdk_20102@@QAE@MM@Z
   ??0KFCurveCtrlPoint@fbxsdk_20102@@QAE@XZ
   ??0KFCurveEvent@fbxsdk_20102@@QAE@XZ
   ??0KFCurveFilter@fbxsdk_20102@@IAE@PBDQAPADH@Z
   ??0KFCurveFilterConstantKeyReducer@fbxsdk_20102@@QAE@XZ
   ??0KFCurveFilterGimbleKiller@fbxsdk_20102@@QAE@XZ
   ??0KFCurveFilterKeyReducer@fbxsdk_20102@@QAE@XZ
   ??0KFCurveFilterKeySync@fbxsdk_20102@@QAE@XZ
   ??0KFCurveFilterMatrixConverter@fbxsdk_20102@@QAE@XZ
   ??0KFCurveFilterResample@fbxsdk_20102@@QAE@XZ
   ??0KFCurveFilterScale@fbxsdk_20102@@QAE@XZ
   ??0KFCurveFilterTimeShiftAndScale@fbxsdk_20102@@QAE@XZ
   ??0KFCurveFilterUnroll@fbxsdk_20102@@QAE@XZ
   ??0KFCurveKey@fbxsdk_20102@@QAE@XZ
   ??0KFCurveNode@fbxsdk_20102@@QAE@PAD0PAVKDataType@1@HH@Z
   ??0KFCurveNode@fbxsdk_20102@@QAE@PAV01@@Z
   ??0KFCurveNodeCallback@fbxsdk_20102@@QAE@XZ
   ??0KFCurveNodeCandidateState@fbxsdk_20102@@QAE@XZ
   ??0KFCurveNodeEvent@fbxsdk_20102@@QAE@XZ
   ??0KFCurveSmartMergeInfos@fbxsdk_20102@@QAE@XZ
   ??0KFCurveTangeantInfo@fbxsdk_20102@@QAE@XZ
   ??0KFile@fbxsdk_20102@@QAE@XZ
   ??0KFilePrivateData@fbxsdk_20102@@QAE@XZ
   ??0KFilterSetBase@fbxsdk_20102@@QAE@XZ
   ??0KFindNextSetBit@fbxsdk_20102@@QAE@XZ
   ??0KgeAMatrix@fbxsdk_20102@@QAE@ABV01@@Z
   ??0KgeAMatrix@fbxsdk_20102@@QAE@ABVKgeRVector@1@@Z
   ??0KgeAMatrix@fbxsdk_20102@@QAE@ABVKgeSVector@1@@Z
   ??0KgeAMatrix@fbxsdk_20102@@QAE@ABVKgeTVector@1@@Z
   ??0KgeAMatrix@fbxsdk_20102@@QAE@ABVKgeTVector@1@ABVKgeQuaternion@1@ABVKgeSVector@1@@Z
   ??0KgeAMatrix@fbxsdk_20102@@QAE@ABVKgeTVector@1@ABVKgeRVector@1@ABVKgeSVector@1@@Z
   ??0KgeAMatrix@fbxsdk_20102@@QAE@QAY03$$CBN@Z
   ??0KgeAMatrix@fbxsdk_20102@@QAE@XZ
   ??0KgeMatrix@fbxsdk_20102@@QAE@XZ
   ??0KgeQuaternion@fbxsdk_20102@@QAE@ABVKgeAMatrix@1@@Z
   ??0KgeQuaternion@fbxsdk_20102@@QAE@ABVKgeRMatrix@1@@Z
   ??0KgeQuaternion@fbxsdk_20102@@QAE@NNNN@Z
   ??0KgeQuaternion@fbxsdk_20102@@QAE@QBN@Z
   ??0KgeQuaternion@fbxsdk_20102@@QAE@XZ
   ??0KgeRMatrix@fbxsdk_20102@@QAE@ABV01@@Z
   ??0KgeRMatrix@fbxsdk_20102@@QAE@ABVKgeQuaternion@1@@Z
   ??0KgeRMatrix@fbxsdk_20102@@QAE@ABVKgeRVector@1@@Z
   ??0KgeRMatrix@fbxsdk_20102@@QAE@NNN@Z
   ??0KgeRMatrix@fbxsdk_20102@@QAE@QAY03$$CBN@Z
   ??0KgeRMatrix@fbxsdk_20102@@QAE@XZ
   ??0KgeRVector@fbxsdk_20102@@QAE@ABV01@@Z
   ??0KgeRVector@fbxsdk_20102@@QAE@ABVKgeAMatrix@1@@Z
   ??0KgeRVector@fbxsdk_20102@@QAE@ABVKgeQuaternion@1@@Z
   ??0KgeRVector@fbxsdk_20102@@QAE@ABVKgeRMatrix@1@@Z
   ??0KgeRVector@fbxsdk_20102@@QAE@NNN@Z
   ??0KgeRVector@fbxsdk_20102@@QAE@QBN@Z
   ??0KgeRVector@fbxsdk_20102@@QAE@XZ
   ??0KgeSMatrix@fbxsdk_20102@@QAE@XZ
   ??0KgeSVector@fbxsdk_20102@@QAE@ABVKgeAMatrix@1@@Z
   ??0KgeSVector@fbxsdk_20102@@QAE@ABVKgeSMatrix@1@@Z
   ??0KgeSVector@fbxsdk_20102@@QAE@N@Z
   ??0KgeSVector@fbxsdk_20102@@QAE@NNN@Z
   ??0KgeSVector@fbxsdk_20102@@QAE@QBN@Z
   ??0KgeSVector@fbxsdk_20102@@QAE@XZ
   ??0KgeTMatrix@fbxsdk_20102@@QAE@XZ
   ??0KgeTVector@fbxsdk_20102@@QAE@ABV01@@Z
   ??0KgeTVector@fbxsdk_20102@@QAE@ABVKgeAMatrix@1@@Z
   ??0KgeTVector@fbxsdk_20102@@QAE@ABVKgeTMatrix@1@@Z
   ??0KgeTVector@fbxsdk_20102@@QAE@NNN@Z
   ??0KgeTVector@fbxsdk_20102@@QAE@QBN@Z
   ??0KgeTVector@fbxsdk_20102@@QAE@XZ
   ??0KgeVertex@fbxsdk_20102@@QAE@XZ
   ??0KgVector@fbxsdk_20102@@QAE@ABV01@@Z
   ??0KgVector@fbxsdk_20102@@QAE@NNNN@Z
   ??0KgVector@fbxsdk_20102@@QAE@XZ
   ??0KHungryAllocator@fbxsdk_20102@@QAE@I@Z
   ??0KIndexGroup@fbxsdk_20102@@QAE@ABV01@@Z
   ??0KIndexGroup@fbxsdk_20102@@QAE@HHH@Z
   ??0KIScope@fbxsdk_20102@@QAE@AAVKViconLoaderBase@1@H@Z
   ??0KKeyValuePair@?$KMap@_JPAVKFbxObject@fbxsdk_20102@@U?$KFbxLessCompare@_J@2@VKBaseAllocator@2@@fbxsdk_20102@@QAE@AB_JABQAVKFbxObject@2@@Z
   ??0KKeyValuePair@?$KMap@HHU?$KFbxLessCompare@H@fbxsdk_20102@@VKBaseAllocator@2@@fbxsdk_20102@@QAE@ABH0@Z
   ??0KKeyValuePair@?$KMap@HPAVKFbxPropertyEntry@fbxsdk_20102@@U?$KFbxLessCompare@H@2@VKHungryAllocator@2@@fbxsdk_20102@@QAE@ABHABQAVKFbxPropertyEntry@2@@Z
   ??0KKeyValuePair@?$KMap@PAVKFbxObject@fbxsdk_20102@@_JU?$KFbxLessCompare@PAVKFbxObject@fbxsdk_20102@@@2@VKBaseAllocator@2@@fbxsdk_20102@@QAE@ABQAVKFbxObject@2@AB_J@Z
   ??0KKeyValuePair@?$KMap@PAVKFbxObject@fbxsdk_20102@@UCloneSetElement@KFbxCloneManager@2@VKFbxObjectCompare@42@VKBaseAllocator@2@@fbxsdk_20102@@QAE@ABQAVKFbxObject@2@ABUCloneSetElement@KFbxCloneManager@2@@Z
   ??0KKeyValuePair@?$KMap@PAVKFbxObject@fbxsdk_20102@@V?$KSet2@UKFbxPropertyUpdate@KFbxProcessorXRefCopy@fbxsdk_20102@@U?$KFbxLessCompare@UKFbxPropertyUpdate@KFbxProcessorXRefCopy@fbxsdk_20102@@@3@VKBaseAllocator@3@@2@U?$KFbxLessCompare@PAVKFbxObject@fbxsdk_20102@@@2@VKBaseAllocator@2@@fbxsdk_20102@@QAE@ABQAVKFbxObject@2@ABV?$KSet2@UKFbxPropertyUpdate@KFbxProcessorXRefCopy@fbxsdk_20102@@U?$KFbxLessCompare@UKFbxPropertyUpdate@KFbxProcessorXRefCopy@fbxsdk_20102@@@3@VKBaseAllocator@3@@2@@Z
   ??0KKeyValuePair@?$KMap@PAVKFbxObject@fbxsdk_20102@@V?$KSet2@UKFbxPropertyUpdate@KFbxProcessorXRefCopy@fbxsdk_20102@@U?$KFbxLessCompare@UKFbxPropertyUpdate@KFbxProcessorXRefCopy@fbxsdk_20102@@@3@VKBaseAllocator@3@@2@U?$KFbxLessCompare@PAVKFbxObject@fbxsdk_20102@@@2@VKBaseAllocator@2@@fbxsdk_20102@@QAE@ABV012@@Z
   ??0KKeyValuePair@?$KMap@PAVKFbxObject@fbxsdk_20102@@V?$KSet2@UKFbxPropertyUrlIndex@KFbxEmbeddedFilesAccumulator@fbxsdk_20102@@UKFbxPropertyUrlIndexCompare@23@VKBaseAllocator@3@@2@U?$KFbxLessCompare@PAVKFbxObject@fbxsdk_20102@@@2@VKBaseAllocator@2@@fbxsdk_20102@@QAE@ABQAVKFbxObject@2@ABV?$KSet2@UKFbxPropertyUrlIndex@KFbxEmbeddedFilesAccumulator@fbxsdk_20102@@UKFbxPropertyUrlIndexCompare@23@VKBaseAllocator@3@@2@@Z
   ??0KKeyValuePair@?$KMap@PAVKFbxObject@fbxsdk_20102@@V?$KSet2@UKFbxPropertyUrlIndex@KFbxEmbeddedFilesAccumulator@fbxsdk_20102@@UKFbxPropertyUrlIndexCompare@23@VKBaseAllocator@3@@2@U?$KFbxLessCompare@PAVKFbxObject@fbxsdk_20102@@@2@VKBaseAllocator@2@@fbxsdk_20102@@QAE@ABV012@@Z
   ??0KKeyValuePair@?$KMap@PBDPBVFunctionCreatorBase@KFbxBindingOperator@fbxsdk_20102@@VKCharCompare@3@VKBaseAllocator@3@@fbxsdk_20102@@QAE@ABQBDABQBVFunctionCreatorBase@KFbxBindingOperator@2@@Z
   ??0KKeyValuePair@?$KMap@V?$KPair@HH@fbxsdk_20102@@HVPointsToEdgeComparator@2@VKBaseAllocator@2@@fbxsdk_20102@@QAE@ABV?$KPair@HH@2@ABH@Z
   ??0KKeyValuePair@?$KMap@V?$KPair@HPBD@fbxsdk_20102@@HVKNameMapCompare@2@VKBaseAllocator@2@@fbxsdk_20102@@QAE@ABV?$KPair@HPBD@2@ABH@Z
   ??0KKeyValuePair@?$KMap@V?$KPair@VKString@fbxsdk_20102@@V12@@fbxsdk_20102@@IVKStringPairCompare@2@VKBaseAllocator@2@@fbxsdk_20102@@QAE@ABV?$KPair@VKString@fbxsdk_20102@@V12@@2@ABI@Z
   ??0KKeyValuePair@?$KMap@V?$KPair@VKString@fbxsdk_20102@@V12@@fbxsdk_20102@@IVKStringPairCompare@2@VKBaseAllocator@2@@fbxsdk_20102@@QAE@ABV012@@Z
   ??0KKeyValuePair@?$KMap@VkFbxClassId@fbxsdk_20102@@PAVKFbxObject@2@VkFbxClassIdCompare@ClassTemplateMap@?A0xa88da042@2@VKBaseAllocator@2@@fbxsdk_20102@@QAE@ABVkFbxClassId@2@ABQAVKFbxObject@2@@Z
   ??0KKeyValuePair@?$KMap@VkFbxClassId@fbxsdk_20102@@PAVKFbxObject@2@VkFbxClassIdCompare@Fbx6ClassTemplateMap@2@VKBaseAllocator@2@@fbxsdk_20102@@QAE@ABVkFbxClassId@2@ABQAVKFbxObject@2@@Z
   ??0KKeyValuePair@?$KMap@VKString@fbxsdk_20102@@HVKStringCompare@2@VKBaseAllocator@2@@fbxsdk_20102@@QAE@ABV012@@Z
   ??0KKeyValuePair@?$KMap@VKString@fbxsdk_20102@@HVKStringCompare@2@VKBaseAllocator@2@@fbxsdk_20102@@QAE@ABVKString@2@ABH@Z
   ??0KKeyValuePair@?$KMap@VKString@fbxsdk_20102@@PAVKFbxObject@2@VKFbxMapKStringCompare@2@VKBaseAllocator@2@@fbxsdk_20102@@QAE@ABV012@@Z
   ??0KKeyValuePair@?$KMap@VKString@fbxsdk_20102@@PAVKFbxObject@2@VKFbxMapKStringCompare@2@VKBaseAllocator@2@@fbxsdk_20102@@QAE@ABVKString@2@ABQAVKFbxObject@2@@Z
   ??0KKeyValuePair@?$KMap@VKString@fbxsdk_20102@@UKFbxEmbeddedFileInfo@KFbxEmbeddedFilesAccumulator@2@U?$KFbxLessCompare@VKString@fbxsdk_20102@@@2@VKBaseAllocator@2@@fbxsdk_20102@@QAE@ABV012@@Z
   ??0KKeyValuePair@?$KMap@VKString@fbxsdk_20102@@UKFbxEmbeddedFileInfo@KFbxEmbeddedFilesAccumulator@2@U?$KFbxLessCompare@VKString@fbxsdk_20102@@@2@VKBaseAllocator@2@@fbxsdk_20102@@QAE@ABVKString@2@ABUKFbxEmbeddedFileInfo@KFbxEmbeddedFilesAccumulator@2@@Z
   ??0KKeyValuePair@?$KMap@VKString@fbxsdk_20102@@V12@U?$KFbxLessCompare@VKString@fbxsdk_20102@@@2@VKBaseAllocator@2@@fbxsdk_20102@@QAE@ABV012@@Z
   ??0KKeyValuePair@?$KMap@VKString@fbxsdk_20102@@V12@U?$KFbxLessCompare@VKString@fbxsdk_20102@@@2@VKBaseAllocator@2@@fbxsdk_20102@@QAE@ABVKString@2@0@Z
   ??0KKeyValuePair@?$KMap@VKString@fbxsdk_20102@@VKFbxProperty@2@VKFbxStringCompare@KFbxUIBuilder@2@VKBaseAllocator@2@@fbxsdk_20102@@QAE@ABV012@@Z
   ??0KKeyValuePair@?$KMap@VKString@fbxsdk_20102@@VKFbxProperty@2@VKFbxStringCompare@KFbxUIBuilder@2@VKBaseAllocator@2@@fbxsdk_20102@@QAE@ABVKString@2@ABVKFbxProperty@2@@Z
   ??0KLayerInfo@fbxsdk_20102@@QAE@XZ
   ??0kLocalTime@fbxsdk_20102@@QAE@XZ
   ??0KMBLimit@fbxsdk_20102@@QAE@XZ
   ??0KMBRotationOrder@fbxsdk_20102@@QAE@H@Z
   ??0KMBRotationOrder@fbxsdk_20102@@QAE@XZ
   ??0KMBRotationSpace@fbxsdk_20102@@QAE@XZ
   ??0KMBTransform@fbxsdk_20102@@QAE@XZ
   ??0KMemoryAllocator@fbxsdk_20102@@QAE@PBD@Z
   ??0KMemoryFile@fbxsdk_20102@@QAE@XZ
   ??0KMemoryPool@fbxsdk_20102@@QAE@III_N@Z
   ??0KMemoryReusePool@fbxsdk_20102@@QAE@IHHI@Z
   ??0KMemoryUsageCounter@fbxsdk_20102@@QAE@XZ
   ??0KMergeLayerOptions@fbxsdk_20102@@QAE@XZ
   ??0KMpCounter@fbxsdk_20102@@QAE@_J0@Z
   ??0KMpLock@fbxsdk_20102@@QAE@_N@Z
   ??0KMpMutex@fbxsdk_20102@@QAE@_N@Z
   ??0KMpStack@fbxsdk_20102@@QAE@XZ
   ??0KMpThread@fbxsdk_20102@@QAE@P6AXPAX@Z0_N@Z
   ??0KMpThread@fbxsdk_20102@@QAE@P6AXPAX@Z0W4KMpPriority@@_K_N@Z
   ??0KMpThread@fbxsdk_20102@@QAE@XZ
   ??0KName@fbxsdk_20102@@QAE@ABV01@@Z
   ??0KName@fbxsdk_20102@@QAE@PBD@Z
   ??0KNumberRenamingStrategy@fbxsdk_20102@@QAE@XZ
   ??0KObjFace@fbxsdk_20102@@QAE@HPAVKFbxSurfaceMaterial@1@PAVKFbxTexture@1@@Z
   ??0KObjMaterial@fbxsdk_20102@@QAE@PBDPAVKFbxSurfaceMaterial@1@PAVKFbxTexture@1@@Z
   ??0KObjMesh@fbxsdk_20102@@QAE@XZ
   ??0KObjSurf@fbxsdk_20102@@QAE@W4ECurveType@01@_NHHPAVKFbxSurfaceMaterial@1@PAVKFbxTexture@1@@Z
   ??0KOScope@fbxsdk_20102@@QAE@AAVKViconLoaderBase@1@@Z
   ??0KReferencedCountSet@fbxsdk_20102@@QAE@H@Z
   ??0KReferenceDepth@?A0xce6eb6f4@fbxsdk_20102@@QAE@XZ
   ??0KRegistry@fbxsdk_20102@@QAE@XZ
   ??0KRegistryNT@fbxsdk_20102@@QAE@XZ
   ??0KRenamingStrategy@fbxsdk_20102@@QAE@XZ
   ??0KRenamingStrategy3DS@fbxsdk_20102@@QAE@XZ
   ??0KSet@fbxsdk_20102@@QAE@ABV01@@Z
   ??0KSet@fbxsdk_20102@@QAE@H@Z
   ??0KSmartPlotOptions@fbxsdk_20102@@QAE@XZ
   ??0KsoInfo@fbxsdk_20102@@QAE@XZ
   ??0KString@fbxsdk_20102@@QAE@ABV01@@Z
   ??0KString@fbxsdk_20102@@QAE@DI@Z
   ??0KString@fbxsdk_20102@@QAE@H@Z
   ??0KString@fbxsdk_20102@@QAE@M@Z
   ??0KString@fbxsdk_20102@@QAE@N@Z
   ??0KString@fbxsdk_20102@@QAE@PBD@Z
   ??0KString@fbxsdk_20102@@QAE@PBDI@Z
   ??0KString@fbxsdk_20102@@QAE@XZ
   ??0KStringList@fbxsdk_20102@@QAE@ABV01@@Z
   ??0KStringList@fbxsdk_20102@@QAE@XZ
   ??0KStringListItem@fbxsdk_20102@@QAE@PBDI@Z
   ??0KTextFile@fbxsdk_20102@@QAE@PBD00_N1@Z
   ??0KTime@fbxsdk_20102@@QAE@_J@Z
   ??0KTimeSpan@fbxsdk_20102@@QAE@VKTime@1@0@Z
   ??0KTimeSpan@fbxsdk_20102@@QAE@XZ
   ??0KTRSLimits@fbxsdk_20102@@QAE@XZ
   ??0KTypeDefinition@?A0xce6eb6f4@fbxsdk_20102@@QAE@XZ
   ??0KTypeDefinitionInfo@?A0xce6eb6f4@fbxsdk_20102@@QAE@XZ
   ??0KTypeObjectHierarchyInfo@fbxsdk_20102@@QAE@XZ
   ??0KTypeReadReferenceInfo@?A0xa88da042@fbxsdk_20102@@QAE@XZ
   ??0KTypeReadReferences@?A0xa88da042@fbxsdk_20102@@QAE@XZ
   ??0KTypeWriteReferenceInfo@?A0xce6eb6f4@fbxsdk_20102@@QAE@XZ
   ??0KTypeWriteReferenceInfo@fbxsdk_20102@@QAE@XZ
   ??0KTypeWriteReferences@?A0xce6eb6f4@fbxsdk_20102@@QAE@XZ
   ??0KValue@?$KSet2@PAVKFbxClassIdInfo@fbxsdk_20102@@U?$KFbxLessCompare@PAVKFbxClassIdInfo@fbxsdk_20102@@@2@VKBaseAllocator@2@@fbxsdk_20102@@QAE@ABQAVKFbxClassIdInfo@2@@Z
   ??0KValue@?$KSet2@PAVKFbxObject@fbxsdk_20102@@U?$KFbxLessCompare@PAVKFbxObject@fbxsdk_20102@@@2@VKBaseAllocator@2@@fbxsdk_20102@@QAE@ABQAVKFbxObject@2@@Z
   ??0KValue@?$KSet2@UKFbxPropertyUpdate@KFbxProcessorXRefCopy@fbxsdk_20102@@U?$KFbxLessCompare@UKFbxPropertyUpdate@KFbxProcessorXRefCopy@fbxsdk_20102@@@3@VKBaseAllocator@3@@fbxsdk_20102@@QAE@ABUKFbxPropertyUpdate@KFbxProcessorXRefCopy@2@@Z
   ??0KValue@?$KSet2@UKFbxPropertyUpdate@KFbxProcessorXRefCopy@fbxsdk_20102@@U?$KFbxLessCompare@UKFbxPropertyUpdate@KFbxProcessorXRefCopy@fbxsdk_20102@@@3@VKBaseAllocator@3@@fbxsdk_20102@@QAE@ABV012@@Z
   ??0KValue@?$KSet2@UKFbxPropertyUrlIndex@KFbxEmbeddedFilesAccumulator@fbxsdk_20102@@UKFbxPropertyUrlIndexCompare@23@VKBaseAllocator@3@@fbxsdk_20102@@QAE@ABUKFbxPropertyUrlIndex@KFbxEmbeddedFilesAccumulator@2@@Z
   ??0KValue@?$KSet2@UKFbxPropertyUrlIndex@KFbxEmbeddedFilesAccumulator@fbxsdk_20102@@UKFbxPropertyUrlIndexCompare@23@VKBaseAllocator@3@@fbxsdk_20102@@QAE@ABV012@@Z
   ??0KValue@?$KSet2@VkFbxClassId@fbxsdk_20102@@VkNewFbxClassIdCompare@2@VKBaseAllocator@2@@fbxsdk_20102@@QAE@ABVkFbxClassId@2@@Z
   ??0KValue@?$KSet2@VkFbxClassId@fbxsdk_20102@@VkNewFbxFileClassIdCompare@2@VKBaseAllocator@2@@fbxsdk_20102@@QAE@ABVkFbxClassId@2@@Z
   ??0KValue@?$KSet2@VKString@fbxsdk_20102@@U?$KFbxLessCompare@VKString@fbxsdk_20102@@@2@VKBaseAllocator@2@@fbxsdk_20102@@QAE@ABV012@@Z
   ??0KValue@?$KSet2@VKString@fbxsdk_20102@@U?$KFbxLessCompare@VKString@fbxsdk_20102@@@2@VKBaseAllocator@2@@fbxsdk_20102@@QAE@ABVKString@2@@Z
   ??0KViconArray@fbxsdk_20102@@AAE@HHPAHPAE@Z
   ??0KViconArray@fbxsdk_20102@@QAA@HHZZ
   ??0KViconArray@fbxsdk_20102@@QAA@PAXHHZZ
   ??0KViconArray@fbxsdk_20102@@QAE@AAVKIScope@1@@Z
   ??0KViconDataRecord@fbxsdk_20102@@QAE@XZ
   ??0KViconLoaderBase@fbxsdk_20102@@QAE@XZ
   ??0KViconParameter@fbxsdk_20102@@QAE@AAVKViconLoaderBase@1@CC@Z
   ??0KViconParameter@fbxsdk_20102@@QAE@PADHH0PAVKViconArray@1@@Z
   ??0KViconTag@fbxsdk_20102@@QAE@HG@Z
   ??0KXFESPParam@KBitSet@fbxsdk_20102@@QAE@P8KBitSegment@12@AE_NABVKXRange@12@AAV012@@ZP8312@BE_N01@ZP8312@AE_NABV312@01@ZAAV12@@Z
   ??0KXRange@KBitSet@fbxsdk_20102@@QAE@HH@Z
   ??0KXRefManagerProject@fbxsdk_20102@@QAE@XZ
   ??0LayerConfig@fbxsdk_20102@@QAE@XZ
   ??0LayerElementArrayImp@fbxsdk_20102@@QAE@I@Z
   ??0LayerElementArrayProxy@KFbxLayerElementMaterial@fbxsdk_20102@@QAE@W4EFbxType@2@@Z
   ??0LayerElementArrayProxyImp@fbxsdk_20102@@QAE@I@Z
   ??0LayerInfo@fbxsdk_20102@@QAE@XZ
   ??0LightAndGoboName@fbxsdk_20102@@QAE@PAVKFbxNode@1@VKString@1@@Z
   ??0ListImpl@aw@fbxsdk_20102@@AAE@XZ
   ??0ListImpl@aw@fbxsdk_20102@@QAE@PBUTypeUtil@012@@Z
   ??0ListItem@?$KHashMap@PAVKFbxLayeredTexture@fbxsdk_20102@@HVLayeredTextureHash@2@V?$NoOpDestruct@H@2@VLayeredTexPtrComparator@KFbxMaterialConverterImpl@2@@fbxsdk_20102@@QAE@XZ
   ??0ListItem@?$KHashMap@VkFbxClassId@fbxsdk_20102@@PAV?$KArrayTemplate@PAVKFbxPreviewGeneratorFactory@fbxsdk_20102@@@2@VClassIdHash@Impl@KFbxPreviewManager@2@V?$PtrDestruct@PAV?$KArrayTemplate@PAVKFbxPreviewGeneratorFactory@fbxsdk_20102@@@fbxsdk_20102@@@2@V?$DefaultComparator@VkFbxClassId@fbxsdk_20102@@@2@@fbxsdk_20102@@QAE@XZ
   ??0ListItem@?$KHashMap@VKString@fbxsdk_20102@@UDependency@KFbxProcessorShaderDependency@2@VKStringHash@42@V?$NoOpDestruct@UDependency@KFbxProcessorShaderDependency@fbxsdk_20102@@@2@V?$DefaultComparator@VKString@fbxsdk_20102@@@2@@fbxsdk_20102@@QAE@XZ
   ??0ListItem@?$KHashMap@VLayerConfig@fbxsdk_20102@@HVLayerConfigHash@2@V?$NoOpDestruct@H@2@V?$DefaultComparator@VLayerConfig@fbxsdk_20102@@@2@@fbxsdk_20102@@QAE@XZ
   ??0ListItem@?$KHashMap@VLayerConfig@fbxsdk_20102@@PAVKFbxSurfaceMaterial@2@VLayerConfigHash@2@V?$NoOpDestruct@PAVKFbxSurfaceMaterial@fbxsdk_20102@@@2@V?$DefaultComparator@VLayerConfig@fbxsdk_20102@@@2@@fbxsdk_20102@@QAE@XZ
   ??0Locale@awOS@fbxsdk_20102@@AAE@XZ
   ??0LocaleImpl@awOS@fbxsdk_20102@@QAE@XZ
   ??0LocalFileTransport@?A0x422ea402@fbxsdk_20102@@QAE@ABVCString@awString@2@@Z
   ??0LocalFileTransport@?A0x422ea402@fbxsdk_20102@@QAE@ABVIString@awString@2@@Z
   ??0LocalFileTransport@?A0x422ea402@fbxsdk_20102@@QAE@PBD@Z
   ??0LocalFileTransportFactory@awOS@fbxsdk_20102@@QAE@XZ
   ??0MemMapFile@awOS@fbxsdk_20102@@QAE@ABVCString@awString@2@IH@Z
   ??0MemMapFile@awOS@fbxsdk_20102@@QAE@ABVIString@awString@2@IH@Z
   ??0MemMapFile@awOS@fbxsdk_20102@@QAE@PBDIH@Z
   ??0MemoryBlock@KHungryAllocator@fbxsdk_20102@@QAE@I@Z
   ??0MemoryBlockPtrLess@?A0xefc851d3@fbxsdk_20102@@QAE@I@Z
   ??0ModifiedPropertyInfo@KFbxWriterFbx6@fbxsdk_20102@@QAE@XZ
   ??0Mutex@awThread@fbxsdk_20102@@QAE@XZ
   ??0MutexOp@awThread@fbxsdk_20102@@QAE@AAVMutex@12@_N@Z
   ??0MyInitializer@?A0x24d8c35a@fbxsdk_20102@@QAE@XZ
   ??0NameCell@KFbxRenamingStrategy@fbxsdk_20102@@QAE@PBD@Z
   ??0NameCell@KFbxRenamingStrategyBase@fbxsdk_20102@@QAE@PBD@Z
   ??0NameCell@KNumberRenamingStrategy@fbxsdk_20102@@QAE@PBD@Z
   ??0NameCell@KRenamingStrategy3DS@fbxsdk_20102@@QAE@PBD@Z
   ??0NameInfo@KFCurveNode@fbxsdk_20102@@QAE@XZ
   ??0NullPeripheral@fbxsdk_20102@@QAE@XZ
   ??0OperationRecord@KFbxProgressReporter@fbxsdk_20102@@QAE@ABW4Operation@12@NN@Z
   ??0option@impl@fbxsdk_20102@@QAE@PBD0@Z
   ??0Ordering@awUtil@fbxsdk_20102@@QAE@XZ
   ??0OStream@awOS@fbxsdk_20102@@QAE@AAVIOStream@12@@Z
   ??0OStreamImpl@?A0xa7eb5a75@fbxsdk_20102@@QAE@AAVIOStream@awOS@2@@Z
   ??0parse@impl@fbxsdk_20102@@QAE@PAV012@D@Z
   ??0Pool@awThread@fbxsdk_20102@@QAE@H@Z
   ??0PreviewEntry@Impl@KFbxPreviewManager@fbxsdk_20102@@QAE@XZ
   ??0ProcessManager@awOS@fbxsdk_20102@@IAE@XZ
   ??0ProcessManagerImpl@awOS@fbxsdk_20102@@QAE@XZ
   ??0ProcessManagerWin32Impl@?A0xd873cef0@fbxsdk_20102@@QAE@XZ
   ??0Progress@awUtil@fbxsdk_20102@@QAE@XZ
   ??0ProgressImpl@?A0x88b70b57@fbxsdk_20102@@QAE@XZ
   ??0PropertyAssociation@fbxsdk_20102@@QAE@PAVKFbxObject@1@PADH@Z
   ??0PropertyAssociation@fbxsdk_20102@@QAE@XZ
   ??0PropertyConverter_DivideBy100@?A0x7e486995@fbxsdk_20102@@QAE@XZ
   ??0PropInfo@fbxsdk_20102@@QAE@XZ
   ??0ProtectedWrite@awOS@fbxsdk_20102@@QAE@ABVFilename@12@@Z
   ??0Range@RBTreeImpl@aw@fbxsdk_20102@@QAE@PAVNode@123@0@Z
   ??0RBTreeImpl@aw@fbxsdk_20102@@IAE@PBUTypeUtil@012@@Z
   ??0ReaderPluginEntry@KFbxIOPluginRegistry@fbxsdk_20102@@QAE@PBD0P6APAVKFbxReader@2@AAVKFbxSdkManager@2@AAVKFbxImporter@2@HH@ZHP6AXAAVKFbxIOSettings@2@@Z@Z
   ??0ReferenceCount@aw@fbxsdk_20102@@IAE@XZ
   ??0ReferenceCount@aw@fbxsdk_20102@@QAE@ABV012@@Z
   ??0result@impl@fbxsdk_20102@@QAE@XZ
   ??0RWLock@awThread@fbxsdk_20102@@QAE@XZ
   ??0SearchPath@awOS@fbxsdk_20102@@QAE@ABV012@@Z
   ??0SearchPath@awOS@fbxsdk_20102@@QAE@XZ
   ??0Semaphore@awThread@fbxsdk_20102@@QAE@I@Z
   ??0ShapeInfo@fbxsdk_20102@@QAE@XZ
   ??0SignalBase@awRTB@fbxsdk_20102@@IAE@XZ
   ??0SignalClient@awRTB@fbxsdk_20102@@QAE@XZ
   ??0SignalVoid@awRTB@fbxsdk_20102@@QAE@XZ
   ??0SimpleThreadPool@?A0x24e5c433@fbxsdk_20102@@QAE@XZ
   ??0StopWatch@awOS@fbxsdk_20102@@QAE@XZ
   ??0StopWatchInit@?A0x7cd1ce4a@fbxsdk_20102@@QAE@XZ
   ??0String@awString@fbxsdk_20102@@QAE@XZ
   ??0SysInfo@awOS@fbxsdk_20102@@AAE@XZ
   ??0TempFilePeripheral@fbxsdk_20102@@QAE@XZ
   ??0Thread@awThread@fbxsdk_20102@@QAE@P6AXPAX@Z0@Z
   ??0Thread@awThread@fbxsdk_20102@@QAE@XZ
   ??0ThreadData@?A0xad0c17e3@fbxsdk_20102@@QAE@P6AXPAX@Z0PAVSignalVoid@awRTB@2@@Z
   ??0ThreadedAlg@awUtil@fbxsdk_20102@@QAE@XZ
   ??0ThreadImpl@?A0xad0c17e3@fbxsdk_20102@@QAE@P6AXPAX@Z0@Z
   ??0ThreadImpl@?A0xad0c17e3@fbxsdk_20102@@QAE@XZ
   ??0ThreadPool@awUtil@fbxsdk_20102@@QAE@H@Z
   ??0ThreadPoolImpl@?A0xfd60b238@fbxsdk_20102@@QAE@H@Z
   ??0TransformInfo@fbxsdk_20102@@QAE@VKString@1@H@Z
   ??0TranslationContext@?A0x97f478f8@fbxsdk_20102@@QAE@XZ
   ??0TypedTexture@fbxsdk_20102@@QAE@PAVKFbxTexture@1@W4ELayerElementType@KFbxLayerElement@1@@Z
   ??0UnzipFile@fbxsdk_20102@@QAE@PAX@Z
   ??0UnzipOpenCurrentFile@fbxsdk_20102@@QAE@PAX@Z
   ??0URL@awOS@fbxsdk_20102@@QAE@ABVCString@awString@2@@Z
   ??0UserDataRecord@fbxsdk_20102@@QAE@ABIPAX@Z
   ??0Uuid@awOS@fbxsdk_20102@@QAE@ABVCString@awString@2@@Z
   ??0Uuid@awOS@fbxsdk_20102@@QAE@QBI@Z
   ??0Uuid@awOS@fbxsdk_20102@@QAE@XZ
   ??0VectorImpl@aw@fbxsdk_20102@@IAE@ABV012@@Z
   ??0VectorImpl@aw@fbxsdk_20102@@IAE@HP6IXPAXH@ZPBUTypeUtil@012@@Z
   ??0VectorImpl@aw@fbxsdk_20102@@IAE@PBUTypeUtil@012@@Z
   ??0WriterPluginEntry@KFbxIOPluginRegistry@fbxsdk_20102@@QAE@PBD0PBQBDP6APAVKFbxWriter@2@AAVKFbxSdkManager@2@AAVKFbxExporter@2@HH@ZHP6AXAAVKFbxIOSettings@2@@Z@Z
   ??0XMLSettings@fbxsdk_20102@@QAE@PAVKFbxSdkManager@1@@Z
   ??1?$fbxVectorTemplate2@N@fbxsdk_20102@@QAE@XZ
   ??1?$fbxVectorTemplate3@N@fbxsdk_20102@@QAE@XZ
   ??1?$fbxVectorTemplate4@N@fbxsdk_20102@@QAE@XZ
   ??1?$fbxVectorTemplate4@V?$fbxVectorTemplate4@N@fbxsdk_20102@@@fbxsdk_20102@@QAE@XZ
   ??1?$FunctionArg@PAVSignalClient@awRTB@fbxsdk_20102@@@awRTB@fbxsdk_20102@@UAE@XZ
   ??1?$FunctionArgMember@PAVSignalClient@awRTB@fbxsdk_20102@@VSignalBase@23@@awRTB@fbxsdk_20102@@UAE@XZ
   ??1?$FunctionVoidMember@VThreadPoolImpl@?A0xfd60b238@fbxsdk_20102@@@awRTB@fbxsdk_20102@@UAE@XZ
   ??1?$KArrayTemplate@_N@fbxsdk_20102@@QAE@XZ
   ??1?$KArrayTemplate@D@fbxsdk_20102@@QAE@XZ
   ??1?$KArrayTemplate@H@fbxsdk_20102@@QAE@XZ
   ??1?$KArrayTemplate@I@fbxsdk_20102@@QAE@XZ
   ??1?$KArrayTemplate@M@fbxsdk_20102@@QAE@XZ
   ??1?$KArrayTemplate@N@fbxsdk_20102@@QAE@XZ
   ??1?$KArrayTemplate@PA_W@fbxsdk_20102@@QAE@XZ
   ??1?$KArrayTemplate@PAD@fbxsdk_20102@@QAE@XZ
   ??1?$KArrayTemplate@PAH@fbxsdk_20102@@QAE@XZ
   ??1?$KArrayTemplate@PAI@fbxsdk_20102@@QAE@XZ
   ??1?$KArrayTemplate@PAM@fbxsdk_20102@@QAE@XZ
   ??1?$KArrayTemplate@PAN@fbxsdk_20102@@QAE@XZ
   ??1?$KArrayTemplate@PAU_iobuf@@@fbxsdk_20102@@QAE@XZ
   ??1?$KArrayTemplate@PAU_xmlNode@fbxsdk_20102@@@fbxsdk_20102@@QAE@XZ
   ??1?$KArrayTemplate@PAUcamera3ds@fbxsdk_20102@@@fbxsdk_20102@@QAE@XZ
   ??1?$KArrayTemplate@PAUFbx6TypeReadReferenceInfo@fbxsdk_20102@@@fbxsdk_20102@@QAE@XZ
   ??1?$KArrayTemplate@PAUKFbxPoseInfo@fbxsdk_20102@@@fbxsdk_20102@@QAE@XZ
   ??1?$KArrayTemplate@PAUKFbxTimeMarker@KFbxGlobalTimeSettings@fbxsdk_20102@@@fbxsdk_20102@@QAE@XZ
   ??1?$KArrayTemplate@PAUkfcamera3ds@fbxsdk_20102@@@fbxsdk_20102@@QAE@XZ
   ??1?$KArrayTemplate@PAUkfmesh3ds@fbxsdk_20102@@@fbxsdk_20102@@QAE@XZ
   ??1?$KArrayTemplate@PAUkfomni3ds@fbxsdk_20102@@@fbxsdk_20102@@QAE@XZ
   ??1?$KArrayTemplate@PAUkfspot3ds@fbxsdk_20102@@@fbxsdk_20102@@QAE@XZ
   ??1?$KArrayTemplate@PAUKLayerInfo@fbxsdk_20102@@@fbxsdk_20102@@QAE@XZ
   ??1?$KArrayTemplate@PAUKTypeObjectHierarchyInfo@fbxsdk_20102@@@fbxsdk_20102@@QAE@XZ
   ??1?$KArrayTemplate@PAUKTypeReadReferenceInfo@?A0xa88da042@fbxsdk_20102@@@fbxsdk_20102@@QAE@XZ
   ??1?$KArrayTemplate@PAUKTypeWriteReferenceInfo@?A0xce6eb6f4@fbxsdk_20102@@@fbxsdk_20102@@QAE@XZ
   ??1?$KArrayTemplate@PAUKTypeWriteReferenceInfo@fbxsdk_20102@@@fbxsdk_20102@@QAE@XZ
   ??1?$KArrayTemplate@PAUlight3ds@fbxsdk_20102@@@fbxsdk_20102@@QAE@XZ
   ??1?$KArrayTemplate@PAUmaterial3ds@fbxsdk_20102@@@fbxsdk_20102@@QAE@XZ
   ??1?$KArrayTemplate@PAUMaterialTexture@KFbxReaderCollada@fbxsdk_20102@@@fbxsdk_20102@@QAE@XZ
   ??1?$KArrayTemplate@PAUmesh3ds@fbxsdk_20102@@@fbxsdk_20102@@QAE@XZ
   ??1?$KArrayTemplate@PAUModifiedPropertyInfo@KFbxWriterFbx6@fbxsdk_20102@@@fbxsdk_20102@@QAE@XZ
   ??1?$KArrayTemplate@PAUMultiTex@KFbxReader3DS@fbxsdk_20102@@@fbxsdk_20102@@QAE@XZ
   ??1?$KArrayTemplate@PAUNameCell@KFbxRenamingStrategy@fbxsdk_20102@@@fbxsdk_20102@@QAE@XZ
   ??1?$KArrayTemplate@PAUNameCell@KNumberRenamingStrategy@fbxsdk_20102@@@fbxsdk_20102@@QAE@XZ
   ??1?$KArrayTemplate@PAUNameCell@KRenamingStrategy3DS@fbxsdk_20102@@@fbxsdk_20102@@QAE@XZ
   ??1?$KArrayTemplate@PAUReaderPluginEntry@KFbxIOPluginRegistry@fbxsdk_20102@@@fbxsdk_20102@@QAE@XZ
   ??1?$KArrayTemplate@PAUWriterPluginEntry@KFbxIOPluginRegistry@fbxsdk_20102@@@fbxsdk_20102@@QAE@XZ
   ??1?$KArrayTemplate@PAV?$KArrayTemplate@H@fbxsdk_20102@@@fbxsdk_20102@@QAE@XZ
   ??1?$KArrayTemplate@PAV?$KArrayTemplate@UKElement@KFbxWeightedMapping@fbxsdk_20102@@@fbxsdk_20102@@@fbxsdk_20102@@QAE@XZ
   ??1?$KArrayTemplate@PAV?$KArrayTemplate@VKDuplicateVertex@KFbxMesh@fbxsdk_20102@@@fbxsdk_20102@@@fbxsdk_20102@@QAE@XZ
   ??1?$KArrayTemplate@PAV?$KMap@HHU?$KFbxLessCompare@H@fbxsdk_20102@@VKBaseAllocator@2@@fbxsdk_20102@@@fbxsdk_20102@@QAE@XZ
   ??1?$KArrayTemplate@PAVAccumulatorEntry@fbxsdk_20102@@@fbxsdk_20102@@QAE@XZ
   ??1?$KArrayTemplate@PAVAESequence@KFbxUserNotification@fbxsdk_20102@@@fbxsdk_20102@@QAE@XZ
   ??1?$KArrayTemplate@PAVFbx5ObjectTypeInfo@fbxsdk_20102@@@fbxsdk_20102@@QAE@XZ
   ??1?$KArrayTemplate@PAVFbx6ObjectTypeInfo@fbxsdk_20102@@@fbxsdk_20102@@QAE@XZ
   ??1?$KArrayTemplate@PAVFbx6TypeDefinitionInfo@fbxsdk_20102@@@fbxsdk_20102@@QAE@XZ
   ??1?$KArrayTemplate@PAVKBVHJoint@fbxsdk_20102@@@fbxsdk_20102@@QAE@XZ
   ??1?$KArrayTemplate@PAVKFbxAsfNode@fbxsdk_20102@@@fbxsdk_20102@@QAE@XZ
   ??1?$KArrayTemplate@PAVKFbxCamera@fbxsdk_20102@@@fbxsdk_20102@@QAE@XZ
   ??1?$KArrayTemplate@PAVKFbxCluster@fbxsdk_20102@@@fbxsdk_20102@@QAE@XZ
   ??1?$KArrayTemplate@PAVKFbxConnectionPoint@fbxsdk_20102@@@fbxsdk_20102@@QAE@XZ
   ??1?$KArrayTemplate@PAVKFbxDefaultTakeCallback@fbxsdk_20102@@@fbxsdk_20102@@QAE@XZ
   ??1?$KArrayTemplate@PAVKFbxDependency@fbxsdk_20102@@@fbxsdk_20102@@QAE@XZ
   ??1?$KArrayTemplate@PAVKFbxDocument@fbxsdk_20102@@@fbxsdk_20102@@QAE@XZ
   ??1?$KArrayTemplate@PAVKFbxFieldInstance@fbxsdk_20102@@@fbxsdk_20102@@QAE@XZ
   ??1?$KArrayTemplate@PAVKFbxGenericNode@fbxsdk_20102@@@fbxsdk_20102@@QAE@XZ
   ??1?$KArrayTemplate@PAVKFbxGobo@fbxsdk_20102@@@fbxsdk_20102@@QAE@XZ
   ??1?$KArrayTemplate@PAVKFbxHtrSegment@fbxsdk_20102@@@fbxsdk_20102@@QAE@XZ
   ??1?$KArrayTemplate@PAVKFbxImageConverter@fbxsdk_20102@@@fbxsdk_20102@@QAE@XZ
   ??1?$KArrayTemplate@PAVKFbxLayer@fbxsdk_20102@@@fbxsdk_20102@@QAE@XZ
   ??1?$KArrayTemplate@PAVKFbxLayeredTexture@fbxsdk_20102@@@fbxsdk_20102@@QAE@XZ
   ??1?$KArrayTemplate@PAVKFbxLayerElement@fbxsdk_20102@@@fbxsdk_20102@@QAE@XZ
   ??1?$KArrayTemplate@PAVKFbxLight@fbxsdk_20102@@@fbxsdk_20102@@QAE@XZ
   ??1?$KArrayTemplate@PAVKFbxLoadingStrategy@fbxsdk_20102@@@fbxsdk_20102@@QAE@XZ
   ??1?$KArrayTemplate@PAVKFbxLocalizationManager@fbxsdk_20102@@@fbxsdk_20102@@QAE@XZ
   ??1?$KArrayTemplate@PAVKFbxMarker@fbxsdk_20102@@@fbxsdk_20102@@QAE@XZ
   ??1?$KArrayTemplate@PAVKFbxMesh@fbxsdk_20102@@@fbxsdk_20102@@QAE@XZ
   ??1?$KArrayTemplate@PAVKFbxMessageListener@fbxsdk_20102@@@fbxsdk_20102@@QAE@XZ
   ??1?$KArrayTemplate@PAVKFbxNode@fbxsdk_20102@@@fbxsdk_20102@@QAE@XZ
   ??1?$KArrayTemplate@PAVKFbxObject@fbxsdk_20102@@@fbxsdk_20102@@QAE@XZ
   ??1?$KArrayTemplate@PAVKFbxOffloadRecord@fbxsdk_20102@@@fbxsdk_20102@@QAE@XZ
   ??1?$KArrayTemplate@PAVKFbxPlugin@fbxsdk_20102@@@fbxsdk_20102@@QAE@XZ
   ??1?$KArrayTemplate@PAVKFbxPose@fbxsdk_20102@@@fbxsdk_20102@@QAE@XZ
   ??1?$KArrayTemplate@PAVKFbxPreviewGeneratorFactory@fbxsdk_20102@@@fbxsdk_20102@@QAE@XZ
   ??1?$KArrayTemplate@PAVKFbxProductInfo@fbxsdk_20102@@@fbxsdk_20102@@QAE@XZ
   ??1?$KArrayTemplate@PAVKFbxPropertyPage@fbxsdk_20102@@@fbxsdk_20102@@QAE@XZ
   ??1?$KArrayTemplate@PAVKFbxScene@fbxsdk_20102@@@fbxsdk_20102@@QAE@XZ
   ??1?$KArrayTemplate@PAVKFbxSelectionNode@fbxsdk_20102@@@fbxsdk_20102@@QAE@XZ
   ??1?$KArrayTemplate@PAVKFbxShape@fbxsdk_20102@@@fbxsdk_20102@@QAE@XZ
   ??1?$KArrayTemplate@PAVKFbxSurfaceMaterial@fbxsdk_20102@@@fbxsdk_20102@@QAE@XZ
   ??1?$KArrayTemplate@PAVKFbxTakeInfo@fbxsdk_20102@@@fbxsdk_20102@@QAE@XZ
   ??1?$KArrayTemplate@PAVKFbxTakeNode@fbxsdk_20102@@@fbxsdk_20102@@QAE@XZ
   ??1?$KArrayTemplate@PAVKFbxTexture@fbxsdk_20102@@@fbxsdk_20102@@QAE@XZ
   ??1?$KArrayTemplate@PAVKFbxUIInstance@fbxsdk_20102@@@fbxsdk_20102@@QAE@XZ
   ??1?$KArrayTemplate@PAVKFbxUINode@fbxsdk_20102@@@fbxsdk_20102@@QAE@XZ
   ??1?$KArrayTemplate@PAVKFbxUserParamEntry@fbxsdk_20102@@@fbxsdk_20102@@QAE@XZ
   ??1?$KArrayTemplate@PAVKFbxVector4@fbxsdk_20102@@@fbxsdk_20102@@QAE@XZ
   ??1?$KArrayTemplate@PAVKFbxVideo@fbxsdk_20102@@@fbxsdk_20102@@QAE@XZ
   ??1?$KArrayTemplate@PAVKFbxWeightInfo@fbxsdk_20102@@@fbxsdk_20102@@QAE@XZ
   ??1?$KArrayTemplate@PAVKFCurve@fbxsdk_20102@@@fbxsdk_20102@@QAE@XZ
   ??1?$KArrayTemplate@PAVKFCurveNode@fbxsdk_20102@@@fbxsdk_20102@@QAE@XZ
   ??1?$KArrayTemplate@PAVKObjFace@fbxsdk_20102@@@fbxsdk_20102@@QAE@XZ
   ??1?$KArrayTemplate@PAVKObjMaterial@fbxsdk_20102@@@fbxsdk_20102@@QAE@XZ
   ??1?$KArrayTemplate@PAVKString@fbxsdk_20102@@@fbxsdk_20102@@QAE@XZ
   ??1?$KArrayTemplate@PAVKStringListItem@fbxsdk_20102@@@fbxsdk_20102@@QAE@XZ
   ??1?$KArrayTemplate@PAVKTypeDefinitionInfo@?A0xce6eb6f4@fbxsdk_20102@@@fbxsdk_20102@@QAE@XZ
   ??1?$KArrayTemplate@PAVKXRefManagerProject@fbxsdk_20102@@@fbxsdk_20102@@QAE@XZ
   ??1?$KArrayTemplate@PAVLayerInfo@fbxsdk_20102@@@fbxsdk_20102@@QAE@XZ
   ??1?$KArrayTemplate@PAVLightAndGoboName@fbxsdk_20102@@@fbxsdk_20102@@QAE@XZ
   ??1?$KArrayTemplate@PAVListItem@?$KHashMap@PAVKFbxLayeredTexture@fbxsdk_20102@@HVLayeredTextureHash@2@V?$NoOpDestruct@H@2@VLayeredTexPtrComparator@KFbxMaterialConverterImpl@2@@fbxsdk_20102@@@fbxsdk_20102@@QAE@XZ
   ??1?$KArrayTemplate@PAVListItem@?$KHashMap@VkFbxClassId@fbxsdk_20102@@PAV?$KArrayTemplate@PAVKFbxPreviewGeneratorFactory@fbxsdk_20102@@@2@VClassIdHash@Impl@KFbxPreviewManager@2@V?$PtrDestruct@PAV?$KArrayTemplate@PAVKFbxPreviewGeneratorFactory@fbxsdk_20102@@@fbxsdk_20102@@@2@V?$DefaultComparator@VkFbxClassId@fbxsdk_20102@@@2@@fbxsdk_20102@@@fbxsdk_20102@@QAE@XZ
   ??1?$KArrayTemplate@PAVListItem@?$KHashMap@VKString@fbxsdk_20102@@UDependency@KFbxProcessorShaderDependency@2@VKStringHash@42@V?$NoOpDestruct@UDependency@KFbxProcessorShaderDependency@fbxsdk_20102@@@2@V?$DefaultComparator@VKString@fbxsdk_20102@@@2@@fbxsdk_20102@@@fbxsdk_20102@@QAE@XZ
   ??1?$KArrayTemplate@PAVListItem@?$KHashMap@VLayerConfig@fbxsdk_20102@@HVLayerConfigHash@2@V?$NoOpDestruct@H@2@V?$DefaultComparator@VLayerConfig@fbxsdk_20102@@@2@@fbxsdk_20102@@@fbxsdk_20102@@QAE@XZ
   ??1?$KArrayTemplate@PAVListItem@?$KHashMap@VLayerConfig@fbxsdk_20102@@PAVKFbxSurfaceMaterial@2@VLayerConfigHash@2@V?$NoOpDestruct@PAVKFbxSurfaceMaterial@fbxsdk_20102@@@2@V?$DefaultComparator@VLayerConfig@fbxsdk_20102@@@2@@fbxsdk_20102@@@fbxsdk_20102@@QAE@XZ
   ??1?$KArrayTemplate@PAVPropertyAssociation@fbxsdk_20102@@@fbxsdk_20102@@QAE@XZ
   ??1?$KArrayTemplate@PAX@fbxsdk_20102@@QAE@XZ
   ??1?$KArrayTemplate@PBD@fbxsdk_20102@@QAE@XZ
   ??1?$KArrayTemplate@PBVKFbxLayerElementUV@fbxsdk_20102@@@fbxsdk_20102@@QAE@XZ
   ??1?$KArrayTemplate@PBVKFbxPlugin@fbxsdk_20102@@@fbxsdk_20102@@QAE@XZ
   ??1?$KArrayTemplate@U?$KTypeObjectReferenceDepth@VKFbxImplementation@fbxsdk_20102@@@fbxsdk_20102@@@fbxsdk_20102@@QAE@XZ
   ??1?$KArrayTemplate@U?$KTypeObjectReferenceDepth@VKFbxSurfaceMaterial@fbxsdk_20102@@@fbxsdk_20102@@@fbxsdk_20102@@QAE@XZ
   ??1?$KArrayTemplate@U?$KTypeObjectReferenceDepth@VKFbxTexture@fbxsdk_20102@@@fbxsdk_20102@@@fbxsdk_20102@@QAE@XZ
   ??1?$KArrayTemplate@U?$KTypeObjectReferenceDepth@VKFbxThumbnail@fbxsdk_20102@@@fbxsdk_20102@@@fbxsdk_20102@@QAE@XZ
   ??1?$KArrayTemplate@U?$KTypeObjectReferenceDepth@VKFbxVideo@fbxsdk_20102@@@fbxsdk_20102@@@fbxsdk_20102@@QAE@XZ
   ??1?$KArrayTemplate@UInputData@KFbxLayeredTexture@fbxsdk_20102@@@fbxsdk_20102@@QAE@XZ
   ??1?$KArrayTemplate@UKElement@KFbxWeightedMapping@fbxsdk_20102@@@fbxsdk_20102@@QAE@XZ
   ??1?$KArrayTemplate@UKFbxPolygon@KFbxMesh@fbxsdk_20102@@@fbxsdk_20102@@QAE@XZ
   ??1?$KArrayTemplate@UKFbxShadowPlane@KFbxGlobalLightSettings@fbxsdk_20102@@@fbxsdk_20102@@QAE@XZ
   ??1?$KArrayTemplate@UKFbxSplitEdgeData@KFbxMesh@fbxsdk_20102@@@fbxsdk_20102@@QAE@XZ
   ??1?$KArrayTemplate@UNewOld@KFbxReader3DS@fbxsdk_20102@@@fbxsdk_20102@@QAE@XZ
   ??1?$KArrayTemplate@UPreviewEntry@Impl@KFbxPreviewManager@fbxsdk_20102@@@fbxsdk_20102@@QAE@XZ
   ??1?$KArrayTemplate@V?$KPair@HH@fbxsdk_20102@@@fbxsdk_20102@@QAE@XZ
   ??1?$KArrayTemplate@V?$KPair@PAVKFbxLayerElementUV@fbxsdk_20102@@_N@fbxsdk_20102@@@fbxsdk_20102@@QAE@XZ
   ??1?$KArrayTemplate@V?$KPair@PAVKFbxTexture@fbxsdk_20102@@W4EBlendMode@KFbxLayerElementTexture@2@@fbxsdk_20102@@@fbxsdk_20102@@QAE@XZ
   ??1?$KArrayTemplate@VKConnection@KConnectionList@KFbxConnectionPoint@fbxsdk_20102@@@fbxsdk_20102@@QAE@XZ
   ??1?$KArrayTemplate@VKDuplicateVertex@KFbxMesh@fbxsdk_20102@@@fbxsdk_20102@@QAE@XZ
   ??1?$KArrayTemplate@VKFbxColor@fbxsdk_20102@@@fbxsdk_20102@@QAE@XZ
   ??1?$KArrayTemplate@VKFbxDataType@fbxsdk_20102@@@fbxsdk_20102@@QAE@XZ
   ??1?$KArrayTemplate@VKFbxLinkToCharacter@KFbxNode_internal@fbxsdk_20102@@@fbxsdk_20102@@QAE@XZ
   ??1?$KArrayTemplate@VKFbxMatrix@fbxsdk_20102@@@fbxsdk_20102@@QAE@XZ
   ??1?$KArrayTemplate@VKFbxProperty@fbxsdk_20102@@@fbxsdk_20102@@QAE@XZ
   ??1?$KArrayTemplate@VKFbxVector2@fbxsdk_20102@@@fbxsdk_20102@@QAE@XZ
   ??1?$KArrayTemplate@VKFbxVector4@fbxsdk_20102@@@fbxsdk_20102@@QAE@XZ
   ??1?$KArrayTemplate@VKFbxXMatrix@fbxsdk_20102@@@fbxsdk_20102@@QAE@XZ
   ??1?$KArrayTemplate@VKString@fbxsdk_20102@@@fbxsdk_20102@@QAE@XZ
   ??1?$KArrayTemplate@VKVertexNormalInfo@KFbxMesh@fbxsdk_20102@@@fbxsdk_20102@@QAE@XZ
   ??1?$KArrayTemplate@VLayerConfig@fbxsdk_20102@@@fbxsdk_20102@@QAE@XZ
   ??1?$KArrayTemplate@W4EAttributeType@KFbxNodeAttribute@fbxsdk_20102@@@fbxsdk_20102@@QAE@XZ
   ??1?$KArrayTemplate@W4ECharacterInputType@fbxsdk_20102@@@fbxsdk_20102@@QAE@XZ
   ??1?$KArrayTemplate@W4ELayerElementType@KFbxLayerElement@fbxsdk_20102@@@fbxsdk_20102@@QAE@XZ
   ??1?$KBaseArray@V?$KBaseArraySizeType@_N@fbxsdk_20102@@@fbxsdk_20102@@IAE@XZ
   ??1?$KBaseArray@V?$KBaseArraySizeType@D@fbxsdk_20102@@@fbxsdk_20102@@IAE@XZ
   ??1?$KBaseArray@V?$KBaseArraySizeType@H@fbxsdk_20102@@@fbxsdk_20102@@IAE@XZ
   ??1?$KBaseArray@V?$KBaseArraySizeType@I@fbxsdk_20102@@@fbxsdk_20102@@IAE@XZ
   ??1?$KBaseArray@V?$KBaseArraySizeType@M@fbxsdk_20102@@@fbxsdk_20102@@IAE@XZ
   ??1?$KBaseArray@V?$KBaseArraySizeType@N@fbxsdk_20102@@@fbxsdk_20102@@IAE@XZ
   ??1?$KBaseArray@V?$KBaseArraySizeType@PA_W@fbxsdk_20102@@@fbxsdk_20102@@IAE@XZ
   ??1?$KBaseArray@V?$KBaseArraySizeType@PAD@fbxsdk_20102@@@fbxsdk_20102@@IAE@XZ
   ??1?$KBaseArray@V?$KBaseArraySizeType@PAH@fbxsdk_20102@@@fbxsdk_20102@@IAE@XZ
   ??1?$KBaseArray@V?$KBaseArraySizeType@PAI@fbxsdk_20102@@@fbxsdk_20102@@IAE@XZ
   ??1?$KBaseArray@V?$KBaseArraySizeType@PAM@fbxsdk_20102@@@fbxsdk_20102@@IAE@XZ
   ??1?$KBaseArray@V?$KBaseArraySizeType@PAN@fbxsdk_20102@@@fbxsdk_20102@@IAE@XZ
   ??1?$KBaseArray@V?$KBaseArraySizeType@PAU_iobuf@@@fbxsdk_20102@@@fbxsdk_20102@@IAE@XZ
   ??1?$KBaseArray@V?$KBaseArraySizeType@PAU_xmlNode@fbxsdk_20102@@@fbxsdk_20102@@@fbxsdk_20102@@IAE@XZ
   ??1?$KBaseArray@V?$KBaseArraySizeType@PAUcamera3ds@fbxsdk_20102@@@fbxsdk_20102@@@fbxsdk_20102@@IAE@XZ
   ??1?$KBaseArray@V?$KBaseArraySizeType@PAUFbx6TypeReadReferenceInfo@fbxsdk_20102@@@fbxsdk_20102@@@fbxsdk_20102@@IAE@XZ
   ??1?$KBaseArray@V?$KBaseArraySizeType@PAUKFbxPoseInfo@fbxsdk_20102@@@fbxsdk_20102@@@fbxsdk_20102@@IAE@XZ
   ??1?$KBaseArray@V?$KBaseArraySizeType@PAUKFbxTimeMarker@KFbxGlobalTimeSettings@fbxsdk_20102@@@fbxsdk_20102@@@fbxsdk_20102@@IAE@XZ
   ??1?$KBaseArray@V?$KBaseArraySizeType@PAUkfcamera3ds@fbxsdk_20102@@@fbxsdk_20102@@@fbxsdk_20102@@IAE@XZ
   ??1?$KBaseArray@V?$KBaseArraySizeType@PAUkfmesh3ds@fbxsdk_20102@@@fbxsdk_20102@@@fbxsdk_20102@@IAE@XZ
   ??1?$KBaseArray@V?$KBaseArraySizeType@PAUkfomni3ds@fbxsdk_20102@@@fbxsdk_20102@@@fbxsdk_20102@@IAE@XZ
   ??1?$KBaseArray@V?$KBaseArraySizeType@PAUkfspot3ds@fbxsdk_20102@@@fbxsdk_20102@@@fbxsdk_20102@@IAE@XZ
   ??1?$KBaseArray@V?$KBaseArraySizeType@PAUKLayerInfo@fbxsdk_20102@@@fbxsdk_20102@@@fbxsdk_20102@@IAE@XZ
   ??1?$KBaseArray@V?$KBaseArraySizeType@PAUKTypeObjectHierarchyInfo@fbxsdk_20102@@@fbxsdk_20102@@@fbxsdk_20102@@IAE@XZ
   ??1?$KBaseArray@V?$KBaseArraySizeType@PAUKTypeReadReferenceInfo@?A0xa88da042@fbxsdk_20102@@@fbxsdk_20102@@@fbxsdk_20102@@IAE@XZ
   ??1?$KBaseArray@V?$KBaseArraySizeType@PAUKTypeWriteReferenceInfo@?A0xce6eb6f4@fbxsdk_20102@@@fbxsdk_20102@@@fbxsdk_20102@@IAE@XZ
   ??1?$KBaseArray@V?$KBaseArraySizeType@PAUKTypeWriteReferenceInfo@fbxsdk_20102@@@fbxsdk_20102@@@fbxsdk_20102@@IAE@XZ
   ??1?$KBaseArray@V?$KBaseArraySizeType@PAUlight3ds@fbxsdk_20102@@@fbxsdk_20102@@@fbxsdk_20102@@IAE@XZ
   ??1?$KBaseArray@V?$KBaseArraySizeType@PAUmaterial3ds@fbxsdk_20102@@@fbxsdk_20102@@@fbxsdk_20102@@IAE@XZ
   ??1?$KBaseArray@V?$KBaseArraySizeType@PAUMaterialTexture@KFbxReaderCollada@fbxsdk_20102@@@fbxsdk_20102@@@fbxsdk_20102@@IAE@XZ
   ??1?$KBaseArray@V?$KBaseArraySizeType@PAUmesh3ds@fbxsdk_20102@@@fbxsdk_20102@@@fbxsdk_20102@@IAE@XZ
   ??1?$KBaseArray@V?$KBaseArraySizeType@PAUModifiedPropertyInfo@KFbxWriterFbx6@fbxsdk_20102@@@fbxsdk_20102@@@fbxsdk_20102@@IAE@XZ
   ??1?$KBaseArray@V?$KBaseArraySizeType@PAUMultiTex@KFbxReader3DS@fbxsdk_20102@@@fbxsdk_20102@@@fbxsdk_20102@@IAE@XZ
   ??1?$KBaseArray@V?$KBaseArraySizeType@PAUNameCell@KFbxRenamingStrategy@fbxsdk_20102@@@fbxsdk_20102@@@fbxsdk_20102@@IAE@XZ
   ??1?$KBaseArray@V?$KBaseArraySizeType@PAUNameCell@KNumberRenamingStrategy@fbxsdk_20102@@@fbxsdk_20102@@@fbxsdk_20102@@IAE@XZ
   ??1?$KBaseArray@V?$KBaseArraySizeType@PAUNameCell@KRenamingStrategy3DS@fbxsdk_20102@@@fbxsdk_20102@@@fbxsdk_20102@@IAE@XZ
   ??1?$KBaseArray@V?$KBaseArraySizeType@PAUReaderPluginEntry@KFbxIOPluginRegistry@fbxsdk_20102@@@fbxsdk_20102@@@fbxsdk_20102@@IAE@XZ
   ??1?$KBaseArray@V?$KBaseArraySizeType@PAUWriterPluginEntry@KFbxIOPluginRegistry@fbxsdk_20102@@@fbxsdk_20102@@@fbxsdk_20102@@IAE@XZ
   ??1?$KBaseArray@V?$KBaseArraySizeType@PAV?$KArrayTemplate@H@fbxsdk_20102@@@fbxsdk_20102@@@fbxsdk_20102@@IAE@XZ
   ??1?$KBaseArray@V?$KBaseArraySizeType@PAV?$KArrayTemplate@UKElement@KFbxWeightedMapping@fbxsdk_20102@@@fbxsdk_20102@@@fbxsdk_20102@@@fbxsdk_20102@@IAE@XZ
   ??1?$KBaseArray@V?$KBaseArraySizeType@PAV?$KArrayTemplate@VKDuplicateVertex@KFbxMesh@fbxsdk_20102@@@fbxsdk_20102@@@fbxsdk_20102@@@fbxsdk_20102@@IAE@XZ
   ??1?$KBaseArray@V?$KBaseArraySizeType@PAV?$KMap@HHU?$KFbxLessCompare@H@fbxsdk_20102@@VKBaseAllocator@2@@fbxsdk_20102@@@fbxsdk_20102@@@fbxsdk_20102@@IAE@XZ
   ??1?$KBaseArray@V?$KBaseArraySizeType@PAVAccumulatorEntry@fbxsdk_20102@@@fbxsdk_20102@@@fbxsdk_20102@@IAE@XZ
   ??1?$KBaseArray@V?$KBaseArraySizeType@PAVAESequence@KFbxUserNotification@fbxsdk_20102@@@fbxsdk_20102@@@fbxsdk_20102@@IAE@XZ
   ??1?$KBaseArray@V?$KBaseArraySizeType@PAVFbx5ObjectTypeInfo@fbxsdk_20102@@@fbxsdk_20102@@@fbxsdk_20102@@IAE@XZ
   ??1?$KBaseArray@V?$KBaseArraySizeType@PAVFbx6ObjectTypeInfo@fbxsdk_20102@@@fbxsdk_20102@@@fbxsdk_20102@@IAE@XZ
   ??1?$KBaseArray@V?$KBaseArraySizeType@PAVFbx6TypeDefinitionInfo@fbxsdk_20102@@@fbxsdk_20102@@@fbxsdk_20102@@IAE@XZ
   ??1?$KBaseArray@V?$KBaseArraySizeType@PAVKBVHJoint@fbxsdk_20102@@@fbxsdk_20102@@@fbxsdk_20102@@IAE@XZ
   ??1?$KBaseArray@V?$KBaseArraySizeType@PAVKFbxAsfNode@fbxsdk_20102@@@fbxsdk_20102@@@fbxsdk_20102@@IAE@XZ
   ??1?$KBaseArray@V?$KBaseArraySizeType@PAVKFbxCamera@fbxsdk_20102@@@fbxsdk_20102@@@fbxsdk_20102@@IAE@XZ
   ??1?$KBaseArray@V?$KBaseArraySizeType@PAVKFbxCluster@fbxsdk_20102@@@fbxsdk_20102@@@fbxsdk_20102@@IAE@XZ
   ??1?$KBaseArray@V?$KBaseArraySizeType@PAVKFbxConnectionPoint@fbxsdk_20102@@@fbxsdk_20102@@@fbxsdk_20102@@IAE@XZ
   ??1?$KBaseArray@V?$KBaseArraySizeType@PAVKFbxDefaultTakeCallback@fbxsdk_20102@@@fbxsdk_20102@@@fbxsdk_20102@@IAE@XZ
   ??1?$KBaseArray@V?$KBaseArraySizeType@PAVKFbxDependency@fbxsdk_20102@@@fbxsdk_20102@@@fbxsdk_20102@@IAE@XZ
   ??1?$KBaseArray@V?$KBaseArraySizeType@PAVKFbxDocument@fbxsdk_20102@@@fbxsdk_20102@@@fbxsdk_20102@@IAE@XZ
   ??1?$KBaseArray@V?$KBaseArraySizeType@PAVKFbxFieldInstance@fbxsdk_20102@@@fbxsdk_20102@@@fbxsdk_20102@@IAE@XZ
   ??1?$KBaseArray@V?$KBaseArraySizeType@PAVKFbxGenericNode@fbxsdk_20102@@@fbxsdk_20102@@@fbxsdk_20102@@IAE@XZ
   ??1?$KBaseArray@V?$KBaseArraySizeType@PAVKFbxGobo@fbxsdk_20102@@@fbxsdk_20102@@@fbxsdk_20102@@IAE@XZ
   ??1?$KBaseArray@V?$KBaseArraySizeType@PAVKFbxHtrSegment@fbxsdk_20102@@@fbxsdk_20102@@@fbxsdk_20102@@IAE@XZ
   ??1?$KBaseArray@V?$KBaseArraySizeType@PAVKFbxImageConverter@fbxsdk_20102@@@fbxsdk_20102@@@fbxsdk_20102@@IAE@XZ
   ??1?$KBaseArray@V?$KBaseArraySizeType@PAVKFbxLayer@fbxsdk_20102@@@fbxsdk_20102@@@fbxsdk_20102@@IAE@XZ
   ??1?$KBaseArray@V?$KBaseArraySizeType@PAVKFbxLayeredTexture@fbxsdk_20102@@@fbxsdk_20102@@@fbxsdk_20102@@IAE@XZ
   ??1?$KBaseArray@V?$KBaseArraySizeType@PAVKFbxLayerElement@fbxsdk_20102@@@fbxsdk_20102@@@fbxsdk_20102@@IAE@XZ
   ??1?$KBaseArray@V?$KBaseArraySizeType@PAVKFbxLight@fbxsdk_20102@@@fbxsdk_20102@@@fbxsdk_20102@@IAE@XZ
   ??1?$KBaseArray@V?$KBaseArraySizeType@PAVKFbxLoadingStrategy@fbxsdk_20102@@@fbxsdk_20102@@@fbxsdk_20102@@IAE@XZ
   ??1?$KBaseArray@V?$KBaseArraySizeType@PAVKFbxLocalizationManager@fbxsdk_20102@@@fbxsdk_20102@@@fbxsdk_20102@@IAE@XZ
   ??1?$KBaseArray@V?$KBaseArraySizeType@PAVKFbxMarker@fbxsdk_20102@@@fbxsdk_20102@@@fbxsdk_20102@@IAE@XZ
   ??1?$KBaseArray@V?$KBaseArraySizeType@PAVKFbxMesh@fbxsdk_20102@@@fbxsdk_20102@@@fbxsdk_20102@@IAE@XZ
   ??1?$KBaseArray@V?$KBaseArraySizeType@PAVKFbxMessageListener@fbxsdk_20102@@@fbxsdk_20102@@@fbxsdk_20102@@IAE@XZ
   ??1?$KBaseArray@V?$KBaseArraySizeType@PAVKFbxNode@fbxsdk_20102@@@fbxsdk_20102@@@fbxsdk_20102@@IAE@XZ
   ??1?$KBaseArray@V?$KBaseArraySizeType@PAVKFbxObject@fbxsdk_20102@@@fbxsdk_20102@@@fbxsdk_20102@@IAE@XZ
   ??1?$KBaseArray@V?$KBaseArraySizeType@PAVKFbxOffloadRecord@fbxsdk_20102@@@fbxsdk_20102@@@fbxsdk_20102@@IAE@XZ
   ??1?$KBaseArray@V?$KBaseArraySizeType@PAVKFbxPlugin@fbxsdk_20102@@@fbxsdk_20102@@@fbxsdk_20102@@IAE@XZ
   ??1?$KBaseArray@V?$KBaseArraySizeType@PAVKFbxPose@fbxsdk_20102@@@fbxsdk_20102@@@fbxsdk_20102@@IAE@XZ
   ??1?$KBaseArray@V?$KBaseArraySizeType@PAVKFbxPreviewGeneratorFactory@fbxsdk_20102@@@fbxsdk_20102@@@fbxsdk_20102@@IAE@XZ
   ??1?$KBaseArray@V?$KBaseArraySizeType@PAVKFbxProductInfo@fbxsdk_20102@@@fbxsdk_20102@@@fbxsdk_20102@@IAE@XZ
   ??1?$KBaseArray@V?$KBaseArraySizeType@PAVKFbxPropertyPage@fbxsdk_20102@@@fbxsdk_20102@@@fbxsdk_20102@@IAE@XZ
   ??1?$KBaseArray@V?$KBaseArraySizeType@PAVKFbxScene@fbxsdk_20102@@@fbxsdk_20102@@@fbxsdk_20102@@IAE@XZ
   ??1?$KBaseArray@V?$KBaseArraySizeType@PAVKFbxSelectionNode@fbxsdk_20102@@@fbxsdk_20102@@@fbxsdk_20102@@IAE@XZ
   ??1?$KBaseArray@V?$KBaseArraySizeType@PAVKFbxShape@fbxsdk_20102@@@fbxsdk_20102@@@fbxsdk_20102@@IAE@XZ
   ??1?$KBaseArray@V?$KBaseArraySizeType@PAVKFbxSurfaceMaterial@fbxsdk_20102@@@fbxsdk_20102@@@fbxsdk_20102@@IAE@XZ
   ??1?$KBaseArray@V?$KBaseArraySizeType@PAVKFbxTakeInfo@fbxsdk_20102@@@fbxsdk_20102@@@fbxsdk_20102@@IAE@XZ
   ??1?$KBaseArray@V?$KBaseArraySizeType@PAVKFbxTakeNode@fbxsdk_20102@@@fbxsdk_20102@@@fbxsdk_20102@@IAE@XZ
   ??1?$KBaseArray@V?$KBaseArraySizeType@PAVKFbxTexture@fbxsdk_20102@@@fbxsdk_20102@@@fbxsdk_20102@@IAE@XZ
   ??1?$KBaseArray@V?$KBaseArraySizeType@PAVKFbxUIInstance@fbxsdk_20102@@@fbxsdk_20102@@@fbxsdk_20102@@IAE@XZ
   ??1?$KBaseArray@V?$KBaseArraySizeType@PAVKFbxUINode@fbxsdk_20102@@@fbxsdk_20102@@@fbxsdk_20102@@IAE@XZ
   ??1?$KBaseArray@V?$KBaseArraySizeType@PAVKFbxUserParamEntry@fbxsdk_20102@@@fbxsdk_20102@@@fbxsdk_20102@@IAE@XZ
   ??1?$KBaseArray@V?$KBaseArraySizeType@PAVKFbxVector4@fbxsdk_20102@@@fbxsdk_20102@@@fbxsdk_20102@@IAE@XZ
   ??1?$KBaseArray@V?$KBaseArraySizeType@PAVKFbxVideo@fbxsdk_20102@@@fbxsdk_20102@@@fbxsdk_20102@@IAE@XZ
   ??1?$KBaseArray@V?$KBaseArraySizeType@PAVKFbxWeightInfo@fbxsdk_20102@@@fbxsdk_20102@@@fbxsdk_20102@@IAE@XZ
   ??1?$KBaseArray@V?$KBaseArraySizeType@PAVKFCurve@fbxsdk_20102@@@fbxsdk_20102@@@fbxsdk_20102@@IAE@XZ
   ??1?$KBaseArray@V?$KBaseArraySizeType@PAVKFCurveNode@fbxsdk_20102@@@fbxsdk_20102@@@fbxsdk_20102@@IAE@XZ
   ??1?$KBaseArray@V?$KBaseArraySizeType@PAVKObjFace@fbxsdk_20102@@@fbxsdk_20102@@@fbxsdk_20102@@IAE@XZ
   ??1?$KBaseArray@V?$KBaseArraySizeType@PAVKObjMaterial@fbxsdk_20102@@@fbxsdk_20102@@@fbxsdk_20102@@IAE@XZ
   ??1?$KBaseArray@V?$KBaseArraySizeType@PAVKString@fbxsdk_20102@@@fbxsdk_20102@@@fbxsdk_20102@@IAE@XZ
   ??1?$KBaseArray@V?$KBaseArraySizeType@PAVKStringListItem@fbxsdk_20102@@@fbxsdk_20102@@@fbxsdk_20102@@IAE@XZ
   ??1?$KBaseArray@V?$KBaseArraySizeType@PAVKTypeDefinitionInfo@?A0xce6eb6f4@fbxsdk_20102@@@fbxsdk_20102@@@fbxsdk_20102@@IAE@XZ
   ??1?$KBaseArray@V?$KBaseArraySizeType@PAVKXRefManagerProject@fbxsdk_20102@@@fbxsdk_20102@@@fbxsdk_20102@@IAE@XZ
   ??1?$KBaseArray@V?$KBaseArraySizeType@PAVLayerInfo@fbxsdk_20102@@@fbxsdk_20102@@@fbxsdk_20102@@IAE@XZ
   ??1?$KBaseArray@V?$KBaseArraySizeType@PAVLightAndGoboName@fbxsdk_20102@@@fbxsdk_20102@@@fbxsdk_20102@@IAE@XZ
   ??1?$KBaseArray@V?$KBaseArraySizeType@PAVListItem@?$KHashMap@PAVKFbxLayeredTexture@fbxsdk_20102@@HVLayeredTextureHash@2@V?$NoOpDestruct@H@2@VLayeredTexPtrComparator@KFbxMaterialConverterImpl@2@@fbxsdk_20102@@@fbxsdk_20102@@@fbxsdk_20102@@IAE@XZ
   ??1?$KBaseArray@V?$KBaseArraySizeType@PAVListItem@?$KHashMap@VkFbxClassId@fbxsdk_20102@@PAV?$KArrayTemplate@PAVKFbxPreviewGeneratorFactory@fbxsdk_20102@@@2@VClassIdHash@Impl@KFbxPreviewManager@2@V?$PtrDestruct@PAV?$KArrayTemplate@PAVKFbxPreviewGeneratorFactory@fbxsdk_20102@@@fbxsdk_20102@@@2@V?$DefaultComparator@VkFbxClassId@fbxsdk_20102@@@2@@fbxsdk_20102@@@fbxsdk_20102@@@fbxsdk_20102@@IAE@XZ
   ??1?$KBaseArray@V?$KBaseArraySizeType@PAVListItem@?$KHashMap@VKString@fbxsdk_20102@@UDependency@KFbxProcessorShaderDependency@2@VKStringHash@42@V?$NoOpDestruct@UDependency@KFbxProcessorShaderDependency@fbxsdk_20102@@@2@V?$DefaultComparator@VKString@fbxsdk_20102@@@2@@fbxsdk_20102@@@fbxsdk_20102@@@fbxsdk_20102@@IAE@XZ
   ??1?$KBaseArray@V?$KBaseArraySizeType@PAVListItem@?$KHashMap@VLayerConfig@fbxsdk_20102@@HVLayerConfigHash@2@V?$NoOpDestruct@H@2@V?$DefaultComparator@VLayerConfig@fbxsdk_20102@@@2@@fbxsdk_20102@@@fbxsdk_20102@@@fbxsdk_20102@@IAE@XZ
   ??1?$KBaseArray@V?$KBaseArraySizeType@PAVListItem@?$KHashMap@VLayerConfig@fbxsdk_20102@@PAVKFbxSurfaceMaterial@2@VLayerConfigHash@2@V?$NoOpDestruct@PAVKFbxSurfaceMaterial@fbxsdk_20102@@@2@V?$DefaultComparator@VLayerConfig@fbxsdk_20102@@@2@@fbxsdk_20102@@@fbxsdk_20102@@@fbxsdk_20102@@IAE@XZ
   ??1?$KBaseArray@V?$KBaseArraySizeType@PAVPropertyAssociation@fbxsdk_20102@@@fbxsdk_20102@@@fbxsdk_20102@@IAE@XZ
   ??1?$KBaseArray@V?$KBaseArraySizeType@PAX@fbxsdk_20102@@@fbxsdk_20102@@IAE@XZ
   ??1?$KBaseArray@V?$KBaseArraySizeType@PBD@fbxsdk_20102@@@fbxsdk_20102@@IAE@XZ
   ??1?$KBaseArray@V?$KBaseArraySizeType@PBVKFbxLayerElementUV@fbxsdk_20102@@@fbxsdk_20102@@@fbxsdk_20102@@IAE@XZ
   ??1?$KBaseArray@V?$KBaseArraySizeType@PBVKFbxPlugin@fbxsdk_20102@@@fbxsdk_20102@@@fbxsdk_20102@@IAE@XZ
   ??1?$KBaseArray@V?$KBaseArraySizeType@U?$KTypeObjectReferenceDepth@VKFbxImplementation@fbxsdk_20102@@@fbxsdk_20102@@@fbxsdk_20102@@@fbxsdk_20102@@IAE@XZ
   ??1?$KBaseArray@V?$KBaseArraySizeType@U?$KTypeObjectReferenceDepth@VKFbxSurfaceMaterial@fbxsdk_20102@@@fbxsdk_20102@@@fbxsdk_20102@@@fbxsdk_20102@@IAE@XZ
   ??1?$KBaseArray@V?$KBaseArraySizeType@U?$KTypeObjectReferenceDepth@VKFbxTexture@fbxsdk_20102@@@fbxsdk_20102@@@fbxsdk_20102@@@fbxsdk_20102@@IAE@XZ
   ??1?$KBaseArray@V?$KBaseArraySizeType@U?$KTypeObjectReferenceDepth@VKFbxThumbnail@fbxsdk_20102@@@fbxsdk_20102@@@fbxsdk_20102@@@fbxsdk_20102@@IAE@XZ
   ??1?$KBaseArray@V?$KBaseArraySizeType@U?$KTypeObjectReferenceDepth@VKFbxVideo@fbxsdk_20102@@@fbxsdk_20102@@@fbxsdk_20102@@@fbxsdk_20102@@IAE@XZ
   ??1?$KBaseArray@V?$KBaseArraySizeType@UInputData@KFbxLayeredTexture@fbxsdk_20102@@@fbxsdk_20102@@@fbxsdk_20102@@IAE@XZ
   ??1?$KBaseArray@V?$KBaseArraySizeType@UKElement@KFbxWeightedMapping@fbxsdk_20102@@@fbxsdk_20102@@@fbxsdk_20102@@IAE@XZ
   ??1?$KBaseArray@V?$KBaseArraySizeType@UKFbxPolygon@KFbxMesh@fbxsdk_20102@@@fbxsdk_20102@@@fbxsdk_20102@@IAE@XZ
   ??1?$KBaseArray@V?$KBaseArraySizeType@UKFbxShadowPlane@KFbxGlobalLightSettings@fbxsdk_20102@@@fbxsdk_20102@@@fbxsdk_20102@@IAE@XZ
   ??1?$KBaseArray@V?$KBaseArraySizeType@UKFbxSplitEdgeData@KFbxMesh@fbxsdk_20102@@@fbxsdk_20102@@@fbxsdk_20102@@IAE@XZ
   ??1?$KBaseArray@V?$KBaseArraySizeType@UNewOld@KFbxReader3DS@fbxsdk_20102@@@fbxsdk_20102@@@fbxsdk_20102@@IAE@XZ
   ??1?$KBaseArray@V?$KBaseArraySizeType@UPreviewEntry@Impl@KFbxPreviewManager@fbxsdk_20102@@@fbxsdk_20102@@@fbxsdk_20102@@IAE@XZ
   ??1?$KBaseArray@V?$KBaseArraySizeType@V?$KPair@HH@fbxsdk_20102@@@fbxsdk_20102@@@fbxsdk_20102@@IAE@XZ
   ??1?$KBaseArray@V?$KBaseArraySizeType@V?$KPair@PAVKFbxLayerElementUV@fbxsdk_20102@@_N@fbxsdk_20102@@@fbxsdk_20102@@@fbxsdk_20102@@IAE@XZ
   ??1?$KBaseArray@V?$KBaseArraySizeType@V?$KPair@PAVKFbxTexture@fbxsdk_20102@@W4EBlendMode@KFbxLayerElementTexture@2@@fbxsdk_20102@@@fbxsdk_20102@@@fbxsdk_20102@@IAE@XZ
   ??1?$KBaseArray@V?$KBaseArraySizeType@VKConnection@KConnectionList@KFbxConnectionPoint@fbxsdk_20102@@@fbxsdk_20102@@@fbxsdk_20102@@IAE@XZ
   ??1?$KBaseArray@V?$KBaseArraySizeType@VKDuplicateVertex@KFbxMesh@fbxsdk_20102@@@fbxsdk_20102@@@fbxsdk_20102@@IAE@XZ
   ??1?$KBaseArray@V?$KBaseArraySizeType@VKFbxColor@fbxsdk_20102@@@fbxsdk_20102@@@fbxsdk_20102@@IAE@XZ
   ??1?$KBaseArray@V?$KBaseArraySizeType@VKFbxDataType@fbxsdk_20102@@@fbxsdk_20102@@@fbxsdk_20102@@IAE@XZ
   ??1?$KBaseArray@V?$KBaseArraySizeType@VKFbxLinkToCharacter@KFbxNode_internal@fbxsdk_20102@@@fbxsdk_20102@@@fbxsdk_20102@@IAE@XZ
   ??1?$KBaseArray@V?$KBaseArraySizeType@VKFbxMatrix@fbxsdk_20102@@@fbxsdk_20102@@@fbxsdk_20102@@IAE@XZ
   ??1?$KBaseArray@V?$KBaseArraySizeType@VKFbxProperty@fbxsdk_20102@@@fbxsdk_20102@@@fbxsdk_20102@@IAE@XZ
   ??1?$KBaseArray@V?$KBaseArraySizeType@VKFbxVector2@fbxsdk_20102@@@fbxsdk_20102@@@fbxsdk_20102@@IAE@XZ
   ??1?$KBaseArray@V?$KBaseArraySizeType@VKFbxVector4@fbxsdk_20102@@@fbxsdk_20102@@@fbxsdk_20102@@IAE@XZ
   ??1?$KBaseArray@V?$KBaseArraySizeType@VKFbxXMatrix@fbxsdk_20102@@@fbxsdk_20102@@@fbxsdk_20102@@IAE@XZ
   ??1?$KBaseArray@V?$KBaseArraySizeType@VKString@fbxsdk_20102@@@fbxsdk_20102@@@fbxsdk_20102@@IAE@XZ
   ??1?$KBaseArray@V?$KBaseArraySizeType@VKVertexNormalInfo@KFbxMesh@fbxsdk_20102@@@fbxsdk_20102@@@fbxsdk_20102@@IAE@XZ
   ??1?$KBaseArray@V?$KBaseArraySizeType@VLayerConfig@fbxsdk_20102@@@fbxsdk_20102@@@fbxsdk_20102@@IAE@XZ
   ??1?$KBaseArray@V?$KBaseArraySizeType@W4EAttributeType@KFbxNodeAttribute@fbxsdk_20102@@@fbxsdk_20102@@@fbxsdk_20102@@IAE@XZ
   ??1?$KBaseArray@V?$KBaseArraySizeType@W4ECharacterInputType@fbxsdk_20102@@@fbxsdk_20102@@@fbxsdk_20102@@IAE@XZ
   ??1?$KBaseArray@V?$KBaseArraySizeType@W4ELayerElementType@KFbxLayerElement@fbxsdk_20102@@@fbxsdk_20102@@@fbxsdk_20102@@IAE@XZ
   ??1?$KBaseArray@VKBaseArraySize@fbxsdk_20102@@@fbxsdk_20102@@IAE@XZ
   ??1?$KDynamicArray@_NVKBaseAllocator@fbxsdk_20102@@@fbxsdk_20102@@QAE@XZ
   ??1?$KDynamicArray@HVKBaseAllocator@fbxsdk_20102@@@fbxsdk_20102@@QAE@XZ
   ??1?$KDynamicArray@MVKBaseAllocator@fbxsdk_20102@@@fbxsdk_20102@@QAE@XZ
   ??1?$KDynamicArray@UFilePathData@KFbxProcessorShaderDependency@fbxsdk_20102@@VKBaseAllocator@3@@fbxsdk_20102@@QAE@XZ
   ??1?$KDynamicArray@VKFbxBindingTableEntry@fbxsdk_20102@@VKBaseAllocator@2@@fbxsdk_20102@@QAE@XZ
   ??1?$KDynamicArray@VKString@fbxsdk_20102@@VKBaseAllocator@2@@fbxsdk_20102@@QAE@XZ
   ??1?$KFbxEvent@VKFbxEventPopulateSystemLibrary@fbxsdk_20102@@@kfbxevents@fbxsdk_20102@@UAE@XZ
   ??1?$KFbxEvent@VKFbxEventPostExport@fbxsdk_20102@@@kfbxevents@fbxsdk_20102@@UAE@XZ
   ??1?$KFbxEvent@VKFbxEventPostImport@fbxsdk_20102@@@kfbxevents@fbxsdk_20102@@UAE@XZ
   ??1?$KFbxEvent@VKFbxEventPreExport@fbxsdk_20102@@@kfbxevents@fbxsdk_20102@@UAE@XZ
   ??1?$KFbxEvent@VKFbxEventPreImport@fbxsdk_20102@@@kfbxevents@fbxsdk_20102@@UAE@XZ
   ??1?$KFbxEvent@VKFbxEventReferencedDocument@fbxsdk_20102@@@kfbxevents@fbxsdk_20102@@UAE@XZ
   ??1?$KFbxEvent@VKFbxEventWriteLocalization@fbxsdk_20102@@@kfbxevents@fbxsdk_20102@@UAE@XZ
   ??1?$KFbxEvent@VKFbxObjectPropertyChanged@fbxsdk_20102@@@kfbxevents@fbxsdk_20102@@UAE@XZ
   ??1?$KFbxEvent@VKFbxScriptEvent@fbxsdk_20102@@@kfbxevents@fbxsdk_20102@@UAE@XZ
   ??1?$KFbxIterator@VKFbxProperty@fbxsdk_20102@@@fbxsdk_20102@@QAE@XZ
   ??1?$KFbxIteratorDst@VKFbxImplementation@fbxsdk_20102@@@fbxsdk_20102@@QAE@XZ
   ??1?$KFbxIteratorSrc@VKFbxLibrary@fbxsdk_20102@@@fbxsdk_20102@@QAE@XZ
   ??1?$KFbxIteratorSrc@VKFbxNode@fbxsdk_20102@@@fbxsdk_20102@@QAE@XZ
   ??1?$KFbxIteratorSrc@VKFbxObject@fbxsdk_20102@@@fbxsdk_20102@@QAE@XZ
   ??1?$KFbxLayerElementArrayReadLock@_N@fbxsdk_20102@@QAE@XZ
   ??1?$KFbxLayerElementArrayReadLock@H@fbxsdk_20102@@QAE@XZ
   ??1?$KFbxLayerElementArrayReadLock@M@fbxsdk_20102@@QAE@XZ
   ??1?$KFbxLayerElementArrayReadLock@N@fbxsdk_20102@@QAE@XZ
   ??1?$KFbxLayerElementArrayReadLock@VKFbxColor@fbxsdk_20102@@@fbxsdk_20102@@QAE@XZ
   ??1?$KFbxLayerElementArrayReadLock@VKFbxVector2@fbxsdk_20102@@@fbxsdk_20102@@QAE@XZ
   ??1?$KFbxLayerElementArrayReadLock@VKFbxVector4@fbxsdk_20102@@@fbxsdk_20102@@QAE@XZ
   ??1?$KFbxLayerElementArrayTemplate@_N@fbxsdk_20102@@UAE@XZ
   ??1?$KFbxLayerElementArrayTemplate@H@fbxsdk_20102@@UAE@XZ
   ??1?$KFbxLayerElementArrayTemplate@M@fbxsdk_20102@@UAE@XZ
   ??1?$KFbxLayerElementArrayTemplate@N@fbxsdk_20102@@UAE@XZ
   ??1?$KFbxLayerElementArrayTemplate@PAVKFbxSurfaceMaterial@fbxsdk_20102@@@fbxsdk_20102@@UAE@XZ
   ??1?$KFbxLayerElementArrayTemplate@PAVKFbxTexture@fbxsdk_20102@@@fbxsdk_20102@@UAE@XZ
   ??1?$KFbxLayerElementArrayTemplate@PAX@fbxsdk_20102@@UAE@XZ
   ??1?$KFbxLayerElementArrayTemplate@VKFbxColor@fbxsdk_20102@@@fbxsdk_20102@@UAE@XZ
   ??1?$KFbxLayerElementArrayTemplate@VKFbxVector2@fbxsdk_20102@@@fbxsdk_20102@@UAE@XZ
   ??1?$KFbxLayerElementArrayTemplate@VKFbxVector4@fbxsdk_20102@@@fbxsdk_20102@@UAE@XZ
   ??1?$KFbxLayerElementTemplate@_N@fbxsdk_20102@@MAE@XZ
   ??1?$KFbxLayerElementTemplate@H@fbxsdk_20102@@MAE@XZ
   ??1?$KFbxLayerElementTemplate@N@fbxsdk_20102@@MAE@XZ
   ??1?$KFbxLayerElementTemplate@PAVKFbxSurfaceMaterial@fbxsdk_20102@@@fbxsdk_20102@@MAE@XZ
   ??1?$KFbxLayerElementTemplate@PAVKFbxTexture@fbxsdk_20102@@@fbxsdk_20102@@MAE@XZ
   ??1?$KFbxLayerElementTemplate@PAX@fbxsdk_20102@@MAE@XZ
   ??1?$KFbxLayerElementTemplate@VKFbxColor@fbxsdk_20102@@@fbxsdk_20102@@MAE@XZ
   ??1?$KFbxLayerElementTemplate@VKFbxVector2@fbxsdk_20102@@@fbxsdk_20102@@MAE@XZ
   ??1?$KFbxLayerElementTemplate@VKFbxVector4@fbxsdk_20102@@@fbxsdk_20102@@MAE@XZ
   ??1?$KFbxMap@VKString@fbxsdk_20102@@PAVKFbxObject@2@VKFbxMapKStringCompare@2@@fbxsdk_20102@@QAE@XZ
   ??1?$KFbxMemberFuncEventHandler@VKFbxObjectPropertyChanged@fbxsdk_20102@@VKFbxUINode@2@@kfbxevents@fbxsdk_20102@@UAE@XZ
   ??1?$KFbxMemberFuncEventHandler@VKFbxScriptEvent@fbxsdk_20102@@VKFbxUIInstance@2@@kfbxevents@fbxsdk_20102@@UAE@XZ
   ??1?$KFbxMemberFuncEventHandler@VKFbxUIUpdateEvent@fbxsdk_20102@@VKFbxUIInstance@2@@kfbxevents@fbxsdk_20102@@UAE@XZ
   ??1?$KFbxObjectMap@VKString@fbxsdk_20102@@VKFbxMapKStringCompare@2@@fbxsdk_20102@@QAE@XZ
   ??1?$KFBXObjectScopedPtr@VKFbxCondition@fbxsdk_20102@@@fbxsdk_20102@@QAE@XZ
   ??1?$KFBXObjectScopedPtr@VKFbxDocumentInfo@fbxsdk_20102@@@fbxsdk_20102@@QAE@XZ
   ??1?$KFBXObjectScopedPtr@VKFbxExporter@fbxsdk_20102@@@fbxsdk_20102@@QAE@XZ
   ??1?$KFBXObjectScopedPtr@VKFbxImporter@fbxsdk_20102@@@fbxsdk_20102@@QAE@XZ
   ??1?$KFBXObjectScopedPtr@VKFbxLibrary@fbxsdk_20102@@@fbxsdk_20102@@QAE@XZ
   ??1?$KFBXObjectScopedPtr@VKFbxObject@fbxsdk_20102@@@fbxsdk_20102@@QAE@XZ
   ??1?$KFBXObjectScopedPtr@VKFbxProcessorXRefCopy@fbxsdk_20102@@@fbxsdk_20102@@QAE@XZ
   ??1?$KFBXObjectScopedPtr@VKFbxProcessorXRefCopyUserLibrary@fbxsdk_20102@@@fbxsdk_20102@@QAE@XZ
   ??1?$KFBXObjectScopedPtr@VKFbxStreamOptions@fbxsdk_20102@@@fbxsdk_20102@@QAE@XZ
   ??1?$KFBXObjectScopedPtr@VKFbxStreamOptionsFbxWriter@fbxsdk_20102@@@fbxsdk_20102@@QAE@XZ
   ??1?$KFBXObjectScopedPtr@VKFbxUIDefinition@fbxsdk_20102@@@fbxsdk_20102@@QAE@XZ
   ??1?$KFBXObjectScopedPtr@VKFbxUIImporter@fbxsdk_20102@@@fbxsdk_20102@@QAE@XZ
   ??1?$KFBXObjectScopedPtr@VKFbxUIInstance@fbxsdk_20102@@@fbxsdk_20102@@QAE@XZ
   ??1?$KFBXObjectScopedPtr@VKFbxUIView@fbxsdk_20102@@@fbxsdk_20102@@QAE@XZ
   ??1?$KFbxPropertyValueCondition@_N@fbxsdk_20102@@UAE@XZ
   ??1?$KFbxPropertyValueCondition@H@fbxsdk_20102@@UAE@XZ
   ??1?$KFbxPropertyValueCondition@M@fbxsdk_20102@@UAE@XZ
   ??1?$KFbxTypedProperty@_N@fbxsdk_20102@@QAE@XZ
   ??1?$KFbxTypedProperty@H@fbxsdk_20102@@QAE@XZ
   ??1?$KFbxTypedProperty@N@fbxsdk_20102@@QAE@XZ
   ??1?$KFbxTypedProperty@PAVfbxReference@fbxsdk_20102@@@fbxsdk_20102@@QAE@XZ
   ??1?$KFbxTypedProperty@V?$fbxVectorTemplate2@N@fbxsdk_20102@@@fbxsdk_20102@@QAE@XZ
   ??1?$KFbxTypedProperty@V?$fbxVectorTemplate3@N@fbxsdk_20102@@@fbxsdk_20102@@QAE@XZ
   ??1?$KFbxTypedProperty@VfbxDateTime@fbxsdk_20102@@@fbxsdk_20102@@QAE@XZ
   ??1?$KFbxTypedProperty@VfbxReference@fbxsdk_20102@@@fbxsdk_20102@@QAE@XZ
   ??1?$KFbxTypedProperty@VKFbxXMatrix@fbxsdk_20102@@@fbxsdk_20102@@QAE@XZ
   ??1?$KFbxTypedProperty@VKString@fbxsdk_20102@@@fbxsdk_20102@@QAE@XZ
   ??1?$KFbxTypedProperty@VKTime@fbxsdk_20102@@@fbxsdk_20102@@QAE@XZ
   ??1?$KFbxTypedProperty@W4ComponentEncoding@KFbxImagePixelFormat@fbxsdk_20102@@@fbxsdk_20102@@QAE@XZ
   ??1?$KFbxTypedProperty@W4EAccessMode@KFbxVideo@fbxsdk_20102@@@fbxsdk_20102@@QAE@XZ
   ??1?$KFbxTypedProperty@W4EBlendMode@KFbxTexture@fbxsdk_20102@@@fbxsdk_20102@@QAE@XZ
   ??1?$KFbxTypedProperty@W4ECameraAntialiasingMethod@KFbxCamera@fbxsdk_20102@@@fbxsdk_20102@@QAE@XZ
   ??1?$KFbxTypedProperty@W4ECameraApertureFormat@KFbxCamera@fbxsdk_20102@@@fbxsdk_20102@@QAE@XZ
   ??1?$KFbxTypedProperty@W4ECameraApertureMode@KFbxCamera@fbxsdk_20102@@@fbxsdk_20102@@QAE@XZ
   ??1?$KFbxTypedProperty@W4ECameraAspectRatioMode@KFbxCamera@fbxsdk_20102@@@fbxsdk_20102@@QAE@XZ
   ??1?$KFbxTypedProperty@W4ECameraFilmRollOrder@KFbxCamera@fbxsdk_20102@@@fbxsdk_20102@@QAE@XZ
   ??1?$KFbxTypedProperty@W4ECameraFocusDistanceSource@KFbxCamera@fbxsdk_20102@@@fbxsdk_20102@@QAE@XZ
   ??1?$KFbxTypedProperty@W4ECameraFormat@KFbxCamera@fbxsdk_20102@@@fbxsdk_20102@@QAE@XZ
   ??1?$KFbxTypedProperty@W4ECameraFrontBackPlaneDisplayMode@KFbxCamera@fbxsdk_20102@@@fbxsdk_20102@@QAE@XZ
   ??1?$KFbxTypedProperty@W4ECameraFrontBackPlaneDistanceMode@KFbxCamera@fbxsdk_20102@@@fbxsdk_20102@@QAE@XZ
   ??1?$KFbxTypedProperty@W4ECameraGateFit@KFbxCamera@fbxsdk_20102@@@fbxsdk_20102@@QAE@XZ
   ??1?$KFbxTypedProperty@W4ECameraProjectionType@KFbxCamera@fbxsdk_20102@@@fbxsdk_20102@@QAE@XZ
   ??1?$KFbxTypedProperty@W4ECameraSafeAreaStyle@KFbxCamera@fbxsdk_20102@@@fbxsdk_20102@@QAE@XZ
   ??1?$KFbxTypedProperty@W4ECameraSamplingType@KFbxCamera@fbxsdk_20102@@@fbxsdk_20102@@QAE@XZ
   ??1?$KFbxTypedProperty@W4ECameraStereo@KFbxCameraStereo@fbxsdk_20102@@@fbxsdk_20102@@QAE@XZ
   ??1?$KFbxTypedProperty@W4EDecayType@KFbxLight@fbxsdk_20102@@@fbxsdk_20102@@QAE@XZ
   ??1?$KFbxTypedProperty@W4EInterlaceMode@KFbxVideo@fbxsdk_20102@@@fbxsdk_20102@@QAE@XZ
   ??1?$KFbxTypedProperty@W4ELightType@KFbxLight@fbxsdk_20102@@@fbxsdk_20102@@QAE@XZ
   ??1?$KFbxTypedProperty@W4ELook@KFbxMarker@fbxsdk_20102@@@fbxsdk_20102@@QAE@XZ
   ??1?$KFbxTypedProperty@W4ELook@KFbxNull@fbxsdk_20102@@@fbxsdk_20102@@QAE@XZ
   ??1?$KFbxTypedProperty@W4ERotationOrder@fbxsdk_20102@@@fbxsdk_20102@@QAE@XZ
   ??1?$KFbxTypedProperty@W4ETextureUse6@KFbxTexture@fbxsdk_20102@@@fbxsdk_20102@@QAE@XZ
   ??1?$KFbxTypedProperty@W4ETransformInheritType@fbxsdk_20102@@@fbxsdk_20102@@QAE@XZ
   ??1?$KFbxTypedProperty@W4EType@KFbxControlSet@fbxsdk_20102@@@fbxsdk_20102@@QAE@XZ
   ??1?$KFbxTypedProperty@W4EUnifiedMappingType@KFbxTexture@fbxsdk_20102@@@fbxsdk_20102@@QAE@XZ
   ??1?$KFbxTypedProperty@W4EWrapMode@KFbxTexture@fbxsdk_20102@@@fbxsdk_20102@@QAE@XZ
   ??1?$KFbxTypedProperty@W4kCharacterAutoUser@fbxsdk_20102@@@fbxsdk_20102@@QAE@XZ
   ??1?$KFbxTypedProperty@W4kCharacterContactBehaviour@fbxsdk_20102@@@fbxsdk_20102@@QAE@XZ
   ??1?$KFbxTypedProperty@W4kCharacterFingerContactMode@fbxsdk_20102@@@fbxsdk_20102@@QAE@XZ
   ??1?$KFbxTypedProperty@W4kCharacterFloorPivot@fbxsdk_20102@@@fbxsdk_20102@@QAE@XZ
   ??1?$KFbxTypedProperty@W4kCharacterFootContactType@fbxsdk_20102@@@fbxsdk_20102@@QAE@XZ
   ??1?$KFbxTypedProperty@W4kCharacterHandContactType@fbxsdk_20102@@@fbxsdk_20102@@QAE@XZ
   ??1?$KFbxTypedProperty@W4kCharacterHipsTranslationMode@fbxsdk_20102@@@fbxsdk_20102@@QAE@XZ
   ??1?$KFbxTypedProperty@W4kCharacterOffAutoUser@fbxsdk_20102@@@fbxsdk_20102@@QAE@XZ
   ??1?$KFbxTypedProperty@W4kCharacterPosture@fbxsdk_20102@@@fbxsdk_20102@@QAE@XZ
   ??1?$KFbxTypedProperty@W4kCharacterRollExtractionMode@fbxsdk_20102@@@fbxsdk_20102@@QAE@XZ
   ??1?$KFbxTypedProperty@W4PixelEncoding@KFbxImagePixelFormat@fbxsdk_20102@@@fbxsdk_20102@@QAE@XZ
   ??1?$KFbxUITree@VKFbxUINode@fbxsdk_20102@@@fbxsdk_20102@@MAE@XZ
   ??1?$KHashMap@PAVKFbxLayeredTexture@fbxsdk_20102@@HVLayeredTextureHash@2@V?$NoOpDestruct@H@2@VLayeredTexPtrComparator@KFbxMaterialConverterImpl@2@@fbxsdk_20102@@QAE@XZ
   ??1?$KHashMap@VkFbxClassId@fbxsdk_20102@@PAV?$KArrayTemplate@PAVKFbxPreviewGeneratorFactory@fbxsdk_20102@@@2@VClassIdHash@Impl@KFbxPreviewManager@2@V?$PtrDestruct@PAV?$KArrayTemplate@PAVKFbxPreviewGeneratorFactory@fbxsdk_20102@@@fbxsdk_20102@@@2@V?$DefaultComparator@VkFbxClassId@fbxsdk_20102@@@2@@fbxsdk_20102@@QAE@XZ
   ??1?$KHashMap@VKString@fbxsdk_20102@@UDependency@KFbxProcessorShaderDependency@2@VKStringHash@42@V?$NoOpDestruct@UDependency@KFbxProcessorShaderDependency@fbxsdk_20102@@@2@V?$DefaultComparator@VKString@fbxsdk_20102@@@2@@fbxsdk_20102@@QAE@XZ
   ??1?$KHashMap@VLayerConfig@fbxsdk_20102@@HVLayerConfigHash@2@V?$NoOpDestruct@H@2@V?$DefaultComparator@VLayerConfig@fbxsdk_20102@@@2@@fbxsdk_20102@@QAE@XZ
   ??1?$KHashMap@VLayerConfig@fbxsdk_20102@@PAVKFbxSurfaceMaterial@2@VLayerConfigHash@2@V?$NoOpDestruct@PAVKFbxSurfaceMaterial@fbxsdk_20102@@@2@V?$DefaultComparator@VLayerConfig@fbxsdk_20102@@@2@@fbxsdk_20102@@QAE@XZ
   ??1?$KIntrusiveList@VKFbxEventHandler@kfbxevents@fbxsdk_20102@@$00@fbxsdk_20102@@QAE@XZ
   ??1?$KIntrusiveList@VKFbxEventHandler@kfbxevents@fbxsdk_20102@@$0A@@fbxsdk_20102@@QAE@XZ
   ??1?$KIntrusiveList@VKFbxPlugin@fbxsdk_20102@@$0A@@fbxsdk_20102@@QAE@XZ
   ??1?$KIntrusiveList@VKFbxPluginHandle@fbxsdk_20102@@$0A@@fbxsdk_20102@@QAE@XZ
   ??1?$KListNode@VKFbxEventHandler@kfbxevents@fbxsdk_20102@@@fbxsdk_20102@@QAE@XZ
   ??1?$KListNode@VKFbxPlugin@fbxsdk_20102@@@fbxsdk_20102@@QAE@XZ
   ??1?$KListNode@VKFbxPluginHandle@fbxsdk_20102@@@fbxsdk_20102@@QAE@XZ
   ??1?$KMap@_JPAVKFbxObject@fbxsdk_20102@@U?$KFbxLessCompare@_J@2@VKBaseAllocator@2@@fbxsdk_20102@@QAE@XZ
   ??1?$KMap@HPAVKFbxPropertyEntry@fbxsdk_20102@@U?$KFbxLessCompare@H@2@VKHungryAllocator@2@@fbxsdk_20102@@QAE@XZ
   ??1?$KMap@PAVKFbxObject@fbxsdk_20102@@_JU?$KFbxLessCompare@PAVKFbxObject@fbxsdk_20102@@@2@VKBaseAllocator@2@@fbxsdk_20102@@QAE@XZ
   ??1?$KMap@PAVKFbxObject@fbxsdk_20102@@UCloneSetElement@KFbxCloneManager@2@VKFbxObjectCompare@42@VKBaseAllocator@2@@fbxsdk_20102@@QAE@XZ
   ??1?$KMap@PAVKFbxObject@fbxsdk_20102@@V?$KSet2@UKFbxPropertyUpdate@KFbxProcessorXRefCopy@fbxsdk_20102@@U?$KFbxLessCompare@UKFbxPropertyUpdate@KFbxProcessorXRefCopy@fbxsdk_20102@@@3@VKBaseAllocator@3@@2@U?$KFbxLessCompare@PAVKFbxObject@fbxsdk_20102@@@2@VKBaseAllocator@2@@fbxsdk_20102@@QAE@XZ
   ??1?$KMap@PAVKFbxObject@fbxsdk_20102@@V?$KSet2@UKFbxPropertyUrlIndex@KFbxEmbeddedFilesAccumulator@fbxsdk_20102@@UKFbxPropertyUrlIndexCompare@23@VKBaseAllocator@3@@2@U?$KFbxLessCompare@PAVKFbxObject@fbxsdk_20102@@@2@VKBaseAllocator@2@@fbxsdk_20102@@QAE@XZ
   ??1?$KMap@PBDPBVFunctionCreatorBase@KFbxBindingOperator@fbxsdk_20102@@VKCharCompare@3@VKBaseAllocator@3@@fbxsdk_20102@@QAE@XZ
   ??1?$KMap@V?$KPair@HH@fbxsdk_20102@@HVPointsToEdgeComparator@2@VKBaseAllocator@2@@fbxsdk_20102@@QAE@XZ
   ??1?$KMap@V?$KPair@HPBD@fbxsdk_20102@@HVKNameMapCompare@2@VKBaseAllocator@2@@fbxsdk_20102@@QAE@XZ
   ??1?$KMap@V?$KPair@VKString@fbxsdk_20102@@V12@@fbxsdk_20102@@IVKStringPairCompare@2@VKBaseAllocator@2@@fbxsdk_20102@@QAE@XZ
   ??1?$KMap@VkFbxClassId@fbxsdk_20102@@PAVKFbxObject@2@VkFbxClassIdCompare@ClassTemplateMap@?A0xa88da042@2@VKBaseAllocator@2@@fbxsdk_20102@@QAE@XZ
   ??1?$KMap@VkFbxClassId@fbxsdk_20102@@PAVKFbxObject@2@VkFbxClassIdCompare@Fbx6ClassTemplateMap@2@VKBaseAllocator@2@@fbxsdk_20102@@QAE@XZ
   ??1?$KMap@VKString@fbxsdk_20102@@HVKStringCompare@2@VKBaseAllocator@2@@fbxsdk_20102@@QAE@XZ
   ??1?$KMap@VKString@fbxsdk_20102@@PAVKFbxObject@2@VKFbxMapKStringCompare@2@VKBaseAllocator@2@@fbxsdk_20102@@QAE@XZ
   ??1?$KMap@VKString@fbxsdk_20102@@UKFbxEmbeddedFileInfo@KFbxEmbeddedFilesAccumulator@2@U?$KFbxLessCompare@VKString@fbxsdk_20102@@@2@VKBaseAllocator@2@@fbxsdk_20102@@QAE@XZ
   ??1?$KMap@VKString@fbxsdk_20102@@V12@U?$KFbxLessCompare@VKString@fbxsdk_20102@@@2@VKBaseAllocator@2@@fbxsdk_20102@@QAE@XZ
   ??1?$KMap@VKString@fbxsdk_20102@@VKFbxProperty@2@VKFbxStringCompare@KFbxUIBuilder@2@VKBaseAllocator@2@@fbxsdk_20102@@QAE@XZ
   ??1?$KMpMutexHelper@VKMpMutex@fbxsdk_20102@@@fbxsdk_20102@@QAE@XZ
   ??1?$KPair@$$CBV?$KPair@VKString@fbxsdk_20102@@V12@@fbxsdk_20102@@I@fbxsdk_20102@@QAE@XZ
   ??1?$KPair@$$CBVKString@fbxsdk_20102@@H@fbxsdk_20102@@QAE@XZ
   ??1?$KPair@$$CBVKString@fbxsdk_20102@@PAVKFbxObject@2@@fbxsdk_20102@@QAE@XZ
   ??1?$KPair@$$CBVKString@fbxsdk_20102@@UKFbxEmbeddedFileInfo@KFbxEmbeddedFilesAccumulator@2@@fbxsdk_20102@@QAE@XZ
   ??1?$KPair@$$CBVKString@fbxsdk_20102@@V12@@fbxsdk_20102@@QAE@XZ
   ??1?$KPair@$$CBVKString@fbxsdk_20102@@VKFbxProperty@2@@fbxsdk_20102@@QAE@XZ
   ??1?$KPair@IV?$KMap@V?$KPair@HPBD@fbxsdk_20102@@HVKNameMapCompare@2@VKBaseAllocator@2@@fbxsdk_20102@@@fbxsdk_20102@@QAE@XZ
   ??1?$KPair@QAVKFbxObject@fbxsdk_20102@@V?$KSet2@UKFbxPropertyUpdate@KFbxProcessorXRefCopy@fbxsdk_20102@@U?$KFbxLessCompare@UKFbxPropertyUpdate@KFbxProcessorXRefCopy@fbxsdk_20102@@@3@VKBaseAllocator@3@@2@@fbxsdk_20102@@QAE@XZ
   ??1?$KPair@QAVKFbxObject@fbxsdk_20102@@V?$KSet2@UKFbxPropertyUrlIndex@KFbxEmbeddedFilesAccumulator@fbxsdk_20102@@UKFbxPropertyUrlIndexCompare@23@VKBaseAllocator@3@@2@@fbxsdk_20102@@QAE@XZ
   ??1?$KPair@VKString@fbxsdk_20102@@UDependency@KFbxProcessorShaderDependency@2@@fbxsdk_20102@@QAE@XZ
   ??1?$KPair@VKString@fbxsdk_20102@@V12@@fbxsdk_20102@@QAE@XZ
   ??1?$KScopedPtr@DV?$FreeDeletionPolicy@D@fbxsdk_20102@@@fbxsdk_20102@@QAE@XZ
   ??1?$KScopedPtr@VKFbxCondition@fbxsdk_20102@@V?$FBXObjectDeletionPolicy@VKFbxCondition@fbxsdk_20102@@@2@@fbxsdk_20102@@QAE@XZ
   ??1?$KScopedPtr@VKFbxDocumentInfo@fbxsdk_20102@@V?$FBXObjectDeletionPolicy@VKFbxDocumentInfo@fbxsdk_20102@@@2@@fbxsdk_20102@@QAE@XZ
   ??1?$KScopedPtr@VKFbxExporter@fbxsdk_20102@@V?$FBXObjectDeletionPolicy@VKFbxExporter@fbxsdk_20102@@@2@@fbxsdk_20102@@QAE@XZ
   ??1?$KScopedPtr@VKFbxImporter@fbxsdk_20102@@V?$FBXObjectDeletionPolicy@VKFbxImporter@fbxsdk_20102@@@2@@fbxsdk_20102@@QAE@XZ
   ??1?$KScopedPtr@VKFbxLibrary@fbxsdk_20102@@V?$FBXObjectDeletionPolicy@VKFbxLibrary@fbxsdk_20102@@@2@@fbxsdk_20102@@QAE@XZ
   ??1?$KScopedPtr@VKFbxLocalization@fbxsdk_20102@@V?$DefaultDeletionPolicy@VKFbxLocalization@fbxsdk_20102@@@2@@fbxsdk_20102@@QAE@XZ
   ??1?$KScopedPtr@VKFbxObject@fbxsdk_20102@@V?$FBXObjectDeletionPolicy@VKFbxObject@fbxsdk_20102@@@2@@fbxsdk_20102@@QAE@XZ
   ??1?$KScopedPtr@VKFbxProcessorXRefCopy@fbxsdk_20102@@V?$FBXObjectDeletionPolicy@VKFbxProcessorXRefCopy@fbxsdk_20102@@@2@@fbxsdk_20102@@QAE@XZ
   ??1?$KScopedPtr@VKFbxProcessorXRefCopyUserLibrary@fbxsdk_20102@@V?$FBXObjectDeletionPolicy@VKFbxProcessorXRefCopyUserLibrary@fbxsdk_20102@@@2@@fbxsdk_20102@@QAE@XZ
   ??1?$KScopedPtr@VKFbxReaderFbx@fbxsdk_20102@@V?$DefaultDeletionPolicy@VKFbxReaderFbx@fbxsdk_20102@@@2@@fbxsdk_20102@@QAE@XZ
   ??1?$KScopedPtr@VKFbxReaderFbx6@fbxsdk_20102@@V?$DefaultDeletionPolicy@VKFbxReaderFbx6@fbxsdk_20102@@@2@@fbxsdk_20102@@QAE@XZ
   ??1?$KScopedPtr@VKFbxReaderFbx7@fbxsdk_20102@@V?$DefaultDeletionPolicy@VKFbxReaderFbx7@fbxsdk_20102@@@2@@fbxsdk_20102@@QAE@XZ
   ??1?$KScopedPtr@VKFbxStreamOptions@fbxsdk_20102@@V?$FBXObjectDeletionPolicy@VKFbxStreamOptions@fbxsdk_20102@@@2@@fbxsdk_20102@@QAE@XZ
   ??1?$KScopedPtr@VKFbxStreamOptionsFbxWriter@fbxsdk_20102@@V?$FBXObjectDeletionPolicy@VKFbxStreamOptionsFbxWriter@fbxsdk_20102@@@2@@fbxsdk_20102@@QAE@XZ
   ??1?$KScopedPtr@VKFbxUIDefinition@fbxsdk_20102@@V?$FBXObjectDeletionPolicy@VKFbxUIDefinition@fbxsdk_20102@@@2@@fbxsdk_20102@@QAE@XZ
   ??1?$KScopedPtr@VKFbxUIImporter@fbxsdk_20102@@V?$FBXObjectDeletionPolicy@VKFbxUIImporter@fbxsdk_20102@@@2@@fbxsdk_20102@@QAE@XZ
   ??1?$KScopedPtr@VKFbxUIInstance@fbxsdk_20102@@V?$FBXObjectDeletionPolicy@VKFbxUIInstance@fbxsdk_20102@@@2@@fbxsdk_20102@@QAE@XZ
   ??1?$KScopedPtr@VKFbxUIView@fbxsdk_20102@@V?$FBXObjectDeletionPolicy@VKFbxUIView@fbxsdk_20102@@@2@@fbxsdk_20102@@QAE@XZ
   ??1?$KScopedPtr@VKMemoryAllocator@fbxsdk_20102@@V?$DefaultDeletionPolicy@VKMemoryAllocator@fbxsdk_20102@@@2@@fbxsdk_20102@@QAE@XZ
   ??1?$KScopedPtr@VKString@fbxsdk_20102@@V?$DeletionPolicy@VKString@fbxsdk_20102@@@2@@fbxsdk_20102@@QAE@XZ
   ??1?$KScopedPtr@VKStringList@fbxsdk_20102@@V?$DefaultDeletionPolicy@VKStringList@fbxsdk_20102@@@2@@fbxsdk_20102@@QAE@XZ
   ??1?$KSet2@PAVKFbxClassIdInfo@fbxsdk_20102@@U?$KFbxLessCompare@PAVKFbxClassIdInfo@fbxsdk_20102@@@2@VKBaseAllocator@2@@fbxsdk_20102@@QAE@XZ
   ??1?$KSet2@PAVKFbxObject@fbxsdk_20102@@U?$KFbxLessCompare@PAVKFbxObject@fbxsdk_20102@@@2@VKBaseAllocator@2@@fbxsdk_20102@@QAE@XZ
   ??1?$KSet2@PAVKFbxSurfaceMaterial@fbxsdk_20102@@U?$KFbxLessCompare@PAVKFbxSurfaceMaterial@fbxsdk_20102@@@2@VKBaseAllocator@2@@fbxsdk_20102@@QAE@XZ
   ??1?$KSet2@UKFbxPropertyUpdate@KFbxProcessorXRefCopy@fbxsdk_20102@@U?$KFbxLessCompare@UKFbxPropertyUpdate@KFbxProcessorXRefCopy@fbxsdk_20102@@@3@VKBaseAllocator@3@@fbxsdk_20102@@QAE@XZ
   ??1?$KSet2@UKFbxPropertyUrlIndex@KFbxEmbeddedFilesAccumulator@fbxsdk_20102@@UKFbxPropertyUrlIndexCompare@23@VKBaseAllocator@3@@fbxsdk_20102@@QAE@XZ
   ??1?$KSet2@VkFbxClassId@fbxsdk_20102@@VkNewFbxClassIdCompare@2@VKBaseAllocator@2@@fbxsdk_20102@@QAE@XZ
   ??1?$KSet2@VkFbxClassId@fbxsdk_20102@@VkNewFbxFileClassIdCompare@2@VKBaseAllocator@2@@fbxsdk_20102@@QAE@XZ
   ??1?$KSet2@VKString@fbxsdk_20102@@U?$KFbxLessCompare@VKString@fbxsdk_20102@@@2@VKBaseAllocator@2@@fbxsdk_20102@@QAE@XZ
   ??1?$KStringListTemplate@VKStringListItem@fbxsdk_20102@@@fbxsdk_20102@@UAE@XZ
   ??1?$list@UiteratorEntry@DirectoryIterator@awOS@fbxsdk_20102@@@aw@fbxsdk_20102@@QAE@XZ
   ??1?$list@V?$Reference@VIdleTask@awUtil@fbxsdk_20102@@@aw@fbxsdk_20102@@@aw@fbxsdk_20102@@QAE@XZ
   ??1?$list@VIString@awString@fbxsdk_20102@@@aw@fbxsdk_20102@@QAE@XZ
   ??1?$map@DV?$Reference@Vparse@impl@fbxsdk_20102@@@aw@fbxsdk_20102@@U?$less@D@23@@aw@fbxsdk_20102@@QAE@XZ
   ??1?$map@KPA_NU?$less@K@aw@fbxsdk_20102@@@aw@fbxsdk_20102@@QAE@XZ
   ??1?$map@V?$Reference@VIdleTask@awUtil@fbxsdk_20102@@@aw@fbxsdk_20102@@Viterator@?$list@V?$Reference@VIdleTask@awUtil@fbxsdk_20102@@@aw@fbxsdk_20102@@@23@U?$less@V?$Reference@VIdleTask@awUtil@fbxsdk_20102@@@aw@fbxsdk_20102@@@23@@aw@fbxsdk_20102@@QAE@XZ
   ??1?$map@VCString@awString@fbxsdk_20102@@HU?$less@VCString@awString@fbxsdk_20102@@@aw@3@@aw@fbxsdk_20102@@QAE@XZ
   ??1?$pair@$$CBVKFbxProperty@fbxsdk_20102@@H@std@@QAE@XZ
   ??1?$pair@$$CBVKString@fbxsdk_20102@@H@std@@QAE@XZ
   ??1?$pair@$$CBVKString@fbxsdk_20102@@J@std@@QAE@XZ
   ??1?$pair@JVError@awUtil@fbxsdk_20102@@@aw@fbxsdk_20102@@QAE@XZ
   ??1?$pair@PAXVError@awUtil@fbxsdk_20102@@@aw@fbxsdk_20102@@QAE@XZ
   ??1?$pair@VIString@awString@fbxsdk_20102@@VError@awUtil@3@@aw@fbxsdk_20102@@QAE@XZ
   ??1?$pair@VKString@fbxsdk_20102@@H@std@@QAE@XZ
   ??1?$rbtree@DV?$Reference@Vparse@impl@fbxsdk_20102@@@aw@fbxsdk_20102@@U?$less@D@23@@aw@fbxsdk_20102@@QAE@XZ
   ??1?$rbtree@KPA_NU?$less@K@aw@fbxsdk_20102@@@aw@fbxsdk_20102@@QAE@XZ
   ??1?$rbtree@V?$Reference@VIdleTask@awUtil@fbxsdk_20102@@@aw@fbxsdk_20102@@Viterator@?$list@V?$Reference@VIdleTask@awUtil@fbxsdk_20102@@@aw@fbxsdk_20102@@@23@U?$less@V?$Reference@VIdleTask@awUtil@fbxsdk_20102@@@aw@fbxsdk_20102@@@23@@aw@fbxsdk_20102@@QAE@XZ
   ??1?$rbtree@VCString@awString@fbxsdk_20102@@HU?$less@VCString@awString@fbxsdk_20102@@@aw@3@@aw@fbxsdk_20102@@QAE@XZ
   ??1?$Reference@VIdleTask@awUtil@fbxsdk_20102@@@aw@fbxsdk_20102@@QAE@XZ
   ??1?$Reference@Voption@impl@fbxsdk_20102@@@aw@fbxsdk_20102@@QAE@XZ
   ??1?$Reference@Vparse@impl@fbxsdk_20102@@@aw@fbxsdk_20102@@QAE@XZ
   ??1?$Signal3Args@PBDPAXH@awRTB@fbxsdk_20102@@QAE@XZ
   ??1?$SignalArg@AAVProgress@awUtil@fbxsdk_20102@@@awRTB@fbxsdk_20102@@QAE@XZ
   ??1?$SignalArg@PAVSignalClient@awRTB@fbxsdk_20102@@@awRTB@fbxsdk_20102@@QAE@XZ
   ??1?$vector@I@aw@fbxsdk_20102@@QAE@XZ
   ??1?$vector@PAVFileTransportFactory@awOS@fbxsdk_20102@@@aw@fbxsdk_20102@@QAE@XZ
   ??1?$vector@V?$Reference@Voption@impl@fbxsdk_20102@@@aw@fbxsdk_20102@@@aw@fbxsdk_20102@@QAE@XZ
   ??1?$vector@VCString@awString@fbxsdk_20102@@@aw@fbxsdk_20102@@QAE@XZ
   ??1?$vector@VIString@awString@fbxsdk_20102@@@aw@fbxsdk_20102@@QAE@XZ
   ??1?$vector@W4optionTypes@impl@fbxsdk_20102@@@aw@fbxsdk_20102@@QAE@XZ
   ??1_info@URL@awOS@fbxsdk_20102@@QAE@XZ
   ??1_KFbxObjectData@fbxsdk_20102@@QAE@XZ
   ??1AccumulatorEntry@fbxsdk_20102@@QAE@XZ
   ??1AppMain@awOS@fbxsdk_20102@@QAE@XZ
   ??1AppOutput@awOS@fbxsdk_20102@@QAE@XZ
   ??1AppOutputStatusTab@awOS@fbxsdk_20102@@QAE@XZ
   ??1AppOutputStream@awOS@fbxsdk_20102@@QAE@XZ
   ??1AppOutputStreamImpl@awOS@fbxsdk_20102@@QAE@XZ
   ??1awCacheChannel@fbxsdk_20102@@UAE@XZ
   ??1awCacheData@fbxsdk_20102@@UAE@XZ
   ??1awCacheDescriptionIO@fbxsdk_20102@@UAE@XZ
   ??1awCacheFileAccessor@fbxsdk_20102@@MAE@XZ
   ??1awCacheFileIffIO@fbxsdk_20102@@UAE@XZ
   ??1awCacheFileInterface@fbxsdk_20102@@UAE@XZ
   ??1awCacheFileIO@fbxsdk_20102@@UAE@XZ
   ??1awCachePerChannelInfo@fbxsdk_20102@@QAE@XZ
   ??1awFlibWrapper@fbxsdk_20102@@UAE@XZ
   ??1awIffBuffer@fbxsdk_20102@@QAE@XZ
   ??1awIffFile@fbxsdk_20102@@UAE@XZ
   ??1awIffParserCallback@fbxsdk_20102@@UAE@XZ
   ??1awIffTag@fbxsdk_20102@@QAE@XZ
   ??1awNumericCacheData@fbxsdk_20102@@UAE@XZ
   ??1awPointCache2IO@fbxsdk_20102@@UAE@XZ
   ??1awPtrCacheData@fbxsdk_20102@@UAE@XZ
   ??1Barrier@awThread@fbxsdk_20102@@QAE@XZ
   ??1BarrierImpl@?A0x6d00b54d@fbxsdk_20102@@QAE@XZ
   ??1BitField@awUtil@fbxsdk_20102@@QAE@XZ
   ??1BitFieldAuto@awUtil@fbxsdk_20102@@QAE@XZ
   ??1CacheGroupBase@awUtil@fbxsdk_20102@@UAE@XZ
   ??1CacheItem@awUtil@fbxsdk_20102@@UAE@XZ
   ??1Cell@KFCurveFilterMatrixConverter@fbxsdk_20102@@QAE@XZ
   ??1ClassTemplateMap@?A0xa88da042@fbxsdk_20102@@QAE@XZ
   ??1Condition@awThread@fbxsdk_20102@@QAE@XZ
   ??1ConditionImpl@awThread@fbxsdk_20102@@QAE@XZ
   ??1connectionItem@SignalBase@awRTB@fbxsdk_20102@@QAE@XZ
   ??1CString@awString@fbxsdk_20102@@UAE@XZ
   ??1CStringImpl@awString@fbxsdk_20102@@QAE@XZ
   ??1DaeUrl@fbxsdk_20102@@QAE@XZ
   ??1Dependency@KFbxProcessorShaderDependency@fbxsdk_20102@@QAE@XZ
   ??1DirectoryIterator@awOS@fbxsdk_20102@@UAE@XZ
   ??1EasyXmlWriter@fbxsdk_20102@@QAE@XZ
   ??1Error@awUtil@fbxsdk_20102@@UAE@XZ
   ??1Fbx5ObjectTypeInfo@fbxsdk_20102@@QAE@XZ
   ??1Fbx6ClassTemplateMap@fbxsdk_20102@@QAE@XZ
   ??1Fbx6ObjectTypeInfo@fbxsdk_20102@@QAE@XZ
   ??1Fbx6TypeDefinition@fbxsdk_20102@@UAE@XZ
   ??1Fbx6TypeDefinitionInfo@fbxsdk_20102@@QAE@XZ
   ??1Fbx6TypeObjectHierarchy@fbxsdk_20102@@UAE@XZ
   ??1Fbx6TypeReadReferenceInfo@fbxsdk_20102@@QAE@XZ
   ??1Fbx6TypeReadReferences@fbxsdk_20102@@UAE@XZ
   ??1Fbx6TypeWriteReferences@fbxsdk_20102@@UAE@XZ
   ??1fbxBlob@fbxsdk_20102@@QAE@XZ
   ??1fbxDistance@fbxsdk_20102@@QAE@XZ
   ??1File@awOS@fbxsdk_20102@@UAE@XZ
   ??1FileFactory@awOS@fbxsdk_20102@@UAE@XZ
   ??1FileFactoryImpl@?A0xefc32dd0@fbxsdk_20102@@UAE@XZ
   ??1FileInformation@Impl@KFbxAssetReader@fbxsdk_20102@@QAE@XZ
   ??1FileInformation@Impl@KFbxAssetWriter@fbxsdk_20102@@QAE@XZ
   ??1Filename@awOS@fbxsdk_20102@@UAE@XZ
   ??1FilenameImpl@?A0xba0fa78e@fbxsdk_20102@@QAE@XZ
   ??1FilePathData@KFbxProcessorShaderDependency@fbxsdk_20102@@QAE@XZ
   ??1FileStatus@awOS@fbxsdk_20102@@QAE@XZ
   ??1Filesystem@awOS@fbxsdk_20102@@QAE@XZ
   ??1FileTransport@awOS@fbxsdk_20102@@UAE@XZ
   ??1FileTransportFactory@awOS@fbxsdk_20102@@UAE@XZ
   ??1FSAllocator@awOS@fbxsdk_20102@@QAE@XZ
   ??1FSAllocatorImpl@?A0xefc851d3@fbxsdk_20102@@QAE@XZ
   ??1Function@KFbxBindingOperator@fbxsdk_20102@@UAE@XZ
   ??1FunctionBase@awRTB@fbxsdk_20102@@UAE@XZ
   ??1FunctionVoid@awRTB@fbxsdk_20102@@UAE@XZ
   ??1GetOpt@awOS@fbxsdk_20102@@QAE@XZ
   ??1GetOptImpl@awOS@fbxsdk_20102@@QAE@XZ
   ??1GlobalCache@awUtil@fbxsdk_20102@@UAE@XZ
   ??1GlobalCacheImpl@?A0x05c75dd8@fbxsdk_20102@@UAE@XZ
   ??1IdleTask@awUtil@fbxsdk_20102@@UAE@XZ
   ??1IdleTasks@awUtil@fbxsdk_20102@@MAE@XZ
   ??1IdleTasksImpl@?A0x7f5057f2@fbxsdk_20102@@UAE@XZ
   ??1ImageConverterBuffer@fbxsdk_20102@@QAE@XZ
   ??1Impl@EasyXmlWriter@fbxsdk_20102@@QAE@XZ
   ??1Impl@KFbxAssetReader@fbxsdk_20102@@QAE@XZ
   ??1Impl@KFbxAssetWriter@fbxsdk_20102@@QAE@XZ
   ??1Impl@KFbxPreviewManager@fbxsdk_20102@@QAE@XZ
   ??1Impl@KFbxUINode@fbxsdk_20102@@QAE@XZ
   ??1Initializer@awUtil@fbxsdk_20102@@UAE@XZ
   ??1IOStream@awOS@fbxsdk_20102@@UAE@XZ
   ??1IString@awString@fbxsdk_20102@@UAE@XZ
   ??1IStringImpl@awString@fbxsdk_20102@@QAE@XZ
   ??1Iterator@?$KHashMap@PAVKFbxLayeredTexture@fbxsdk_20102@@HVLayeredTextureHash@2@V?$NoOpDestruct@H@2@VLayeredTexPtrComparator@KFbxMaterialConverterImpl@2@@fbxsdk_20102@@QAE@XZ
   ??1Iterator@?$KHashMap@VkFbxClassId@fbxsdk_20102@@PAV?$KArrayTemplate@PAVKFbxPreviewGeneratorFactory@fbxsdk_20102@@@2@VClassIdHash@Impl@KFbxPreviewManager@2@V?$PtrDestruct@PAV?$KArrayTemplate@PAVKFbxPreviewGeneratorFactory@fbxsdk_20102@@@fbxsdk_20102@@@2@V?$DefaultComparator@VkFbxClassId@fbxsdk_20102@@@2@@fbxsdk_20102@@QAE@XZ
   ??1Iterator@?$KHashMap@VKString@fbxsdk_20102@@UDependency@KFbxProcessorShaderDependency@2@VKStringHash@42@V?$NoOpDestruct@UDependency@KFbxProcessorShaderDependency@fbxsdk_20102@@@2@V?$DefaultComparator@VKString@fbxsdk_20102@@@2@@fbxsdk_20102@@QAE@XZ
   ??1Iterator@?$KHashMap@VLayerConfig@fbxsdk_20102@@HVLayerConfigHash@2@V?$NoOpDestruct@H@2@V?$DefaultComparator@VLayerConfig@fbxsdk_20102@@@2@@fbxsdk_20102@@QAE@XZ
   ??1Iterator@?$KHashMap@VLayerConfig@fbxsdk_20102@@PAVKFbxSurfaceMaterial@2@VLayerConfigHash@2@V?$NoOpDestruct@PAVKFbxSurfaceMaterial@fbxsdk_20102@@@2@V?$DefaultComparator@VLayerConfig@fbxsdk_20102@@@2@@fbxsdk_20102@@QAE@XZ
   ??1iteratorEntry@DirectoryIterator@awOS@fbxsdk_20102@@QAE@XZ
   ??1KBitSet@fbxsdk_20102@@QAE@XZ
   ??1KBVHJoint@fbxsdk_20102@@QAE@XZ
   ??1KChainedFile@fbxsdk_20102@@UAE@XZ
   ??1KCharPtrSet@fbxsdk_20102@@QAE@XZ
   ??1KConfigFile@fbxsdk_20102@@QAE@XZ
   ??1KConnectionList@KFbxConnectionPoint@fbxsdk_20102@@QAE@XZ
   ??1KCrcFile@fbxsdk_20102@@UAE@XZ
   ??1KDataType@fbxsdk_20102@@UAE@XZ
   ??1KDataTypeAction@fbxsdk_20102@@UAE@XZ
   ??1KDataTypeBool@fbxsdk_20102@@UAE@XZ
   ??1KDataTypeCameraIndex@fbxsdk_20102@@UAE@XZ
   ??1KDataTypeColor@fbxsdk_20102@@UAE@XZ
   ??1KDataTypeColorAndAlpha@fbxsdk_20102@@UAE@XZ
   ??1KDataTypeColorHSB@fbxsdk_20102@@UAE@XZ
   ??1KDataTypeConeAngle@fbxsdk_20102@@UAE@XZ
   ??1KDataTypeEnum@fbxsdk_20102@@UAE@XZ
   ??1KDataTypeFieldOfView@fbxsdk_20102@@UAE@XZ
   ??1KDataTypeFieldOfViewX@fbxsdk_20102@@UAE@XZ
   ??1KDataTypeFieldOfViewY@fbxsdk_20102@@UAE@XZ
   ??1KDataTypeFloat@fbxsdk_20102@@UAE@XZ
   ??1KDataTypeFog@fbxsdk_20102@@UAE@XZ
   ??1KDataTypeIKReachRotation@fbxsdk_20102@@UAE@XZ
   ??1KDataTypeIKReachTranslation@fbxsdk_20102@@UAE@XZ
   ??1KDataTypeInteger@fbxsdk_20102@@UAE@XZ
   ??1KDataTypeIntensity@fbxsdk_20102@@UAE@XZ
   ??1KDataTypeLclQuaternion@fbxsdk_20102@@UAE@XZ
   ??1KDataTypeLclRotation@fbxsdk_20102@@UAE@XZ
   ??1KDataTypeLclScaling@fbxsdk_20102@@UAE@XZ
   ??1KDataTypeLclTranslation@fbxsdk_20102@@UAE@XZ
   ??1KDataTypeLookAt@fbxsdk_20102@@UAE@XZ
   ??1KDataTypeMatrix@fbxsdk_20102@@UAE@XZ
   ??1KDataTypeMatrixRotation@fbxsdk_20102@@UAE@XZ
   ??1KDataTypeMatrixScaling@fbxsdk_20102@@UAE@XZ
   ??1KDataTypeMatrixTransformation@fbxsdk_20102@@UAE@XZ
   ??1KDataTypeMatrixTranslation@fbxsdk_20102@@UAE@XZ
   ??1KDataTypeNumber@fbxsdk_20102@@UAE@XZ
   ??1KDataTypeOcclusion@fbxsdk_20102@@UAE@XZ
   ??1KDataTypeOpticalCenterX@fbxsdk_20102@@UAE@XZ
   ??1KDataTypeOpticalCenterY@fbxsdk_20102@@UAE@XZ
   ??1KDataTypeOrientation@fbxsdk_20102@@UAE@XZ
   ??1KDataTypeQuaternion@fbxsdk_20102@@UAE@XZ
   ??1KDataTypeReal@fbxsdk_20102@@UAE@XZ
   ??1KDataTypeRoll@fbxsdk_20102@@UAE@XZ
   ??1KDataTypeRotation@fbxsdk_20102@@UAE@XZ
   ??1KDataTypeScaling@fbxsdk_20102@@UAE@XZ
   ??1KDataTypeScalingUV@fbxsdk_20102@@UAE@XZ
   ??1KDataTypeShape@fbxsdk_20102@@UAE@XZ
   ??1KDataTypeTime@fbxsdk_20102@@UAE@XZ
   ??1KDataTypeTimeWarp@fbxsdk_20102@@UAE@XZ
   ??1KDataTypeTranslation@fbxsdk_20102@@UAE@XZ
   ??1KDataTypeTranslationUV@fbxsdk_20102@@UAE@XZ
   ??1KDataTypeVector@fbxsdk_20102@@UAE@XZ
   ??1KDataTypeVector4@fbxsdk_20102@@UAE@XZ
   ??1KDataTypeVisibility@fbxsdk_20102@@UAE@XZ
   ??1KDataTypeWeight@fbxsdk_20102@@UAE@XZ
   ??1KDateTime@fbxsdk_20102@@UAE@XZ
   ??1KDefaultRenderResolution@fbxsdk_20102@@QAE@XZ
   ??1KDir@fbxsdk_20102@@QAE@XZ
   ??1KDuplicateVertex@KFbxMesh@fbxsdk_20102@@QAE@XZ
   ??1KEncryptedFile@fbxsdk_20102@@UAE@XZ
   ??1KError@fbxsdk_20102@@QAE@XZ
   ??1KFbx@fbxsdk_20102@@UAE@XZ
   ??1KFbx7FileHeaderInfo@KFbxReaderFbx7Impl@fbxsdk_20102@@UAE@XZ
   ??1KFbxActivationDependency@fbxsdk_20102@@UAE@XZ
   ??1KFbxAddBOF@fbxsdk_20102@@UAE@XZ
   ??1KFbxAsfNode@fbxsdk_20102@@QAE@XZ
   ??1KFbxAsfScene@fbxsdk_20102@@UAE@XZ
   ??1KFbxAsfSceneInterface@fbxsdk_20102@@MAE@XZ
   ??1KFbxAssetBuilder@fbxsdk_20102@@QAE@XZ
   ??1KFbxAssetReader@fbxsdk_20102@@QAE@XZ
   ??1KFbxAssetWriter@fbxsdk_20102@@QAE@XZ
   ??1KFbxAssignBOF@fbxsdk_20102@@UAE@XZ
   ??1KFbxAutoResetXRefManager@KFbx@fbxsdk_20102@@QAE@XZ
   ??1KFbxAutoRevertPropertyChanges@KFbxProcessorXRefCopy@fbxsdk_20102@@QAE@XZ
   ??1KFbxAxisSystem@fbxsdk_20102@@UAE@XZ
   ??1KFbxBase64Decoder@fbxsdk_20102@@QAE@XZ
   ??1KFbxBase64Encoder@fbxsdk_20102@@QAE@XZ
   ??1KFbxBinaryBlobReader@?A0xce6eb6f4@fbxsdk_20102@@UAE@XZ
   ??1KFbxBinaryBlobTarget@?A0xa88da042@fbxsdk_20102@@UAE@XZ
   ??1KFbxBinaryDataReader@?A0xce6eb6f4@fbxsdk_20102@@UAE@XZ
   ??1KFbxBinaryFileReader@?A0xce6eb6f4@fbxsdk_20102@@UAE@XZ
   ??1KFbxBinaryFileTarget@?A0xa88da042@fbxsdk_20102@@UAE@XZ
   ??1KFbxBinaryTarget@?A0xa88da042@fbxsdk_20102@@UAE@XZ
   ??1KFbxBindingOperator@fbxsdk_20102@@UAE@XZ
   ??1KFbxBindingsEntryView@fbxsdk_20102@@UAE@XZ
   ??1KFbxBindingTable@fbxsdk_20102@@UAE@XZ
   ??1KFbxBindingTableBase@fbxsdk_20102@@MAE@XZ
   ??1KFbxBindingTableEntry@fbxsdk_20102@@QAE@XZ
   ??1KFbxBoundary@fbxsdk_20102@@UAE@XZ
   ??1KFbxCache@fbxsdk_20102@@UAE@XZ
   ??1KFbxCache_internal@fbxsdk_20102@@QAE@XZ
   ??1KFbxCamera@fbxsdk_20102@@UAE@XZ
   ??1KFbxCameraManipulator@fbxsdk_20102@@UAE@XZ
   ??1KFbxCameraStereo@fbxsdk_20102@@UAE@XZ
   ??1KFbxCameraSwitcher@fbxsdk_20102@@UAE@XZ
   ??1KFbxCamManip_state@fbxsdk_20102@@QAE@XZ
   ??1KFbxCharacter@fbxsdk_20102@@UAE@XZ
   ??1KFbxCharacterLink@fbxsdk_20102@@QAE@XZ
   ??1KFbxCharacterPose@fbxsdk_20102@@UAE@XZ
   ??1KFbxClassIdInfo@fbxsdk_20102@@QAE@XZ
   ??1KFbxCloneManager@fbxsdk_20102@@UAE@XZ
   ??1KFbxCluster@fbxsdk_20102@@UAE@XZ
   ??1KFbxCollection@fbxsdk_20102@@UAE@XZ
   ??1KFbxCollectionExclusive@fbxsdk_20102@@UAE@XZ
   ??1KFbxColor@fbxsdk_20102@@QAE@XZ
   ??1KFbxComponentMap@KFbxMesh@fbxsdk_20102@@QAE@XZ
   ??1KFbxCondition@fbxsdk_20102@@UAE@XZ
   ??1KFbxConditionalBOF@fbxsdk_20102@@UAE@XZ
   ??1KFbxConnectionPoint@fbxsdk_20102@@UAE@XZ
   ??1KFbxConnectionPointFilter@fbxsdk_20102@@UAE@XZ
   ??1KFbxConstantEntryView@fbxsdk_20102@@UAE@XZ
   ??1KFbxConstraint@fbxsdk_20102@@UAE@XZ
   ??1KFbxConstraintAim@fbxsdk_20102@@UAE@XZ
   ??1KFbxConstraintCustom@fbxsdk_20102@@UAE@XZ
   ??1KFbxConstraintParent@fbxsdk_20102@@UAE@XZ
   ??1KFbxConstraintPosition@fbxsdk_20102@@UAE@XZ
   ??1KFbxConstraintRotation@fbxsdk_20102@@UAE@XZ
   ??1KFbxConstraintScale@fbxsdk_20102@@UAE@XZ
   ??1KFbxConstraintSingleChainIK@fbxsdk_20102@@UAE@XZ
   ??1KFbxContainer@fbxsdk_20102@@UAE@XZ
   ??1KFbxContainerTemplate@fbxsdk_20102@@UAE@XZ
   ??1KFbxControlSet@fbxsdk_20102@@AAE@XZ
   ??1KFbxControlSetLink@fbxsdk_20102@@QAE@XZ
   ??1KFbxControlSetPlug@fbxsdk_20102@@UAE@XZ
   ??1KFbxCriteria@fbxsdk_20102@@QAE@XZ
   ??1KFbxCurrentDirectory@KFbxImpl@KFbxAssetBuilder@fbxsdk_20102@@QAE@XZ
   ??1KFbxDataType@fbxsdk_20102@@QAE@XZ
   ??1KFbxDefaultMemoryAllocator@fbxsdk_20102@@UAE@XZ
   ??1KFbxDefaultTakeCallback@fbxsdk_20102@@QAE@XZ
   ??1KFbxDeformer@fbxsdk_20102@@UAE@XZ
   ??1KFbxDegreeToRadian@fbxsdk_20102@@UAE@XZ
   ??1KFbxDependenciesHelper@fbxsdk_20102@@QAE@XZ
   ??1KFbxDependency@fbxsdk_20102@@UAE@XZ
   ??1KFbxDisplayLayer@fbxsdk_20102@@UAE@XZ
   ??1KFbxDocument@fbxsdk_20102@@UAE@XZ
   ??1KFbxDocumentInfo@fbxsdk_20102@@UAE@XZ
   ??1KFbxDumper@fbxsdk_20102@@QAE@XZ
   ??1KFbxEdgeLookup@KFbxMesh@fbxsdk_20102@@QAE@XZ
   ??1KFbxEmbeddedFileInfo@KFbxEmbeddedFilesAccumulator@fbxsdk_20102@@QAE@XZ
   ??1KFbxEmbeddedFilesAccumulator@fbxsdk_20102@@UAE@XZ
   ??1KFbxEmitter@kfbxevents@fbxsdk_20102@@QAE@XZ
   ??1KFbxEmitterData@KFbxEmitter@kfbxevents@fbxsdk_20102@@QAE@XZ
   ??1KFbxEntryView@fbxsdk_20102@@UAE@XZ
   ??1KFbxEnvironment@fbxsdk_20102@@UAE@XZ
   ??1KFbxEventBase@kfbxevents@fbxsdk_20102@@UAE@XZ
   ??1KFbxEventHandler@kfbxevents@fbxsdk_20102@@UAE@XZ
   ??1KFbxEventPopulateSystemLibrary@fbxsdk_20102@@UAE@XZ
   ??1KFbxEventPostExport@fbxsdk_20102@@UAE@XZ
   ??1KFbxEventPostImport@fbxsdk_20102@@UAE@XZ
   ??1KFbxEventPreExport@fbxsdk_20102@@UAE@XZ
   ??1KFbxEventPreImport@fbxsdk_20102@@UAE@XZ
   ??1KFbxEventReferencedDocument@fbxsdk_20102@@UAE@XZ
   ??1KFbxEventWriteLocalization@fbxsdk_20102@@UAE@XZ
   ??1KFbxExporter@fbxsdk_20102@@UAE@XZ
   ??1KFbxExporterImp@fbxsdk_20102@@QAE@XZ
   ??1KFbxExposureControl@fbxsdk_20102@@UAE@XZ
   ??1KFbxExternalDocRefListener@fbxsdk_20102@@UAE@XZ
   ??1KFbxExternalDocRefListenerData@fbxsdk_20102@@QAE@XZ
   ??1KFbxExternalDocumentInfo@fbxsdk_20102@@QAE@XZ
   ??1KFbxField@fbxsdk_20102@@QAE@XZ
   ??1KFbxFieldInfo@KFbxFieldInstance@fbxsdk_20102@@QAE@XZ
   ??1KFbxFieldInstance@fbxsdk_20102@@QAE@XZ
   ??1KFbxFieldList@fbxsdk_20102@@QAE@XZ
   ??1KFbxFieldZlib@fbxsdk_20102@@QAE@XZ
   ??1KFbxFieldZlibBufferConsumer@fbxsdk_20102@@UAE@XZ
   ??1KFbxFieldZlibConsumer@fbxsdk_20102@@UAE@XZ
   ??1KFbxFieldZlibFileConsumer@fbxsdk_20102@@UAE@XZ
   ??1KFbxFile@fbxsdk_20102@@UAE@XZ
   ??1KFbxFileAcclaimAmc@fbxsdk_20102@@UAE@XZ
   ??1KFbxFileAcclaimAsf@fbxsdk_20102@@UAE@XZ
   ??1KFbxFileAdaptiveOptics@fbxsdk_20102@@UAE@XZ
   ??1KFbxFileBiovision@fbxsdk_20102@@UAE@XZ
   ??1KFbxFileHeaderInfo@fbxsdk_20102@@UAE@XZ
   ??1KFbxFileMotionAnalysisHtr@fbxsdk_20102@@UAE@XZ
   ??1KFbxFileMotionAnalysisTrc@fbxsdk_20102@@UAE@XZ
   ??1KFbxFileVicon@fbxsdk_20102@@UAE@XZ
   ??1KFbxGenericNode@fbxsdk_20102@@UAE@XZ
   ??1KFbxGeometry@fbxsdk_20102@@UAE@XZ
   ??1KFbxGeometryBase@fbxsdk_20102@@UAE@XZ
   ??1KFbxGeometryConverter@fbxsdk_20102@@QAE@XZ
   ??1KFbxGeometryWeightedMap@fbxsdk_20102@@UAE@XZ
   ??1KFbxGlobalCameraSettings@fbxsdk_20102@@AAE@XZ
   ??1KFbxGlobalCameraSettingsProperties@fbxsdk_20102@@QAE@XZ
   ??1KFbxGlobalLightSettings@fbxsdk_20102@@AAE@XZ
   ??1KFbxGlobalLightSettingsProperties@fbxsdk_20102@@QAE@XZ
   ??1KFbxGlobalSettings@fbxsdk_20102@@UAE@XZ
   ??1KFbxGlobalTimeSettings@fbxsdk_20102@@AAE@XZ
   ??1KFbxGlobalTimeSettingsProperties@fbxsdk_20102@@QAE@XZ
   ??1KFbxGobo@fbxsdk_20102@@QAE@XZ
   ??1KFbxImage@fbxsdk_20102@@UAE@XZ
   ??1KFbxImageConverter@fbxsdk_20102@@UAE@XZ
   ??1KFbxImageProcess@fbxsdk_20102@@MAE@XZ
   ??1KFbxImageWidgetPreviewGenerator@fbxsdk_20102@@UAE@XZ
   ??1KFbxImpl@KFbx@fbxsdk_20102@@QAE@XZ
   ??1KFbxImpl@KFbxAssetBuilder@fbxsdk_20102@@QAE@XZ
   ??1KFbxImpl@KFbxFieldZlib@fbxsdk_20102@@QAE@XZ
   ??1KFbxImpl@KFbxLocalizationBuilder@fbxsdk_20102@@QAE@XZ
   ??1KFbxImplementation@fbxsdk_20102@@UAE@XZ
   ??1KFbxImplementationFilter@fbxsdk_20102@@UAE@XZ
   ??1KFbxImporter@fbxsdk_20102@@UAE@XZ
   ??1KFbxImporterImp@fbxsdk_20102@@QAE@XZ
   ??1KFbxInternalFilter@KFbxQuery@fbxsdk_20102@@UAE@XZ
   ??1KFbxIO@fbxsdk_20102@@UAE@XZ
   ??1KFbxIOPluginRegistry@fbxsdk_20102@@UAE@XZ
   ??1KFbxIOSettings@fbxsdk_20102@@UAE@XZ
   ??1KFbxIsYup@fbxsdk_20102@@UAE@XZ
   ??1KFbxIteratorDstBase@fbxsdk_20102@@QAE@XZ
   ??1KFbxIteratorSrcBase@fbxsdk_20102@@QAE@XZ
   ??1KFbxKFCurveFilterConstantKeyReducer@fbxsdk_20102@@UAE@XZ
   ??1KFbxKFCurveFilterMatrixConverter@fbxsdk_20102@@UAE@XZ
   ??1KFbxKFCurveFilterResample@fbxsdk_20102@@UAE@XZ
   ??1KFbxKFCurveFilters@fbxsdk_20102@@UAE@XZ
   ??1KFbxKFCurveFilterTSS@fbxsdk_20102@@UAE@XZ
   ??1KFbxKFCurveFilterUnroll@fbxsdk_20102@@UAE@XZ
   ??1KFbxLayer@fbxsdk_20102@@EAE@XZ
   ??1KFbxLayerContainer@fbxsdk_20102@@UAE@XZ
   ??1KFbxLayeredTexture@fbxsdk_20102@@UAE@XZ
   ??1KFbxLayerElement@fbxsdk_20102@@MAE@XZ
   ??1KFbxLayerElementArray@fbxsdk_20102@@UAE@XZ
   ??1KFbxLayerElementBinormal@fbxsdk_20102@@MAE@XZ
   ??1KFbxLayerElementCrease@fbxsdk_20102@@UAE@XZ
   ??1KFbxLayerElementMaterial@fbxsdk_20102@@MAE@XZ
   ??1KFbxLayerElementNormal@fbxsdk_20102@@MAE@XZ
   ??1KFbxLayerElementPolygonGroup@fbxsdk_20102@@MAE@XZ
   ??1KFbxLayerElementSmoothing@fbxsdk_20102@@UAE@XZ
   ??1KFbxLayerElementTangent@fbxsdk_20102@@MAE@XZ
   ??1KFbxLayerElementTexture@fbxsdk_20102@@UAE@XZ
   ??1KFbxLayerElementUserData@fbxsdk_20102@@MAE@XZ
   ??1KFbxLayerElementUV@fbxsdk_20102@@MAE@XZ
   ??1KFbxLayerElementVertexColor@fbxsdk_20102@@MAE@XZ
   ??1KFbxLayerElementVisibility@fbxsdk_20102@@MAE@XZ
   ??1KFbxLayerEntryView@fbxsdk_20102@@UAE@XZ
   ??1KFbxLibrary@fbxsdk_20102@@UAE@XZ
   ??1KFbxLight@fbxsdk_20102@@UAE@XZ
   ??1KFbxLimits@fbxsdk_20102@@UAE@XZ
   ??1KFbxListener@kfbxevents@fbxsdk_20102@@QAE@XZ
   ??1KFbxLoadingStrategy@fbxsdk_20102@@UAE@XZ
   ??1KFbxLocalization@fbxsdk_20102@@QAE@XZ
   ??1KFbxLocalizationBuilder@fbxsdk_20102@@QAE@XZ
   ??1KFbxLocalizationData@fbxsdk_20102@@QAE@XZ
   ??1KFbxLocalizationManager@fbxsdk_20102@@QAE@XZ
   ??1KFbxLocalizationManagerData@fbxsdk_20102@@QAE@XZ
   ??1KFbxLocalizationReadData@fbxsdk_20102@@QAE@XZ
   ??1KFbxLodGroup@fbxsdk_20102@@UAE@XZ
   ??1KFbxLogBase@fbxsdk_20102@@UAE@XZ
   ??1KFbxLogCallback@fbxsdk_20102@@UAE@XZ
   ??1KFbxLogConsole@fbxsdk_20102@@UAE@XZ
   ??1KFbxLogFile@fbxsdk_20102@@UAE@XZ
   ??1KFbxLogMsg@fbxsdk_20102@@MAE@XZ
   ??1KFbxMarker@fbxsdk_20102@@UAE@XZ
   ??1KFbxMaterialConverter@fbxsdk_20102@@QAE@XZ
   ??1KFbxMaterialConverterImpl@fbxsdk_20102@@QAE@XZ
   ??1KFbxMatrix@fbxsdk_20102@@QAE@XZ
   ??1KFbxMaxConverter@fbxsdk_20102@@QAE@XZ
   ??1KFbxMaxExposureControlConverter@fbxsdk_20102@@QAE@XZ
   ??1KFbxMaxLightConverter@fbxsdk_20102@@QAE@XZ
   ??1KFbxMemoryAllocator@fbxsdk_20102@@UAE@XZ
   ??1KFbxMentalShaderParameterView@fbxsdk_20102@@UAE@XZ
   ??1KFbxMesh@fbxsdk_20102@@UAE@XZ
   ??1KFbxMessage@fbxsdk_20102@@MAE@XZ
   ??1KFbxMessageEmitter@fbxsdk_20102@@UAE@XZ
   ??1KFbxMessageListener@fbxsdk_20102@@UAE@XZ
   ??1KFbxMissingUrlHandler@KFbxProcessorXRefCopy@fbxsdk_20102@@UAE@XZ
   ??1KFbxMissingUrlHandlerAsset@Impl@KFbxAssetWriter@fbxsdk_20102@@UAE@XZ
   ??1KFbxMultiplyBOF@fbxsdk_20102@@UAE@XZ
   ??1KFbxMultiplyDistBOF@fbxsdk_20102@@UAE@XZ
   ??1KFbxMutexData@KFbxMutex@kfbxmp@fbxsdk_20102@@QAE@XZ
   ??1KFbxMutexHelper@kfbxmp@fbxsdk_20102@@QAE@XZ
   ??1KFbxNamedPipe@fbxsdk_20102@@QAE@XZ
   ??1KFbxNamedPipeData@fbxsdk_20102@@QAE@XZ
   ??1KFbxNode@fbxsdk_20102@@UAE@XZ
   ??1KFbxNode_internal@fbxsdk_20102@@QAE@XZ
   ??1KFbxNodeAttribute@fbxsdk_20102@@UAE@XZ
   ??1KFbxNodeDirectionBOF@fbxsdk_20102@@UAE@XZ
   ??1KFbxNodeFinder@fbxsdk_20102@@UAE@XZ
   ??1KFbxNodeFinderDuplicateName@fbxsdk_20102@@UAE@XZ
   ??1KFbxNodeIterator@fbxsdk_20102@@UAE@XZ
   ??1KFbxNodeLimits@fbxsdk_20102@@QAE@XZ
   ??1KFbxNodePositionBOF@fbxsdk_20102@@UAE@XZ
   ??1KFbxNull@fbxsdk_20102@@UAE@XZ
   ??1KFbxNurb@fbxsdk_20102@@UAE@XZ
   ??1KFbxNurbsCurve@fbxsdk_20102@@UAE@XZ
   ??1KFbxNurbsSurface@fbxsdk_20102@@UAE@XZ
   ??1KFBXNURBSurfaceEvaluator@fbxsdk_20102@@UAE@XZ
   ??1KFbxObject@fbxsdk_20102@@UAE@XZ
   ??1KFbxObjectCollapserUndo@KFbxWriterFbx7Impl@fbxsdk_20102@@QAE@XZ
   ??1KFbxObjectFilter@fbxsdk_20102@@UAE@XZ
   ??1KFbxObjectMetaData@fbxsdk_20102@@UAE@XZ
   ??1KFbxObjectPropertyChanged@fbxsdk_20102@@UAE@XZ
   ??1KFbxObjectsContainer@fbxsdk_20102@@UAE@XZ
   ??1KFbxObjectStringMap@fbxsdk_20102@@QAE@XZ
   ??1KFbxObjectThumbnailGenerator@fbxsdk_20102@@UAE@XZ
   ??1KFbxOneOverXBOF@fbxsdk_20102@@UAE@XZ
   ??1KFbxOperatorEntryView@fbxsdk_20102@@UAE@XZ
   ??1KFbxOpticalReference@fbxsdk_20102@@UAE@XZ
   ??1KFbxPatch@fbxsdk_20102@@UAE@XZ
   ??1KFbxPeripheral@fbxsdk_20102@@UAE@XZ
   ??1KFbxPipeForwarder@fbxsdk_20102@@UAE@XZ
   ??1KFbxPipeRetransmitter@fbxsdk_20102@@QAE@XZ
   ??1KFbxPivot@KFbxNode_internal@fbxsdk_20102@@QAE@XZ
   ??1KFbxPivots@KFbxNode_internal@fbxsdk_20102@@QAE@XZ
   ??1KFbxPlug@fbxsdk_20102@@MAE@XZ
   ??1KFbxPlugin@fbxsdk_20102@@QAE@XZ
   ??1KFbxPluginContainer@fbxsdk_20102@@MAE@XZ
   ??1KFbxPluginDefinition@fbxsdk_20102@@QAE@XZ
   ??1KFbxPluginHandle@fbxsdk_20102@@QAE@XZ
   ??1KFbxPose@fbxsdk_20102@@UAE@XZ
   ??1KFbxPoseInfo@fbxsdk_20102@@QAE@XZ
   ??1KFbxPowerBOF@fbxsdk_20102@@UAE@XZ
   ??1KFbxPreviewDescriptor@fbxsdk_20102@@QAE@XZ
   ??1KFbxPreviewGenerator@fbxsdk_20102@@MAE@XZ
   ??1KFbxPreviewGeneratorFactory@fbxsdk_20102@@UAE@XZ
   ??1KFbxPreviewManager@fbxsdk_20102@@QAE@XZ
   ??1KFbxProceduralGeometry@fbxsdk_20102@@UAE@XZ
   ??1KFbxProcessor@fbxsdk_20102@@UAE@XZ
   ??1KFbxProcessorShaderDependency@fbxsdk_20102@@UAE@XZ
   ??1KFbxProcessorXRefCopy@fbxsdk_20102@@UAE@XZ
   ??1KFbxProcessorXRefCopyUserLibrary@fbxsdk_20102@@UAE@XZ
   ??1KFbxProductInfo@fbxsdk_20102@@UAE@XZ
   ??1KFbxProductInfoBuilder@fbxsdk_20102@@UAE@XZ
   ??1KFbxProgressReporter@fbxsdk_20102@@QAE@XZ
   ??1KFbxProperty@fbxsdk_20102@@QAE@XZ
   ??1KFbxPropertyConnect@fbxsdk_20102@@AAE@XZ
   ??1KFbxPropertyEntry@fbxsdk_20102@@AAE@XZ
   ??1KFbxPropertyEntryView@fbxsdk_20102@@UAE@XZ
   ??1KFbxPropertyHandle@fbxsdk_20102@@QAE@XZ
   ??1KFbxPropertyInfo@fbxsdk_20102@@AAE@XZ
   ??1KFbxPropertyNameCache@KFbxProperty@fbxsdk_20102@@QAE@XZ
   ??1KFbxPropertyPage@fbxsdk_20102@@IAE@XZ
   ??1KFbxPropertyUpdate@KFbxProcessorXRefCopy@fbxsdk_20102@@QAE@XZ
   ??1KFbxPropertyUrlIndex@KFbxEmbeddedFilesAccumulator@fbxsdk_20102@@QAE@XZ
   ??1KFbxPropertyValue@fbxsdk_20102@@AAE@XZ
   ??1KFbxQuaternion@fbxsdk_20102@@QAE@XZ
   ??1KFbxQuery@fbxsdk_20102@@MAE@XZ
   ??1KFbxQueryClassId@fbxsdk_20102@@UAE@XZ
   ??1KFbxQueryConnectionType@fbxsdk_20102@@UAE@XZ
   ??1KFbxQueryIsA@fbxsdk_20102@@UAE@XZ
   ??1KFbxQueryOperator@fbxsdk_20102@@MAE@XZ
   ??1KFbxQueryProperty@fbxsdk_20102@@UAE@XZ
   ??1KFbxRawImage@fbxsdk_20102@@UAE@XZ
   ??1KFbxReader@fbxsdk_20102@@UAE@XZ
   ??1KFbxReader3DS@fbxsdk_20102@@UAE@XZ
   ??1KFbxReaderAcclaimAmc@fbxsdk_20102@@UAE@XZ
   ??1KFbxReaderAcclaimAsf@fbxsdk_20102@@UAE@XZ
   ??1KFbxReaderAdaptiveOptics@fbxsdk_20102@@UAE@XZ
   ??1KFbxReaderBiovision@fbxsdk_20102@@UAE@XZ
   ??1KFbxReaderCollada@fbxsdk_20102@@UAE@XZ
   ??1KFbxReaderDxf@fbxsdk_20102@@UAE@XZ
   ??1KFbxReaderFbx@fbxsdk_20102@@UAE@XZ
   ??1KFbxReaderFbx6@fbxsdk_20102@@UAE@XZ
   ??1KFbxReaderFbx7@fbxsdk_20102@@UAE@XZ
   ??1KFbxReaderFbx7Impl@fbxsdk_20102@@QAE@XZ
   ??1KFbxReaderMotionAnalysisHtr@fbxsdk_20102@@UAE@XZ
   ??1KFbxReaderMotionAnalysisTrc@fbxsdk_20102@@UAE@XZ
   ??1KFbxReaderMotionBase@fbxsdk_20102@@UAE@XZ
   ??1KFbxReaderObj@fbxsdk_20102@@UAE@XZ
   ??1KFbxReaderVicon@fbxsdk_20102@@UAE@XZ
   ??1KFbxRecursiveDumper@fbxsdk_20102@@QAE@XZ
   ??1KFbxRenamingStrategy@fbxsdk_20102@@UAE@XZ
   ??1KFbxRenamingStrategyAmc@fbxsdk_20102@@UAE@XZ
   ??1KFbxRenamingStrategyAsf@fbxsdk_20102@@UAE@XZ
   ??1KFbxRenamingStrategyBase@fbxsdk_20102@@UAE@XZ
   ??1KFbxRenamingStrategyBvh@fbxsdk_20102@@UAE@XZ
   ??1KFbxRenamingStrategyC3d@fbxsdk_20102@@UAE@XZ
   ??1KFbxRenamingStrategyFbx5@fbxsdk_20102@@UAE@XZ
   ??1KFbxRenamingStrategyFbx6@fbxsdk_20102@@UAE@XZ
   ??1KFbxRenamingStrategyFbx7@fbxsdk_20102@@UAE@XZ
   ??1KFbxRenamingStrategyHtr@fbxsdk_20102@@UAE@XZ
   ??1KFbxRenamingStrategyMax@fbxsdk_20102@@UAE@XZ
   ??1KFbxRenamingStrategyMaya@fbxsdk_20102@@UAE@XZ
   ??1KFbxRenamingStrategyMotionBuilder@fbxsdk_20102@@UAE@XZ
   ??1KFbxRenamingStrategyTrc@fbxsdk_20102@@UAE@XZ
   ??1KFbxRootNodeUtility@fbxsdk_20102@@IAE@XZ
   ??1KFbxScene@fbxsdk_20102@@UAE@XZ
   ??1KFbxSceneRenamer@fbxsdk_20102@@UAE@XZ
   ??1KFbxScopedLoadingDirectory@fbxsdk_20102@@UAE@XZ
   ??1KFbxScopedLoadingFileName@fbxsdk_20102@@UAE@XZ
   ??1KFbxScriptEvent@fbxsdk_20102@@UAE@XZ
   ??1KFbxSdkManager@fbxsdk_20102@@MAE@XZ
   ??1KFbxSdkManager_internal@fbxsdk_20102@@QAE@XZ
   ??1KFbxSelectionNode@fbxsdk_20102@@UAE@XZ
   ??1KFbxSelectionSet@fbxsdk_20102@@UAE@XZ
   ??1KFbxSemanticEntryView@fbxsdk_20102@@UAE@XZ
   ??1KFbxShadingNode@fbxsdk_20102@@UAE@XZ
   ??1KFbxShadingObject@fbxsdk_20102@@UAE@XZ
   ??1KFbxShadowPlane@KFbxGlobalLightSettings@fbxsdk_20102@@QAE@XZ
   ??1KFbxShape@fbxsdk_20102@@UAE@XZ
   ??1KFbxSkeleton@fbxsdk_20102@@UAE@XZ
   ??1KFbxSkin@fbxsdk_20102@@UAE@XZ
   ??1KFbxSphericalToCartesianBOF@fbxsdk_20102@@UAE@XZ
   ??1KFbxSpotDistributionChooserBOF@fbxsdk_20102@@UAE@XZ
   ??1KFbxState@KFbxNode_internal@fbxsdk_20102@@QAE@XZ
   ??1KFbxStatistics@fbxsdk_20102@@UAE@XZ
   ??1KFbxStatisticsFbx@fbxsdk_20102@@UAE@XZ
   ??1KFbxStream@fbxsdk_20102@@UAE@XZ
   ??1KFbxStreamOptions@fbxsdk_20102@@UAE@XZ
   ??1KFbxStreamOptions3dsReader@fbxsdk_20102@@UAE@XZ
   ??1KFbxStreamOptions3dsWriter@fbxsdk_20102@@UAE@XZ
   ??1KFbxStreamOptionsColladaReader@fbxsdk_20102@@UAE@XZ
   ??1KFbxStreamOptionsColladaWriter@fbxsdk_20102@@UAE@XZ
   ??1KFbxStreamOptionsDxfReader@fbxsdk_20102@@UAE@XZ
   ??1KFbxStreamOptionsDxfWriter@fbxsdk_20102@@UAE@XZ
   ??1KFbxStreamOptionsFbxReader@fbxsdk_20102@@UAE@XZ
   ??1KFbxStreamOptionsFbxWriter@fbxsdk_20102@@UAE@XZ
   ??1KFbxStreamOptionsMotionReader@fbxsdk_20102@@UAE@XZ
   ??1KFbxStreamOptionsMotionWriter@fbxsdk_20102@@UAE@XZ
   ??1KFbxStreamOptionsObjReader@fbxsdk_20102@@UAE@XZ
   ??1KFbxStreamOptionsObjWriter@fbxsdk_20102@@UAE@XZ
   ??1KFbxStringSymbol@fbxsdk_20102@@QAE@XZ
   ??1KFbxSubDeformer@fbxsdk_20102@@UAE@XZ
   ??1KFbxSubdiv@fbxsdk_20102@@UAE@XZ
   ??1KFbxSubstractBOF@fbxsdk_20102@@UAE@XZ
   ??1KFBXSurfaceEvaluator@fbxsdk_20102@@UAE@XZ
   ??1KFbxSurfaceLambert@fbxsdk_20102@@UAE@XZ
   ??1KFbxSurfaceMaterial@fbxsdk_20102@@UAE@XZ
   ??1KFbxSurfacePhong@fbxsdk_20102@@UAE@XZ
   ??1KFbxSwatchScene@fbxsdk_20102@@UAE@XZ
   ??1KFbxSwitchBOF@fbxsdk_20102@@UAE@XZ
   ??1KFbxSymbol@fbxsdk_20102@@QAE@XZ
   ??1KFbxSymbolIDBOF@fbxsdk_20102@@UAE@XZ
   ??1KFbxSymbolTable@fbxsdk_20102@@QAE@XZ
   ??1KFbxSystemUnit@fbxsdk_20102@@QAE@XZ
   ??1KFbxTakeInfo@fbxsdk_20102@@UAE@XZ
   ??1KFbxTakeNode@fbxsdk_20102@@QAE@XZ
   ??1KFbxTakeNodeContainer@fbxsdk_20102@@UAE@XZ
   ??1KFbxTempFileStream@fbxsdk_20102@@UAE@XZ
   ??1KFbxTextFile@fbxsdk_20102@@UAE@XZ
   ??1KFbxTexture@fbxsdk_20102@@UAE@XZ
   ??1KFbxThumbnail@fbxsdk_20102@@UAE@XZ
   ??1KFbxThumbnailGenerator@fbxsdk_20102@@UAE@XZ
   ??1KFbxThumbnailMembers@fbxsdk_20102@@QAE@XZ
   ??1KFbxTiledImage@fbxsdk_20102@@UAE@XZ
   ??1KFbxTimeMarker@KFbxGlobalTimeSettings@fbxsdk_20102@@QAE@XZ
   ??1KFbxTrimNurbsSurface@fbxsdk_20102@@UAE@XZ
   ??1KFbxTRSCache@KFbxNode_internal@fbxsdk_20102@@QAE@XZ
   ??1KFbxTRSToMatrixBOF@fbxsdk_20102@@UAE@XZ
   ??1KFbxUIBuilder@fbxsdk_20102@@UAE@XZ
   ??1KFbxUIDefinition@fbxsdk_20102@@UAE@XZ
   ??1KFbxUIDefinitionBuilder@fbxsdk_20102@@UAE@XZ
   ??1KFbxUIImporter@fbxsdk_20102@@UAE@XZ
   ??1KFbxUIInstance@fbxsdk_20102@@QAE@XZ
   ??1KFbxUINode@fbxsdk_20102@@UAE@XZ
   ??1KFbxUIObject@fbxsdk_20102@@MAE@XZ
   ??1KFbxUIView@fbxsdk_20102@@UAE@XZ
   ??1KFbxUIWidgetDefinition@fbxsdk_20102@@UAE@XZ
   ??1KFbxUnaryQueryOperator@fbxsdk_20102@@MAE@XZ
   ??1KFbxUniqueNameObjectList@fbxsdk_20102@@QAE@XZ
   ??1KFbxUserNotification@fbxsdk_20102@@UAE@XZ
   ??1KFbxUserNotificationFilteredIterator@fbxsdk_20102@@UAE@XZ
   ??1KFbxUserParamEntry@fbxsdk_20102@@QAE@XZ
   ??1KFbxUserParams@fbxsdk_20102@@UAE@XZ
   ??1KFbxVector2@fbxsdk_20102@@QAE@XZ
   ??1KFbxVector4@fbxsdk_20102@@QAE@XZ
   ??1KFbxVectorDegreeToVectorRadian@fbxsdk_20102@@UAE@XZ
   ??1KFbxVertexCacheDeformer@fbxsdk_20102@@UAE@XZ
   ??1KFbxVideo@fbxsdk_20102@@UAE@XZ
   ??1KFbxVisibilityDependency@fbxsdk_20102@@UAE@XZ
   ??1KFbxWeightedMapping@fbxsdk_20102@@QAE@XZ
   ??1KFbxWeightInfo@fbxsdk_20102@@QAE@XZ
   ??1KFbxWriter@fbxsdk_20102@@UAE@XZ
   ??1KFbxWriter3DS@fbxsdk_20102@@UAE@XZ
   ??1KFbxWriterAcclaimAmc@fbxsdk_20102@@UAE@XZ
   ??1KFbxWriterAcclaimAsf@fbxsdk_20102@@UAE@XZ
   ??1KFbxWriterAdaptiveOptics@fbxsdk_20102@@UAE@XZ
   ??1KFbxWriterBiovision@fbxsdk_20102@@UAE@XZ
   ??1KFbxWriterCollada@fbxsdk_20102@@UAE@XZ
   ??1KFbxWriterDxf@fbxsdk_20102@@UAE@XZ
   ??1KFbxWriterFbx@fbxsdk_20102@@UAE@XZ
   ??1KFbxWriterFbx6@fbxsdk_20102@@UAE@XZ
   ??1KFbxWriterFbx7@fbxsdk_20102@@UAE@XZ
   ??1KFbxWriterFbx7Impl@fbxsdk_20102@@QAE@XZ
   ??1KFbxWriterMotionAnalysisHtr@fbxsdk_20102@@UAE@XZ
   ??1KFbxWriterMotionAnalysisTrc@fbxsdk_20102@@UAE@XZ
   ??1KFbxWriterMotionBase@fbxsdk_20102@@UAE@XZ
   ??1KFbxWriterObj@fbxsdk_20102@@UAE@XZ
   ??1KFbxWriterVicon@fbxsdk_20102@@UAE@XZ
   ??1KFbxXMatrix@fbxsdk_20102@@QAE@XZ
   ??1KFbxXRefManager@fbxsdk_20102@@UAE@XZ
   ??1KFCurve@fbxsdk_20102@@UAE@XZ
   ??1KFCurveFilter@fbxsdk_20102@@QAE@XZ
   ??1KFCurveFilterConstantKeyReducer@fbxsdk_20102@@QAE@XZ
   ??1KFCurveFilterGimbleKiller@fbxsdk_20102@@QAE@XZ
   ??1KFCurveFilterKeyReducer@fbxsdk_20102@@QAE@XZ
   ??1KFCurveFilterKeySync@fbxsdk_20102@@QAE@XZ
   ??1KFCurveFilterMatrixConverter@fbxsdk_20102@@QAE@XZ
   ??1KFCurveFilterResample@fbxsdk_20102@@QAE@XZ
   ??1KFCurveFilterTimeShiftAndScale@fbxsdk_20102@@QAE@XZ
   ??1KFCurveFilterUnroll@fbxsdk_20102@@QAE@XZ
   ??1KFCurveNode@fbxsdk_20102@@UAE@XZ
   ??1KFCurveNodeCallback@fbxsdk_20102@@QAE@XZ
   ??1KFCurveNodeCandidateState@fbxsdk_20102@@QAE@XZ
   ??1KFCurveSmartMergeInfos@fbxsdk_20102@@QAE@XZ
   ??1KFile@fbxsdk_20102@@UAE@XZ
   ??1KFilterSetBase@fbxsdk_20102@@QAE@XZ
   ??1KgVector@fbxsdk_20102@@QAE@XZ
   ??1KHungryAllocator@fbxsdk_20102@@QAE@XZ
   ??1KIndexGroup@fbxsdk_20102@@QAE@XZ
   ??1KIScope@fbxsdk_20102@@QAE@XZ
   ??1KKeyValuePair@?$KMap@PAVKFbxObject@fbxsdk_20102@@V?$KSet2@UKFbxPropertyUpdate@KFbxProcessorXRefCopy@fbxsdk_20102@@U?$KFbxLessCompare@UKFbxPropertyUpdate@KFbxProcessorXRefCopy@fbxsdk_20102@@@3@VKBaseAllocator@3@@2@U?$KFbxLessCompare@PAVKFbxObject@fbxsdk_20102@@@2@VKBaseAllocator@2@@fbxsdk_20102@@QAE@XZ
   ??1KKeyValuePair@?$KMap@PAVKFbxObject@fbxsdk_20102@@V?$KSet2@UKFbxPropertyUrlIndex@KFbxEmbeddedFilesAccumulator@fbxsdk_20102@@UKFbxPropertyUrlIndexCompare@23@VKBaseAllocator@3@@2@U?$KFbxLessCompare@PAVKFbxObject@fbxsdk_20102@@@2@VKBaseAllocator@2@@fbxsdk_20102@@QAE@XZ
   ??1KKeyValuePair@?$KMap@V?$KPair@VKString@fbxsdk_20102@@V12@@fbxsdk_20102@@IVKStringPairCompare@2@VKBaseAllocator@2@@fbxsdk_20102@@QAE@XZ
   ??1KKeyValuePair@?$KMap@VKString@fbxsdk_20102@@HVKStringCompare@2@VKBaseAllocator@2@@fbxsdk_20102@@QAE@XZ
   ??1KKeyValuePair@?$KMap@VKString@fbxsdk_20102@@PAVKFbxObject@2@VKFbxMapKStringCompare@2@VKBaseAllocator@2@@fbxsdk_20102@@QAE@XZ
   ??1KKeyValuePair@?$KMap@VKString@fbxsdk_20102@@UKFbxEmbeddedFileInfo@KFbxEmbeddedFilesAccumulator@2@U?$KFbxLessCompare@VKString@fbxsdk_20102@@@2@VKBaseAllocator@2@@fbxsdk_20102@@QAE@XZ
   ??1KKeyValuePair@?$KMap@VKString@fbxsdk_20102@@V12@U?$KFbxLessCompare@VKString@fbxsdk_20102@@@2@VKBaseAllocator@2@@fbxsdk_20102@@QAE@XZ
   ??1KKeyValuePair@?$KMap@VKString@fbxsdk_20102@@VKFbxProperty@2@VKFbxStringCompare@KFbxUIBuilder@2@VKBaseAllocator@2@@fbxsdk_20102@@QAE@XZ
   ??1KLayerInfo@fbxsdk_20102@@QAE@XZ
   ??1KMemoryAllocator@fbxsdk_20102@@QAE@XZ
   ??1KMemoryFile@fbxsdk_20102@@UAE@XZ
   ??1KMemoryPool@fbxsdk_20102@@QAE@XZ
   ??1KMemoryReusePool@fbxsdk_20102@@QAE@XZ
   ??1KMemoryUsageCounter@fbxsdk_20102@@QAE@XZ
   ??1KMpLock@fbxsdk_20102@@QAE@XZ
   ??1KMpMutex@fbxsdk_20102@@QAE@XZ
   ??1KMpStack@fbxsdk_20102@@QAE@XZ
   ??1KMpThread@fbxsdk_20102@@QAE@XZ
   ??1KName@fbxsdk_20102@@QAE@XZ
   ??1KNumberRenamingStrategy@fbxsdk_20102@@UAE@XZ
   ??1KObjFace@fbxsdk_20102@@QAE@XZ
   ??1KObjMaterial@fbxsdk_20102@@QAE@XZ
   ??1KObjMesh@fbxsdk_20102@@QAE@XZ
   ??1KObjSurf@fbxsdk_20102@@QAE@XZ
   ??1KOScope@fbxsdk_20102@@QAE@XZ
   ??1KReferencedCountSet@fbxsdk_20102@@QAE@XZ
   ??1KRegistry@fbxsdk_20102@@QAE@XZ
   ??1KRegistryNT@fbxsdk_20102@@QAE@XZ
   ??1KRenamingStrategy@fbxsdk_20102@@UAE@XZ
   ??1KRenamingStrategy3DS@fbxsdk_20102@@UAE@XZ
   ??1KSet@fbxsdk_20102@@QAE@XZ
   ??1KString@fbxsdk_20102@@QAE@XZ
   ??1KStringList@fbxsdk_20102@@UAE@XZ
   ??1KStringListItem@fbxsdk_20102@@QAE@XZ
   ??1KTextFile@fbxsdk_20102@@UAE@XZ
   ??1KTimeModeList@fbxsdk_20102@@QAE@XZ
   ??1KTypeDefinition@?A0xce6eb6f4@fbxsdk_20102@@UAE@XZ
   ??1KTypeDefinitionInfo@?A0xce6eb6f4@fbxsdk_20102@@QAE@XZ
   ??1KTypeObjectHierarchyInfo@fbxsdk_20102@@QAE@XZ
   ??1KTypeReadReferenceInfo@?A0xa88da042@fbxsdk_20102@@QAE@XZ
   ??1KTypeReadReferences@?A0xa88da042@fbxsdk_20102@@UAE@XZ
   ??1KTypeWriteReferenceInfo@?A0xce6eb6f4@fbxsdk_20102@@QAE@XZ
   ??1KTypeWriteReferenceInfo@fbxsdk_20102@@QAE@XZ
   ??1KTypeWriteReferences@?A0xce6eb6f4@fbxsdk_20102@@UAE@XZ
   ??1KValue@?$KSet2@UKFbxPropertyUpdate@KFbxProcessorXRefCopy@fbxsdk_20102@@U?$KFbxLessCompare@UKFbxPropertyUpdate@KFbxProcessorXRefCopy@fbxsdk_20102@@@3@VKBaseAllocator@3@@fbxsdk_20102@@QAE@XZ
   ??1KValue@?$KSet2@UKFbxPropertyUrlIndex@KFbxEmbeddedFilesAccumulator@fbxsdk_20102@@UKFbxPropertyUrlIndexCompare@23@VKBaseAllocator@3@@fbxsdk_20102@@QAE@XZ
   ??1KValue@?$KSet2@VKString@fbxsdk_20102@@U?$KFbxLessCompare@VKString@fbxsdk_20102@@@2@VKBaseAllocator@2@@fbxsdk_20102@@QAE@XZ
   ??1KViconArray@fbxsdk_20102@@QAE@XZ
   ??1KViconLoaderBase@fbxsdk_20102@@UAE@XZ
   ??1KViconParameter@fbxsdk_20102@@QAE@XZ
   ??1KXRefManagerProject@fbxsdk_20102@@QAE@XZ
   ??1LayerElementArrayImp@fbxsdk_20102@@UAE@XZ
   ??1LayerElementArrayProxy@KFbxLayerElementMaterial@fbxsdk_20102@@UAE@XZ
   ??1LayerElementArrayProxyImp@fbxsdk_20102@@UAE@XZ
   ??1LightAndGoboName@fbxsdk_20102@@QAE@XZ
   ??1ListImpl@aw@fbxsdk_20102@@QAE@XZ
   ??1ListItem@?$KHashMap@PAVKFbxLayeredTexture@fbxsdk_20102@@HVLayeredTextureHash@2@V?$NoOpDestruct@H@2@VLayeredTexPtrComparator@KFbxMaterialConverterImpl@2@@fbxsdk_20102@@QAE@XZ
   ??1ListItem@?$KHashMap@VkFbxClassId@fbxsdk_20102@@PAV?$KArrayTemplate@PAVKFbxPreviewGeneratorFactory@fbxsdk_20102@@@2@VClassIdHash@Impl@KFbxPreviewManager@2@V?$PtrDestruct@PAV?$KArrayTemplate@PAVKFbxPreviewGeneratorFactory@fbxsdk_20102@@@fbxsdk_20102@@@2@V?$DefaultComparator@VkFbxClassId@fbxsdk_20102@@@2@@fbxsdk_20102@@QAE@XZ
   ??1ListItem@?$KHashMap@VKString@fbxsdk_20102@@UDependency@KFbxProcessorShaderDependency@2@VKStringHash@42@V?$NoOpDestruct@UDependency@KFbxProcessorShaderDependency@fbxsdk_20102@@@2@V?$DefaultComparator@VKString@fbxsdk_20102@@@2@@fbxsdk_20102@@QAE@XZ
   ??1ListItem@?$KHashMap@VLayerConfig@fbxsdk_20102@@HVLayerConfigHash@2@V?$NoOpDestruct@H@2@V?$DefaultComparator@VLayerConfig@fbxsdk_20102@@@2@@fbxsdk_20102@@QAE@XZ
   ??1ListItem@?$KHashMap@VLayerConfig@fbxsdk_20102@@PAVKFbxSurfaceMaterial@2@VLayerConfigHash@2@V?$NoOpDestruct@PAVKFbxSurfaceMaterial@fbxsdk_20102@@@2@V?$DefaultComparator@VLayerConfig@fbxsdk_20102@@@2@@fbxsdk_20102@@QAE@XZ
   ??1Locale@awOS@fbxsdk_20102@@QAE@XZ
   ??1LocaleImpl@awOS@fbxsdk_20102@@QAE@XZ
   ??1LocalFileTransport@?A0x422ea402@fbxsdk_20102@@UAE@XZ
   ??1LocalFileTransportFactory@awOS@fbxsdk_20102@@UAE@XZ
   ??1MemMapFile@awOS@fbxsdk_20102@@QAE@XZ
   ??1MemoryBlock@KHungryAllocator@fbxsdk_20102@@QAE@XZ
   ??1ModifiedPropertyInfo@KFbxWriterFbx6@fbxsdk_20102@@QAE@XZ
   ??1Mutex@awThread@fbxsdk_20102@@QAE@XZ
   ??1MutexOp@awThread@fbxsdk_20102@@QAE@XZ
   ??1NameCell@KFbxRenamingStrategy@fbxsdk_20102@@QAE@XZ
   ??1NameCell@KFbxRenamingStrategyBase@fbxsdk_20102@@QAE@XZ
   ??1NameCell@KNumberRenamingStrategy@fbxsdk_20102@@QAE@XZ
   ??1NameCell@KRenamingStrategy3DS@fbxsdk_20102@@QAE@XZ
   ??1NameInfo@KFCurveNode@fbxsdk_20102@@QAE@XZ
   ??1NullPeripheral@fbxsdk_20102@@UAE@XZ
   ??1option@impl@fbxsdk_20102@@UAE@XZ
   ??1Ordering@awUtil@fbxsdk_20102@@QAE@XZ
   ??1OStream@awOS@fbxsdk_20102@@QAE@XZ
   ??1OStreamImpl@?A0xa7eb5a75@fbxsdk_20102@@QAE@XZ
   ??1parse@impl@fbxsdk_20102@@UAE@XZ
   ??1Pool@awThread@fbxsdk_20102@@UAE@XZ
   ??1ProcessManager@awOS@fbxsdk_20102@@MAE@XZ
   ??1ProcessManagerImpl@awOS@fbxsdk_20102@@UAE@XZ
   ??1ProcessManagerWin32Impl@?A0xd873cef0@fbxsdk_20102@@UAE@XZ
   ??1Progress@awUtil@fbxsdk_20102@@QAE@XZ
   ??1ProgressImpl@?A0x88b70b57@fbxsdk_20102@@QAE@XZ
   ??1PropertyAssociation@fbxsdk_20102@@QAE@XZ
   ??1PropInfo@fbxsdk_20102@@QAE@XZ
   ??1ProtectedWrite@awOS@fbxsdk_20102@@QAE@XZ
   ??1RBTreeImpl@aw@fbxsdk_20102@@QAE@XZ
   ??1ReferenceCount@aw@fbxsdk_20102@@MAE@XZ
   ??1result@impl@fbxsdk_20102@@QAE@XZ
   ??1RWLock@awThread@fbxsdk_20102@@QAE@XZ
   ??1SearchPath@awOS@fbxsdk_20102@@QAE@XZ
   ??1Semaphore@awThread@fbxsdk_20102@@QAE@XZ
   ??1SignalBase@awRTB@fbxsdk_20102@@QAE@XZ
   ??1SignalClient@awRTB@fbxsdk_20102@@QAE@XZ
   ??1SignalVoid@awRTB@fbxsdk_20102@@QAE@XZ
   ??1SimpleThreadPool@?A0x24e5c433@fbxsdk_20102@@UAE@XZ
   ??1String@awString@fbxsdk_20102@@UAE@XZ
   ??1SysInfo@awOS@fbxsdk_20102@@QAE@XZ
   ??1TempFilePeripheral@fbxsdk_20102@@UAE@XZ
   ??1Thread@awThread@fbxsdk_20102@@UAE@XZ
   ??1ThreadData@?A0xad0c17e3@fbxsdk_20102@@QAE@XZ
   ??1ThreadedAlg@awUtil@fbxsdk_20102@@UAE@XZ
   ??1ThreadImpl@?A0xad0c17e3@fbxsdk_20102@@QAE@XZ
   ??1ThreadPool@awUtil@fbxsdk_20102@@UAE@XZ
   ??1ThreadPoolImpl@?A0xfd60b238@fbxsdk_20102@@QAE@XZ
   ??1TranslationContext@?A0x97f478f8@fbxsdk_20102@@QAE@XZ
   ??1UnzipFile@fbxsdk_20102@@QAE@XZ
   ??1UnzipOpenCurrentFile@fbxsdk_20102@@QAE@XZ
   ??1URL@awOS@fbxsdk_20102@@QAE@XZ
   ??1VectorImpl@aw@fbxsdk_20102@@QAE@XZ
   ??1XmlNodeMapRemover@KFbxImpl@KFbxAssetBuilder@fbxsdk_20102@@QAE@XZ
   ??2@YAPAXIPAXPBUUseAWInPlaceNew@aw@fbxsdk_20102@@@Z
   ??4?$fbxVectorTemplate2@N@fbxsdk_20102@@QAEAAV01@ABN@Z
   ??4?$fbxVectorTemplate2@N@fbxsdk_20102@@QAEAAV01@ABV01@@Z
   ??4?$fbxVectorTemplate3@N@fbxsdk_20102@@QAEAAV01@ABN@Z
   ??4?$fbxVectorTemplate3@N@fbxsdk_20102@@QAEAAV01@ABV01@@Z
   ??4?$fbxVectorTemplate3@N@fbxsdk_20102@@QAEAAV01@H@Z
   ??4?$fbxVectorTemplate4@N@fbxsdk_20102@@QAEAAV01@ABV?$fbxVectorTemplate3@N@1@@Z
   ??4?$fbxVectorTemplate4@N@fbxsdk_20102@@QAEAAV01@ABV01@@Z
   ??4?$fbxVectorTemplate4@N@fbxsdk_20102@@QAEAAV01@H@Z
   ??4?$fbxVectorTemplate4@V?$fbxVectorTemplate4@N@fbxsdk_20102@@@fbxsdk_20102@@QAEAAV01@ABV01@@Z
   ??4?$fbxVectorTemplate4@V?$fbxVectorTemplate4@N@fbxsdk_20102@@@fbxsdk_20102@@QAEAAV01@H@Z
   ??4?$KArrayTemplate@H@fbxsdk_20102@@QAEAAV01@ABV01@@Z
   ??4?$KArrayTemplate@I@fbxsdk_20102@@QAEAAV01@ABV01@@Z
   ??4?$KArrayTemplate@M@fbxsdk_20102@@QAEAAV01@ABV01@@Z
   ??4?$KArrayTemplate@N@fbxsdk_20102@@QAEAAV01@ABV01@@Z
   ??4?$KArrayTemplate@PAD@fbxsdk_20102@@QAEAAV01@ABV01@@Z
   ??4?$KArrayTemplate@PAH@fbxsdk_20102@@QAEAAV01@ABV01@@Z
   ??4?$KArrayTemplate@PAI@fbxsdk_20102@@QAEAAV01@ABV01@@Z
   ??4?$KArrayTemplate@PAM@fbxsdk_20102@@QAEAAV01@ABV01@@Z
   ??4?$KArrayTemplate@PAN@fbxsdk_20102@@QAEAAV01@ABV01@@Z
   ??4?$KArrayTemplate@PAU_xmlNode@fbxsdk_20102@@@fbxsdk_20102@@QAEAAV01@ABV01@@Z
   ??4?$KArrayTemplate@PAV?$KArrayTemplate@UKElement@KFbxWeightedMapping@fbxsdk_20102@@@fbxsdk_20102@@@fbxsdk_20102@@QAEAAV01@ABV01@@Z
   ??4?$KArrayTemplate@PAVKFbxCluster@fbxsdk_20102@@@fbxsdk_20102@@QAEAAV01@ABV01@@Z
   ??4?$KArrayTemplate@PAVKFbxNode@fbxsdk_20102@@@fbxsdk_20102@@QAEAAV01@ABV01@@Z
   ??4?$KArrayTemplate@PAVKFbxProductInfo@fbxsdk_20102@@@fbxsdk_20102@@QAEAAV01@ABV01@@Z
   ??4?$KArrayTemplate@PAVKFbxTakeInfo@fbxsdk_20102@@@fbxsdk_20102@@QAEAAV01@ABV01@@Z
   ??4?$KArrayTemplate@PAVKFCurve@fbxsdk_20102@@@fbxsdk_20102@@QAEAAV01@ABV01@@Z
   ??4?$KArrayTemplate@PAVKString@fbxsdk_20102@@@fbxsdk_20102@@QAEAAV01@ABV01@@Z
   ??4?$KArrayTemplate@PAVKStringListItem@fbxsdk_20102@@@fbxsdk_20102@@QAEAAV01@ABV01@@Z
   ??4?$KArrayTemplate@PAX@fbxsdk_20102@@QAEAAV01@ABV01@@Z
   ??4?$KArrayTemplate@PBVKFbxLayerElementUV@fbxsdk_20102@@@fbxsdk_20102@@QAEAAV01@ABV01@@Z
   ??4?$KArrayTemplate@PBVKFbxPlugin@fbxsdk_20102@@@fbxsdk_20102@@QAEAAV01@ABV01@@Z
   ??4?$KArrayTemplate@UKFbxPolygon@KFbxMesh@fbxsdk_20102@@@fbxsdk_20102@@QAEAAV01@ABV01@@Z
   ??4?$KArrayTemplate@UKFbxShadowPlane@KFbxGlobalLightSettings@fbxsdk_20102@@@fbxsdk_20102@@QAEAAV01@ABV01@@Z
   ??4?$KArrayTemplate@VKFbxDataType@fbxsdk_20102@@@fbxsdk_20102@@QAEAAV01@ABV01@@Z
   ??4?$KArrayTemplate@VKFbxProperty@fbxsdk_20102@@@fbxsdk_20102@@QAEAAV01@ABV01@@Z
   ??4?$KArrayTemplate@VKFbxVector2@fbxsdk_20102@@@fbxsdk_20102@@QAEAAV01@ABV01@@Z
   ??4?$KArrayTemplate@VKFbxVector4@fbxsdk_20102@@@fbxsdk_20102@@QAEAAV01@ABV01@@Z
   ??4?$KArrayTemplate@W4ELayerElementType@KFbxLayerElement@fbxsdk_20102@@@fbxsdk_20102@@QAEAAV01@ABV01@@Z
   ??4?$KDynamicArray@VKFbxBindingTableEntry@fbxsdk_20102@@VKBaseAllocator@2@@fbxsdk_20102@@QAEAAV01@ABV01@@Z
   ??4?$KFbxLayerElementArrayTemplate@_N@fbxsdk_20102@@QAEAAV01@ABV01@@Z
   ??4?$KFbxLayerElementArrayTemplate@H@fbxsdk_20102@@QAEAAV01@ABV01@@Z
   ??4?$KFbxLayerElementArrayTemplate@N@fbxsdk_20102@@QAEAAV01@ABV01@@Z
   ??4?$KFbxLayerElementArrayTemplate@PAVKFbxSurfaceMaterial@fbxsdk_20102@@@fbxsdk_20102@@QAEAAV01@ABV01@@Z
   ??4?$KFbxLayerElementArrayTemplate@PAVKFbxTexture@fbxsdk_20102@@@fbxsdk_20102@@QAEAAV01@ABV01@@Z
   ??4?$KFbxLayerElementArrayTemplate@VKFbxColor@fbxsdk_20102@@@fbxsdk_20102@@QAEAAV01@ABV01@@Z
   ??4?$KFbxLayerElementArrayTemplate@VKFbxVector2@fbxsdk_20102@@@fbxsdk_20102@@QAEAAV01@ABV01@@Z
   ??4?$KFbxLayerElementArrayTemplate@VKFbxVector4@fbxsdk_20102@@@fbxsdk_20102@@QAEAAV01@ABV01@@Z
   ??4?$KFbxLayerElementTemplate@_N@fbxsdk_20102@@QAEAAV01@ABV01@@Z
   ??4?$KFbxLayerElementTemplate@H@fbxsdk_20102@@QAEAAV01@ABV01@@Z
   ??4?$KFbxLayerElementTemplate@N@fbxsdk_20102@@QAEAAV01@ABV01@@Z
   ??4?$KFbxLayerElementTemplate@PAVKFbxSurfaceMaterial@fbxsdk_20102@@@fbxsdk_20102@@QAEAAV01@ABV01@@Z
   ??4?$KFbxLayerElementTemplate@PAVKFbxTexture@fbxsdk_20102@@@fbxsdk_20102@@QAEAAV01@ABV01@@Z
   ??4?$KFbxLayerElementTemplate@VKFbxColor@fbxsdk_20102@@@fbxsdk_20102@@QAEAAV01@ABV01@@Z
   ??4?$KFbxLayerElementTemplate@VKFbxVector2@fbxsdk_20102@@@fbxsdk_20102@@QAEAAV01@ABV01@@Z
   ??4?$KFbxLayerElementTemplate@VKFbxVector4@fbxsdk_20102@@@fbxsdk_20102@@QAEAAV01@ABV01@@Z
   ??4?$KFbxTypedProperty@_N@fbxsdk_20102@@QAEAAV01@AB_N@Z
   ??4?$KFbxTypedProperty@_N@fbxsdk_20102@@QAEAAV01@ABV01@@Z
   ??4?$KFbxTypedProperty@H@fbxsdk_20102@@QAEAAV01@ABV01@@Z
   ??4?$KFbxTypedProperty@N@fbxsdk_20102@@QAEAAV01@ABN@Z
   ??4?$KFbxTypedProperty@N@fbxsdk_20102@@QAEAAV01@ABV01@@Z
   ??4?$KFbxTypedProperty@PAVfbxReference@fbxsdk_20102@@@fbxsdk_20102@@QAEAAV01@ABV01@@Z
   ??4?$KFbxTypedProperty@V?$fbxVectorTemplate2@N@fbxsdk_20102@@@fbxsdk_20102@@QAEAAV01@ABV01@@Z
   ??4?$KFbxTypedProperty@V?$fbxVectorTemplate3@N@fbxsdk_20102@@@fbxsdk_20102@@QAEAAV01@ABV01@@Z
   ??4?$KFbxTypedProperty@VfbxDateTime@fbxsdk_20102@@@fbxsdk_20102@@QAEAAV01@ABV01@@Z
   ??4?$KFbxTypedProperty@VfbxReference@fbxsdk_20102@@@fbxsdk_20102@@QAEAAV01@ABV01@@Z
   ??4?$KFbxTypedProperty@VKString@fbxsdk_20102@@@fbxsdk_20102@@QAEAAV01@ABV01@@Z
   ??4?$KFbxTypedProperty@VKString@fbxsdk_20102@@@fbxsdk_20102@@QAEAAV01@ABVKString@1@@Z
   ??4?$KFbxTypedProperty@VKTime@fbxsdk_20102@@@fbxsdk_20102@@QAEAAV01@ABV01@@Z
   ??4?$KFbxTypedProperty@W4ComponentEncoding@KFbxImagePixelFormat@fbxsdk_20102@@@fbxsdk_20102@@QAEAAV01@ABV01@@Z
   ??4?$KFbxTypedProperty@W4EAccessMode@KFbxVideo@fbxsdk_20102@@@fbxsdk_20102@@QAEAAV01@ABV01@@Z
   ??4?$KFbxTypedProperty@W4EBlendMode@KFbxTexture@fbxsdk_20102@@@fbxsdk_20102@@QAEAAV01@ABV01@@Z
   ??4?$KFbxTypedProperty@W4ECameraAntialiasingMethod@KFbxCamera@fbxsdk_20102@@@fbxsdk_20102@@QAEAAV01@ABV01@@Z
   ??4?$KFbxTypedProperty@W4ECameraApertureFormat@KFbxCamera@fbxsdk_20102@@@fbxsdk_20102@@QAEAAV01@ABV01@@Z
   ??4?$KFbxTypedProperty@W4ECameraApertureFormat@KFbxCamera@fbxsdk_20102@@@fbxsdk_20102@@QAEAAV01@ABW4ECameraApertureFormat@KFbxCamera@1@@Z
   ??4?$KFbxTypedProperty@W4ECameraApertureMode@KFbxCamera@fbxsdk_20102@@@fbxsdk_20102@@QAEAAV01@ABV01@@Z
   ??4?$KFbxTypedProperty@W4ECameraApertureMode@KFbxCamera@fbxsdk_20102@@@fbxsdk_20102@@QAEAAV01@ABW4ECameraApertureMode@KFbxCamera@1@@Z
   ??4?$KFbxTypedProperty@W4ECameraAspectRatioMode@KFbxCamera@fbxsdk_20102@@@fbxsdk_20102@@QAEAAV01@ABV01@@Z
   ??4?$KFbxTypedProperty@W4ECameraAspectRatioMode@KFbxCamera@fbxsdk_20102@@@fbxsdk_20102@@QAEAAV01@ABW4ECameraAspectRatioMode@KFbxCamera@1@@Z
   ??4?$KFbxTypedProperty@W4ECameraFilmRollOrder@KFbxCamera@fbxsdk_20102@@@fbxsdk_20102@@QAEAAV01@ABV01@@Z
   ??4?$KFbxTypedProperty@W4ECameraFocusDistanceSource@KFbxCamera@fbxsdk_20102@@@fbxsdk_20102@@QAEAAV01@ABV01@@Z
   ??4?$KFbxTypedProperty@W4ECameraFormat@KFbxCamera@fbxsdk_20102@@@fbxsdk_20102@@QAEAAV01@ABV01@@Z
   ??4?$KFbxTypedProperty@W4ECameraFormat@KFbxCamera@fbxsdk_20102@@@fbxsdk_20102@@QAEAAV01@ABW4ECameraFormat@KFbxCamera@1@@Z
   ??4?$KFbxTypedProperty@W4ECameraFrontBackPlaneDisplayMode@KFbxCamera@fbxsdk_20102@@@fbxsdk_20102@@QAEAAV01@ABV01@@Z
   ??4?$KFbxTypedProperty@W4ECameraFrontBackPlaneDisplayMode@KFbxCamera@fbxsdk_20102@@@fbxsdk_20102@@QAEAAV01@ABW4ECameraFrontBackPlaneDisplayMode@KFbxCamera@1@@Z
   ??4?$KFbxTypedProperty@W4ECameraFrontBackPlaneDistanceMode@KFbxCamera@fbxsdk_20102@@@fbxsdk_20102@@QAEAAV01@ABV01@@Z
   ??4?$KFbxTypedProperty@W4ECameraFrontBackPlaneDistanceMode@KFbxCamera@fbxsdk_20102@@@fbxsdk_20102@@QAEAAV01@ABW4ECameraFrontBackPlaneDistanceMode@KFbxCamera@1@@Z
   ??4?$KFbxTypedProperty@W4ECameraGateFit@KFbxCamera@fbxsdk_20102@@@fbxsdk_20102@@QAEAAV01@ABV01@@Z
   ??4?$KFbxTypedProperty@W4ECameraProjectionType@KFbxCamera@fbxsdk_20102@@@fbxsdk_20102@@QAEAAV01@ABV01@@Z
   ??4?$KFbxTypedProperty@W4ECameraSafeAreaStyle@KFbxCamera@fbxsdk_20102@@@fbxsdk_20102@@QAEAAV01@ABV01@@Z
   ??4?$KFbxTypedProperty@W4ECameraSamplingType@KFbxCamera@fbxsdk_20102@@@fbxsdk_20102@@QAEAAV01@ABV01@@Z
   ??4?$KFbxTypedProperty@W4ECameraStereo@KFbxCameraStereo@fbxsdk_20102@@@fbxsdk_20102@@QAEAAV01@ABV01@@Z
   ??4?$KFbxTypedProperty@W4EDecayType@KFbxLight@fbxsdk_20102@@@fbxsdk_20102@@QAEAAV01@ABV01@@Z
   ??4?$KFbxTypedProperty@W4EInterlaceMode@KFbxVideo@fbxsdk_20102@@@fbxsdk_20102@@QAEAAV01@ABV01@@Z
   ??4?$KFbxTypedProperty@W4ELightType@KFbxLight@fbxsdk_20102@@@fbxsdk_20102@@QAEAAV01@ABV01@@Z
   ??4?$KFbxTypedProperty@W4ELook@KFbxMarker@fbxsdk_20102@@@fbxsdk_20102@@QAEAAV01@ABV01@@Z
   ??4?$KFbxTypedProperty@W4ELook@KFbxNull@fbxsdk_20102@@@fbxsdk_20102@@QAEAAV01@ABV01@@Z
   ??4?$KFbxTypedProperty@W4ERotationOrder@fbxsdk_20102@@@fbxsdk_20102@@QAEAAV01@ABV01@@Z
   ??4?$KFbxTypedProperty@W4ETextureUse6@KFbxTexture@fbxsdk_20102@@@fbxsdk_20102@@QAEAAV01@ABV01@@Z
   ??4?$KFbxTypedProperty@W4ETransformInheritType@fbxsdk_20102@@@fbxsdk_20102@@QAEAAV01@ABV01@@Z
   ??4?$KFbxTypedProperty@W4EType@KFbxControlSet@fbxsdk_20102@@@fbxsdk_20102@@QAEAAV01@ABV01@@Z
   ??4?$KFbxTypedProperty@W4EUnifiedMappingType@KFbxTexture@fbxsdk_20102@@@fbxsdk_20102@@QAEAAV01@ABV01@@Z
   ??4?$KFbxTypedProperty@W4EWrapMode@KFbxTexture@fbxsdk_20102@@@fbxsdk_20102@@QAEAAV01@ABV01@@Z
   ??4?$KFbxTypedProperty@W4kCharacterAutoUser@fbxsdk_20102@@@fbxsdk_20102@@QAEAAV01@ABV01@@Z
   ??4?$KFbxTypedProperty@W4kCharacterContactBehaviour@fbxsdk_20102@@@fbxsdk_20102@@QAEAAV01@ABV01@@Z
   ??4?$KFbxTypedProperty@W4kCharacterFingerContactMode@fbxsdk_20102@@@fbxsdk_20102@@QAEAAV01@ABV01@@Z
   ??4?$KFbxTypedProperty@W4kCharacterFloorPivot@fbxsdk_20102@@@fbxsdk_20102@@QAEAAV01@ABV01@@Z
   ??4?$KFbxTypedProperty@W4kCharacterFootContactType@fbxsdk_20102@@@fbxsdk_20102@@QAEAAV01@ABV01@@Z
   ??4?$KFbxTypedProperty@W4kCharacterHandContactType@fbxsdk_20102@@@fbxsdk_20102@@QAEAAV01@ABV01@@Z
   ??4?$KFbxTypedProperty@W4kCharacterHipsTranslationMode@fbxsdk_20102@@@fbxsdk_20102@@QAEAAV01@ABV01@@Z
   ??4?$KFbxTypedProperty@W4kCharacterOffAutoUser@fbxsdk_20102@@@fbxsdk_20102@@QAEAAV01@ABV01@@Z
   ??4?$KFbxTypedProperty@W4kCharacterPosture@fbxsdk_20102@@@fbxsdk_20102@@QAEAAV01@ABV01@@Z
   ??4?$KFbxTypedProperty@W4kCharacterRollExtractionMode@fbxsdk_20102@@@fbxsdk_20102@@QAEAAV01@ABV01@@Z
   ??4?$KFbxTypedProperty@W4PixelEncoding@KFbxImagePixelFormat@fbxsdk_20102@@@fbxsdk_20102@@QAEAAV01@ABV01@@Z
   ??4?$KPair@HH@fbxsdk_20102@@QAEAAV01@ABV01@@Z
   ??4?$KPair@PAVKFbxLayerElementUV@fbxsdk_20102@@_N@fbxsdk_20102@@QAEAAV01@ABV01@@Z
   ??4?$Reference@Vparse@impl@fbxsdk_20102@@@aw@fbxsdk_20102@@QAEXABV012@@Z
   ??4?$vector@VIString@awString@fbxsdk_20102@@@aw@fbxsdk_20102@@QAEAAV012@ABV012@@Z
   ??4awCachePerChannelInfo@fbxsdk_20102@@QAEAAV01@ABV01@@Z
   ??4awIffTag@fbxsdk_20102@@QAEAAV01@ABV01@@Z
   ??4BitField@awUtil@fbxsdk_20102@@QAEAAV012@ABV012@@Z
   ??4BitFieldAuto@awUtil@fbxsdk_20102@@QAEAAV012@ABV012@@Z
   ??4CString@awString@fbxsdk_20102@@QAEAAV012@ABV012@@Z
   ??4Dependency@KFbxProcessorShaderDependency@fbxsdk_20102@@QAEAAU012@ABU012@@Z
   ??4DoubleQuotesPair@fbxsdk_20102@@QAEAAV01@ABV01@@Z
   ??4Error@awUtil@fbxsdk_20102@@QAEAAV012@ABV012@@Z
   ??4fbxBlob@fbxsdk_20102@@QAEAAV01@ABV01@@Z
   ??4fbxDistance@fbxsdk_20102@@QAEAAV01@ABV01@@Z
   ??4fbxHalfFloat@fbxsdk_20102@@QAEAAV01@ABV01@@Z
   ??4Filename@awOS@fbxsdk_20102@@QAEAAV012@ABV012@@Z
   ??4Filename@awOS@fbxsdk_20102@@QAEAAV012@ABVIString@awString@2@@Z
   ??4IString@awString@fbxsdk_20102@@QAEAAV012@ABV012@@Z
   ??4Iterator@?$KHashMap@VKString@fbxsdk_20102@@UDependency@KFbxProcessorShaderDependency@2@VKStringHash@42@V?$NoOpDestruct@UDependency@KFbxProcessorShaderDependency@fbxsdk_20102@@@2@V?$DefaultComparator@VKString@fbxsdk_20102@@@2@@fbxsdk_20102@@QAEAAV012@ABV012@@Z
   ??4Iterator@?$KHashMap@VLayerConfig@fbxsdk_20102@@HVLayerConfigHash@2@V?$NoOpDestruct@H@2@V?$DefaultComparator@VLayerConfig@fbxsdk_20102@@@2@@fbxsdk_20102@@QAEAAV012@ABV012@@Z
   ??4KDateTime@fbxsdk_20102@@QAEAAV01@ABV01@@Z
   ??4KDefaultRenderResolution@fbxsdk_20102@@QAEAAV01@ABV01@@Z
   ??4KError@fbxsdk_20102@@QAEAAV01@ABV01@@Z
   ??4KFbxAxisSystem@fbxsdk_20102@@QAEAAV01@ABV01@@Z
   ??4KFbxBindingOperator@fbxsdk_20102@@QAEAAV01@ABV01@@Z
   ??4KFbxBindingTable@fbxsdk_20102@@QAEAAV01@ABV01@@Z
   ??4KFbxBindingTableBase@fbxsdk_20102@@QAEAAV01@ABV01@@Z
   ??4KFbxBindingTableEntry@fbxsdk_20102@@QAEAAV01@ABV01@@Z
   ??4KFbxBoundary@fbxsdk_20102@@IAEAAV01@ABV01@@Z
   ??4KFbxCache@fbxsdk_20102@@QAEAAV01@ABV01@@Z
   ??4KFbxCamera@fbxsdk_20102@@IAEAAV01@ABV01@@Z
   ??4KFbxCameraManipulator@fbxsdk_20102@@QAEAAV01@ABV01@@Z
   ??4KFbxCameraStereo@fbxsdk_20102@@IAEAAV01@ABV01@@Z
   ??4KFbxCameraSwitcher@fbxsdk_20102@@IAEAAV01@ABV01@@Z
   ??4KFbxCharacter@fbxsdk_20102@@IAEAAV01@ABV01@@Z
   ??4KFbxCharacterLink@fbxsdk_20102@@QAEAAV01@ABV01@@Z
   ??4KFbxCharacterPose@fbxsdk_20102@@IAEAAV01@ABV01@@Z
   ??4KFbxCluster@fbxsdk_20102@@QAEAAV01@ABV01@@Z
   ??4KFbxCollection@fbxsdk_20102@@QAEAAV01@ABV01@@Z
   ??4KFbxColor@fbxsdk_20102@@QAEAAV01@ABV01@@Z
   ??4KFbxConstraint@fbxsdk_20102@@QAEAAV01@ABV01@@Z
   ??4KFbxConstraintAim@fbxsdk_20102@@QAEAAV01@ABV01@@Z
   ??4KFbxConstraintCustom@fbxsdk_20102@@QAEAAV01@ABV01@@Z
   ??4KFbxConstraintParent@fbxsdk_20102@@QAEAAV01@ABV01@@Z
   ??4KFbxConstraintPosition@fbxsdk_20102@@QAEAAV01@ABV01@@Z
   ??4KFbxConstraintRotation@fbxsdk_20102@@QAEAAV01@ABV01@@Z
   ??4KFbxConstraintScale@fbxsdk_20102@@QAEAAV01@ABV01@@Z
   ??4KFbxConstraintSingleChainIK@fbxsdk_20102@@QAEAAV01@ABV01@@Z
   ??4KFbxControlSetLink@fbxsdk_20102@@QAEAAV01@ABV01@@Z
   ??4KFbxControlSetPlug@fbxsdk_20102@@QAEAAV01@ABV01@@Z
   ??4KFbxDataType@fbxsdk_20102@@QAEAAV01@ABV01@@Z
   ??4KFbxDeformer@fbxsdk_20102@@QAEAAV01@ABV01@@Z
   ??4KFbxDocument@fbxsdk_20102@@IAEAAV01@ABV01@@Z
   ??4KFbxDocumentInfo@fbxsdk_20102@@QAEAAV01@ABV01@@Z
   ??4KFbxEffector@fbxsdk_20102@@QAEAAV01@AAV01@@Z
   ??4KFbxEnvironment@fbxsdk_20102@@QAEAAV01@ABV01@@Z
   ??4KFbxExposureControl@fbxsdk_20102@@QAEAAV01@ABV01@@Z
   ??4KFbxGenericNode@fbxsdk_20102@@QAEAAV01@ABV01@@Z
   ??4KFbxGeometry@fbxsdk_20102@@IAEAAV01@ABV01@@Z
   ??4KFbxGeometryBase@fbxsdk_20102@@IAEAAV01@ABV01@@Z
   ??4KFbxGeometryWeightedMap@fbxsdk_20102@@QAEAAV01@ABV01@@Z
   ??4KFbxGlobalCameraSettings@fbxsdk_20102@@QAEABV01@ABV01@@Z
   ??4KFbxGlobalLightSettings@fbxsdk_20102@@QAEABV01@ABV01@@Z
   ??4KFbxGlobalSettings@fbxsdk_20102@@QAEABV01@ABV01@@Z
   ??4KFbxGlobalTimeSettings@fbxsdk_20102@@QAEABV01@ABV01@@Z
   ??4KFbxImageConverter@fbxsdk_20102@@IAEAAV01@ABV01@@Z
   ??4KFbxImplementation@fbxsdk_20102@@MAEAAV01@ABV01@@Z
   ??4KFbxIOSettings@fbxsdk_20102@@QAEAAV01@ABV01@@Z
   ??4KFbxLayerContainer@fbxsdk_20102@@IAEAAV01@ABV01@@Z
   ??4KFbxLayeredTexture@fbxsdk_20102@@MAEAAV01@ABV01@@Z
   ??4KFbxLayerElement@fbxsdk_20102@@QAEAAV01@ABV01@@Z
   ??4KFbxLayerElementBinormal@fbxsdk_20102@@QAEAAV01@ABV01@@Z
   ??4KFbxLayerElementCrease@fbxsdk_20102@@QAEAAV01@ABV01@@Z
   ??4KFbxLayerElementMaterial@fbxsdk_20102@@QAEAAV01@ABV01@@Z
   ??4KFbxLayerElementNormal@fbxsdk_20102@@QAEAAV01@ABV01@@Z
   ??4KFbxLayerElementPolygonGroup@fbxsdk_20102@@QAEAAV01@ABV01@@Z
   ??4KFbxLayerElementSmoothing@fbxsdk_20102@@QAEAAV01@ABV01@@Z
   ??4KFbxLayerElementTangent@fbxsdk_20102@@QAEAAV01@ABV01@@Z
   ??4KFbxLayerElementTexture@fbxsdk_20102@@QAEAAV01@ABV01@@Z
   ??4KFbxLayerElementUserData@fbxsdk_20102@@QAEAAV01@ABV01@@Z
   ??4KFbxLayerElementUV@fbxsdk_20102@@QAEAAV01@ABV01@@Z
   ??4KFbxLayerElementVertexColor@fbxsdk_20102@@QAEAAV01@ABV01@@Z
   ??4KFbxLayerElementVisibility@fbxsdk_20102@@QAEAAV01@ABV01@@Z
   ??4KFbxLibrary@fbxsdk_20102@@QAEAAV01@ABV01@@Z
   ??4KFbxLight@fbxsdk_20102@@IAEAAV01@ABV01@@Z
   ??4KFbxLimits@fbxsdk_20102@@QAEAAV01@ABV01@@Z
   ??4KFbxLodGroup@fbxsdk_20102@@IAEAAV01@ABV01@@Z
   ??4KFbxMarker@fbxsdk_20102@@IAEAAV01@ABV01@@Z
   ??4KFbxMatrix@fbxsdk_20102@@QAEAAV01@ABV01@@Z
   ??4KFbxMesh@fbxsdk_20102@@IAEAAV01@ABV01@@Z
   ??4KFbxNode@fbxsdk_20102@@IAEAAV01@ABV01@@Z
   ??4KFbxNodeAttribute@fbxsdk_20102@@IAEAAV01@ABV01@@Z
   ??4KFbxNodeLimits@fbxsdk_20102@@QAEAAV01@ABV01@@Z
   ??4KFbxNull@fbxsdk_20102@@IAEAAV01@ABV01@@Z
   ??4KFbxNurb@fbxsdk_20102@@IAEAAV01@ABV01@@Z
   ??4KFbxNurbsCurve@fbxsdk_20102@@IAEAAV01@ABV01@@Z
   ??4KFbxNurbsSurface@fbxsdk_20102@@IAEAAV01@ABV01@@Z
   ??4KFbxObject@fbxsdk_20102@@IAEAAV01@ABV01@@Z
   ??4KFbxObjectMetaData@fbxsdk_20102@@IAEAAV01@ABV01@@Z
   ??4KFbxOpticalReference@fbxsdk_20102@@IAEAAV01@ABV01@@Z
   ??4KFbxPatch@fbxsdk_20102@@IAEAAV01@ABV01@@Z
   ??4KFbxPlug@fbxsdk_20102@@QAEAAV01@ABV01@@Z
   ??4KFbxPose@fbxsdk_20102@@IAEAAV01@ABV01@@Z
   ??4KFbxPreviewDescriptor@fbxsdk_20102@@QAEAAV01@ABV01@@Z
   ??4KFbxProceduralGeometry@fbxsdk_20102@@QAEAAV01@ABV01@@Z
   ??4KFbxProcessor@fbxsdk_20102@@QAEAAV01@ABV01@@Z
   ??4KFbxProcessorShaderDependency@fbxsdk_20102@@IAEAAV01@ABV01@@Z
   ??4KFbxProcessorXRefCopy@fbxsdk_20102@@IAEAAV01@ABV01@@Z
   ??4KFbxProcessorXRefCopyUserLibrary@fbxsdk_20102@@QAEAAV01@ABV01@@Z
   ??4KFbxProperty@fbxsdk_20102@@QAEAAV01@ABV01@@Z
   ??4KFbxPropertyFlags@fbxsdk_20102@@QAEAAV01@ABV01@@Z
   ??4KFbxPropertyHandle@fbxsdk_20102@@QAEAAV01@ABV01@@Z
   ??4KFbxQuaternion@fbxsdk_20102@@QAEAAV01@ABV01@@Z
   ??4KFbxScene@fbxsdk_20102@@AAEAAV01@ABV01@@Z
   ??4KFbxShadingObject@fbxsdk_20102@@QAEAAV01@ABV01@@Z
   ??4KFbxShape@fbxsdk_20102@@IAEAAV01@ABV01@@Z
   ??4KFbxSkeleton@fbxsdk_20102@@IAEAAV01@ABV01@@Z
   ??4KFbxSkin@fbxsdk_20102@@IAEAAV01@ABV01@@Z
   ??4KFbxStatistics@fbxsdk_20102@@QAEAAV01@ABV01@@Z
   ??4KFbxStringSymbol@fbxsdk_20102@@QAEAAV01@PBD@Z
   ??4KFbxSurfaceLambert@fbxsdk_20102@@IAEAAV01@ABV01@@Z
   ??4KFbxSurfaceMaterial@fbxsdk_20102@@IAEAAV01@ABV01@@Z
   ??4KFbxSurfacePhong@fbxsdk_20102@@IAEAAV01@ABV01@@Z
   ??4KFbxSwatchScene@fbxsdk_20102@@QAEAAV01@ABV01@@Z
   ??4KFbxTakeInfo@fbxsdk_20102@@QAEAAV01@ABV01@@Z
   ??4KFbxTakeNodeContainer@fbxsdk_20102@@IAEAAV01@ABV01@@Z
   ??4KFbxTexture@fbxsdk_20102@@IAEAAV01@ABV01@@Z
   ??4KFbxThumbnail@fbxsdk_20102@@MAEAAV01@ABV01@@Z
   ??4KFbxTimeMarker@KFbxGlobalTimeSettings@fbxsdk_20102@@QAEAAU012@ABU012@@Z
   ??4KFbxTrimNurbsSurface@fbxsdk_20102@@IAEAAV01@ABV01@@Z
   ??4KFbxUIDefinition@fbxsdk_20102@@QAEAAV01@ABV01@@Z
   ??4KFbxUIObject@fbxsdk_20102@@IAEAAV01@ABV01@@Z
   ??4KFbxUIWidgetDefinition@fbxsdk_20102@@QAEAAV01@ABV01@@Z
   ??4KFbxVector2@fbxsdk_20102@@QAEAAV01@ABV01@@Z
   ??4KFbxVector4@fbxsdk_20102@@QAEAAV01@ABV?$fbxVectorTemplate3@N@1@@Z
   ??4KFbxVector4@fbxsdk_20102@@QAEAAV01@ABV01@@Z
   ??4KFbxVector4@fbxsdk_20102@@QAEAAV01@PBN@Z
   ??4KFbxVertexCacheDeformer@fbxsdk_20102@@QAEAAV01@ABV01@@Z
   ??4KFbxVideo@fbxsdk_20102@@QAEAAV01@ABV01@@Z
   ??4KFbxWeightedMapping@fbxsdk_20102@@QAEAAV01@ABV01@@Z
   ??4KFbxXMatrix@fbxsdk_20102@@QAEAAV01@ABV01@@Z
   ??4KFbxXMatrix@fbxsdk_20102@@QAEAAV01@ABVKgeAMatrix@1@@Z
   ??4KFCurveKey@fbxsdk_20102@@QAEAAV01@ABV01@@Z
   ??4KgeAMatrix@fbxsdk_20102@@QAEAAV01@ABV01@@Z
   ??4KgeAMatrix@fbxsdk_20102@@QAEAAV01@QAY03$$CBN@Z
   ??4KgeQuaternion@fbxsdk_20102@@QAEAAV01@QBN@Z
   ??4KgeRMatrix@fbxsdk_20102@@QAEAAV01@ABV01@@Z
   ??4KgeRMatrix@fbxsdk_20102@@QAEAAV01@QAY03$$CBN@Z
   ??4KgeRVector@fbxsdk_20102@@QAEAAV01@ABV01@@Z
   ??4KgeRVector@fbxsdk_20102@@QAEAAV01@QBN@Z
   ??4KgeSVector@fbxsdk_20102@@QAEAAV01@QBN@Z
   ??4KgeTVector@fbxsdk_20102@@QAEAAV01@ABV01@@Z
   ??4KgeTVector@fbxsdk_20102@@QAEAAV01@QBN@Z
   ??4KgVector@fbxsdk_20102@@QAEAAV01@ABV01@@Z
   ??4KIndexGroup@fbxsdk_20102@@QAEAAV01@ABV01@@Z
   ??4KMBLimit@fbxsdk_20102@@QAEAAV01@ABV01@@Z
   ??4KMBRotationSpace@fbxsdk_20102@@QAEAAV01@ABV01@@Z
   ??4KMBTransform@fbxsdk_20102@@QAEAAV01@ABV01@@Z
   ??4KName@fbxsdk_20102@@QAEAAV01@ABV01@@Z
   ??4KSet@fbxsdk_20102@@QAEABV01@ABV01@@Z
   ??4KString@fbxsdk_20102@@QAEABV01@ABV01@@Z
   ??4KString@fbxsdk_20102@@QAEABV01@D@Z
   ??4KString@fbxsdk_20102@@QAEABV01@H@Z
   ??4KString@fbxsdk_20102@@QAEABV01@M@Z
   ??4KString@fbxsdk_20102@@QAEABV01@N@Z
   ??4KString@fbxsdk_20102@@QAEABV01@PBD@Z
   ??4KStringList@fbxsdk_20102@@QAEAAV01@ABV01@@Z
   ??4KTime@fbxsdk_20102@@QAEAAV01@ABV01@@Z
   ??4KTimeSpan@fbxsdk_20102@@QAEAAV01@ABV01@@Z
   ??4KViconArray@fbxsdk_20102@@QAE_J_J@Z
   ??4KViconArray@fbxsdk_20102@@QAE_K_K@Z
   ??4KViconArray@fbxsdk_20102@@QAECC@Z
   ??4KViconArray@fbxsdk_20102@@QAEDD@Z
   ??4KViconArray@fbxsdk_20102@@QAEEE@Z
   ??4KViconArray@fbxsdk_20102@@QAEFF@Z
   ??4KViconArray@fbxsdk_20102@@QAEGG@Z
   ??4KViconArray@fbxsdk_20102@@QAEHH@Z
   ??4KViconArray@fbxsdk_20102@@QAEII@Z
   ??4KViconArray@fbxsdk_20102@@QAEMM@Z
   ??4KViconArray@fbxsdk_20102@@QAENN@Z
   ??4ReferenceCount@aw@fbxsdk_20102@@QAEAAV012@ABV012@@Z
   ??6OStream@awOS@fbxsdk_20102@@QAEAAV012@ABVCString@awString@2@@Z
   ??6OStream@awOS@fbxsdk_20102@@QAEAAV012@D@Z
   ??6OStream@awOS@fbxsdk_20102@@QAEAAV012@E@Z
   ??6OStream@awOS@fbxsdk_20102@@QAEAAV012@F@Z
   ??6OStream@awOS@fbxsdk_20102@@QAEAAV012@G@Z
   ??6OStream@awOS@fbxsdk_20102@@QAEAAV012@H@Z
   ??6OStream@awOS@fbxsdk_20102@@QAEAAV012@I@Z
   ??6OStream@awOS@fbxsdk_20102@@QAEAAV012@J@Z
   ??6OStream@awOS@fbxsdk_20102@@QAEAAV012@K@Z
   ??6OStream@awOS@fbxsdk_20102@@QAEAAV012@M@Z
   ??6OStream@awOS@fbxsdk_20102@@QAEAAV012@N@Z
   ??6OStream@awOS@fbxsdk_20102@@QAEAAV012@PBD@Z
   ??6OStream@awOS@fbxsdk_20102@@QAEAAV012@PBX@Z
   ??7?$KScopedPtr@VKMemoryAllocator@fbxsdk_20102@@V?$DefaultDeletionPolicy@VKMemoryAllocator@fbxsdk_20102@@@2@@fbxsdk_20102@@QBE_NXZ
   ??7?$KScopedPtr@VKString@fbxsdk_20102@@V?$DeletionPolicy@VKString@fbxsdk_20102@@@2@@fbxsdk_20102@@QBE_NXZ
   ??7?$KScopedPtr@VKStringList@fbxsdk_20102@@V?$DefaultDeletionPolicy@VKStringList@fbxsdk_20102@@@2@@fbxsdk_20102@@QBE_NXZ
   ??7KFbxCriteria@fbxsdk_20102@@QBE?AV01@XZ
   ??7UnzipFile@fbxsdk_20102@@QBE_NXZ
   ??7UnzipOpenCurrentFile@fbxsdk_20102@@QBE_NXZ
   ??8?$fbxVectorTemplate2@N@fbxsdk_20102@@QBE_NABV01@@Z
   ??8?$fbxVectorTemplate3@N@fbxsdk_20102@@QBE_NABV01@@Z
   ??8?$fbxVectorTemplate4@N@fbxsdk_20102@@QBE_NABV01@@Z
   ??8?$fbxVectorTemplate4@V?$fbxVectorTemplate4@N@fbxsdk_20102@@@fbxsdk_20102@@QBE_NABV01@@Z
   ??8?$KFbxLayerElementTemplate@VKFbxVector2@fbxsdk_20102@@@fbxsdk_20102@@QBE_NABV01@@Z
   ??8?$KSet2@PAVKFbxObject@fbxsdk_20102@@U?$KFbxLessCompare@PAVKFbxObject@fbxsdk_20102@@@2@VKBaseAllocator@2@@fbxsdk_20102@@QBE_NABV01@@Z
   ??8?A0xefc851d3@fbxsdk_20102@@YA_NABUMemoryBlock@01@0@Z
   ??8awIffTag@fbxsdk_20102@@QBE_NABV01@@Z
   ??8awString@fbxsdk_20102@@YA_N_WABVIString@01@@Z
   ??8awString@fbxsdk_20102@@YA_NABVCString@01@0@Z
   ??8awString@fbxsdk_20102@@YA_NABVCString@01@PBD@Z
   ??8awString@fbxsdk_20102@@YA_NABVIString@01@_W@Z
   ??8awString@fbxsdk_20102@@YA_NABVIString@01@0@Z
   ??8awString@fbxsdk_20102@@YA_NABVIString@01@PB_W@Z
   ??8awString@fbxsdk_20102@@YA_NABVIString@01@PBD@Z
   ??8BitField@awUtil@fbxsdk_20102@@QBE_NABV012@@Z
   ??8BitFieldAuto@awUtil@fbxsdk_20102@@QBE_NABV012@@Z
   ??8const_iterator@?$list@V?$Reference@VIdleTask@awUtil@fbxsdk_20102@@@aw@fbxsdk_20102@@@aw@fbxsdk_20102@@QBE_NABV0123@@Z
   ??8const_iterator@?$list@VIString@awString@fbxsdk_20102@@@aw@fbxsdk_20102@@QBE_NABV0123@@Z
   ??8const_iterator@?$rbtree@V?$Reference@VIdleTask@awUtil@fbxsdk_20102@@@aw@fbxsdk_20102@@Viterator@?$list@V?$Reference@VIdleTask@awUtil@fbxsdk_20102@@@aw@fbxsdk_20102@@@23@U?$less@V?$Reference@VIdleTask@awUtil@fbxsdk_20102@@@aw@fbxsdk_20102@@@23@@aw@fbxsdk_20102@@QBE_NABV0123@@Z
   ??8Error@awUtil@fbxsdk_20102@@QAE_NABV012@@Z
   ??8fbxBlob@fbxsdk_20102@@QBE_NABV01@@Z
   ??8fbxDateTime@fbxsdk_20102@@QBE_NABV01@@Z
   ??8fbxDistance@fbxsdk_20102@@QBE_NABV01@@Z
   ??8fbxHalfFloat@fbxsdk_20102@@QBE_NABV01@@Z
   ??8Interval@awUtil@fbxsdk_20102@@QBE_NABV012@@Z
   ??8IntrusiveListConstIterator@?$KIntrusiveList@VKFbxPlugin@fbxsdk_20102@@$0A@@fbxsdk_20102@@QBE_NABV012@@Z
   ??8IntrusiveListIterator@?$KIntrusiveList@VKFbxEventHandler@kfbxevents@fbxsdk_20102@@$00@fbxsdk_20102@@QBE_NABV012@@Z
   ??8IntrusiveListIterator@?$KIntrusiveList@VKFbxEventHandler@kfbxevents@fbxsdk_20102@@$0A@@fbxsdk_20102@@QBE_NABV012@@Z
   ??8IntrusiveListIterator@?$KIntrusiveList@VKFbxPlugin@fbxsdk_20102@@$0A@@fbxsdk_20102@@QBE_NABV012@@Z
   ??8IntrusiveListIterator@?$KIntrusiveList@VKFbxPluginHandle@fbxsdk_20102@@$0A@@fbxsdk_20102@@QBE_NABV012@@Z
   ??8Iterator@?$KHashMap@PAVKFbxLayeredTexture@fbxsdk_20102@@HVLayeredTextureHash@2@V?$NoOpDestruct@H@2@VLayeredTexPtrComparator@KFbxMaterialConverterImpl@2@@fbxsdk_20102@@QBE_NABV012@@Z
   ??8Iterator@?$KHashMap@VkFbxClassId@fbxsdk_20102@@PAV?$KArrayTemplate@PAVKFbxPreviewGeneratorFactory@fbxsdk_20102@@@2@VClassIdHash@Impl@KFbxPreviewManager@2@V?$PtrDestruct@PAV?$KArrayTemplate@PAVKFbxPreviewGeneratorFactory@fbxsdk_20102@@@fbxsdk_20102@@@2@V?$DefaultComparator@VkFbxClassId@fbxsdk_20102@@@2@@fbxsdk_20102@@QBE_NABV012@@Z
   ??8Iterator@?$KHashMap@VKString@fbxsdk_20102@@UDependency@KFbxProcessorShaderDependency@2@VKStringHash@42@V?$NoOpDestruct@UDependency@KFbxProcessorShaderDependency@fbxsdk_20102@@@2@V?$DefaultComparator@VKString@fbxsdk_20102@@@2@@fbxsdk_20102@@QBE_NABV012@@Z
   ??8Iterator@?$KHashMap@VLayerConfig@fbxsdk_20102@@HVLayerConfigHash@2@V?$NoOpDestruct@H@2@V?$DefaultComparator@VLayerConfig@fbxsdk_20102@@@2@@fbxsdk_20102@@QBE_NABV012@@Z
   ??8Iterator@?$KHashMap@VLayerConfig@fbxsdk_20102@@PAVKFbxSurfaceMaterial@2@VLayerConfigHash@2@V?$NoOpDestruct@PAVKFbxSurfaceMaterial@fbxsdk_20102@@@2@V?$DefaultComparator@VLayerConfig@fbxsdk_20102@@@2@@fbxsdk_20102@@QBE_NABV012@@Z
   ??8KDateTime@fbxsdk_20102@@QBE_NABV01@@Z
   ??8KFbxAxis@KFbxAxisSystem@fbxsdk_20102@@QBE_NABV012@@Z
   ??8KFbxAxisSystem@fbxsdk_20102@@QBE_NABV01@@Z
   ??8kFbxClassId@fbxsdk_20102@@QBE_NABV01@@Z
   ??8KFbxColor@fbxsdk_20102@@QAE_NABV01@@Z
   ??8KFbxDataType@fbxsdk_20102@@QBE_NABV01@@Z
   ??8KFbxImagePixelFormat@fbxsdk_20102@@QBE_NABV01@@Z
   ??8KFbxLayeredTexture@fbxsdk_20102@@QBE_NABV01@@Z
   ??8KFbxLayerElement@fbxsdk_20102@@QBE_NABV01@@Z
   ??8KFbxLinkToCharacter@KFbxNode_internal@fbxsdk_20102@@QAE_NAAV012@@Z
   ??8KFbxMatrix@fbxsdk_20102@@QBE_NABV01@@Z
   ??8KFbxMatrix@fbxsdk_20102@@QBE_NABVKFbxXMatrix@1@@Z
   ??8KFbxPreviewDescriptor@fbxsdk_20102@@QBE_NABV01@@Z
   ??8KFbxProperty@fbxsdk_20102@@QBE_NABV01@@Z
   ??8KFbxProperty@fbxsdk_20102@@QBE_NH@Z
   ??8KFbxPropertyHandle@fbxsdk_20102@@QBE_NABV01@@Z
   ??8KFbxQuaternion@fbxsdk_20102@@QBE_NABV01@@Z
   ??8KFbxSurfaceMaterial@fbxsdk_20102@@QBE_NABV01@@Z
   ??8KFbxSymbol@fbxsdk_20102@@QBE_NABV01@@Z
   ??8KFbxSystemUnit@fbxsdk_20102@@QBE_NABV01@@Z
   ??8KFbxTexture@fbxsdk_20102@@QBE_NABV01@@Z
   ??8KFbxUIInstance@fbxsdk_20102@@QAE_NABV01@@Z
   ??8KFbxVector2@fbxsdk_20102@@QBE_NABV01@@Z
   ??8KFbxVector4@fbxsdk_20102@@QBE_NABV01@@Z
   ??8KFbxXMatrix@fbxsdk_20102@@QBE_NABV01@@Z
   ??8KgVector@fbxsdk_20102@@QBEHABV01@@Z
   ??8KIndexGroup@fbxsdk_20102@@QAE_NABV01@@Z
   ??8KString@fbxsdk_20102@@QBE_NABV01@@Z
   ??8KString@fbxsdk_20102@@QBE_NPBD@Z
   ??8KTime@fbxsdk_20102@@QBE_NABV01@@Z
   ??8LayerConfig@fbxsdk_20102@@QBE_NABV01@@Z
   ??9?$KSet2@PAVKFbxObject@fbxsdk_20102@@U?$KFbxLessCompare@PAVKFbxObject@fbxsdk_20102@@@2@VKBaseAllocator@2@@fbxsdk_20102@@QBE_NABV01@@Z
   ??9awIffTag@fbxsdk_20102@@QBE_NABV01@@Z
   ??9awString@fbxsdk_20102@@YA_NABVCString@01@0@Z
   ??9awString@fbxsdk_20102@@YA_NABVCString@01@PBD@Z
   ??9awString@fbxsdk_20102@@YA_NABVIString@01@0@Z
   ??9awString@fbxsdk_20102@@YA_NABVIString@01@PB_W@Z
   ??9const_iterator@?$list@V?$pair@PAVInitializer@awUtil@fbxsdk_20102@@PAV123@@aw@fbxsdk_20102@@@aw@fbxsdk_20102@@QBE_NABV0123@@Z
   ??9const_iterator@?$list@VIString@awString@fbxsdk_20102@@@aw@fbxsdk_20102@@QBE_NABV0123@@Z
   ??9const_iterator@?$rbtree@DV?$Reference@Vparse@impl@fbxsdk_20102@@@aw@fbxsdk_20102@@U?$less@D@23@@aw@fbxsdk_20102@@QBE_NABV0123@@Z
   ??9const_iterator@?$rbtree@KPA_NU?$less@K@aw@fbxsdk_20102@@@aw@fbxsdk_20102@@QBE_NABV0123@@Z
   ??9const_iterator@?$rbtree@V?$Reference@VIdleTask@awUtil@fbxsdk_20102@@@aw@fbxsdk_20102@@Viterator@?$list@V?$Reference@VIdleTask@awUtil@fbxsdk_20102@@@aw@fbxsdk_20102@@@23@U?$less@V?$Reference@VIdleTask@awUtil@fbxsdk_20102@@@aw@fbxsdk_20102@@@23@@aw@fbxsdk_20102@@QBE_NABV0123@@Z
   ??9const_iterator@?$rbtree@VCString@awString@fbxsdk_20102@@HU?$less@VCString@awString@fbxsdk_20102@@@aw@3@@aw@fbxsdk_20102@@QBE_NABV0123@@Z
   ??9Error@awUtil@fbxsdk_20102@@QAE_NABV012@@Z
   ??9fbxsdk_20102@@YA_NABVKgeTVector@0@ABVKFbxVector4@0@@Z
   ??9IntrusiveListConstIterator@?$KIntrusiveList@VKFbxPlugin@fbxsdk_20102@@$0A@@fbxsdk_20102@@QBE_NABV012@@Z
   ??9IntrusiveListIterator@?$KIntrusiveList@VKFbxEventHandler@kfbxevents@fbxsdk_20102@@$00@fbxsdk_20102@@QBE_NABV012@@Z
   ??9IntrusiveListIterator@?$KIntrusiveList@VKFbxEventHandler@kfbxevents@fbxsdk_20102@@$0A@@fbxsdk_20102@@QBE_NABV012@@Z
   ??9IntrusiveListIterator@?$KIntrusiveList@VKFbxPlugin@fbxsdk_20102@@$0A@@fbxsdk_20102@@QBE_NABV012@@Z
   ??9IntrusiveListIterator@?$KIntrusiveList@VKFbxPluginHandle@fbxsdk_20102@@$0A@@fbxsdk_20102@@QBE_NABV012@@Z
   ??9Iterator@?$KHashMap@PAVKFbxLayeredTexture@fbxsdk_20102@@HVLayeredTextureHash@2@V?$NoOpDestruct@H@2@VLayeredTexPtrComparator@KFbxMaterialConverterImpl@2@@fbxsdk_20102@@QBE_NABV012@@Z
   ??9Iterator@?$KHashMap@VkFbxClassId@fbxsdk_20102@@PAV?$KArrayTemplate@PAVKFbxPreviewGeneratorFactory@fbxsdk_20102@@@2@VClassIdHash@Impl@KFbxPreviewManager@2@V?$PtrDestruct@PAV?$KArrayTemplate@PAVKFbxPreviewGeneratorFactory@fbxsdk_20102@@@fbxsdk_20102@@@2@V?$DefaultComparator@VkFbxClassId@fbxsdk_20102@@@2@@fbxsdk_20102@@QBE_NABV012@@Z
   ??9Iterator@?$KHashMap@VKString@fbxsdk_20102@@UDependency@KFbxProcessorShaderDependency@2@VKStringHash@42@V?$NoOpDestruct@UDependency@KFbxProcessorShaderDependency@fbxsdk_20102@@@2@V?$DefaultComparator@VKString@fbxsdk_20102@@@2@@fbxsdk_20102@@QBE_NABV012@@Z
   ??9Iterator@?$KHashMap@VLayerConfig@fbxsdk_20102@@HVLayerConfigHash@2@V?$NoOpDestruct@H@2@V?$DefaultComparator@VLayerConfig@fbxsdk_20102@@@2@@fbxsdk_20102@@QBE_NABV012@@Z
   ??9Iterator@?$KHashMap@VLayerConfig@fbxsdk_20102@@PAVKFbxSurfaceMaterial@2@VLayerConfigHash@2@V?$NoOpDestruct@PAVKFbxSurfaceMaterial@fbxsdk_20102@@@2@V?$DefaultComparator@VLayerConfig@fbxsdk_20102@@@2@@fbxsdk_20102@@QBE_NABV012@@Z
   ??9KDateTime@fbxsdk_20102@@QBE_NABV01@@Z
   ??9KFbxAxisSystem@fbxsdk_20102@@QBE_NABV01@@Z
   ??9KFbxColor@fbxsdk_20102@@QAE_NABV01@@Z
   ??9KFbxDataType@fbxsdk_20102@@QBE_NABV01@@Z
   ??9KFbxMatrix@fbxsdk_20102@@QBE_NABV01@@Z
   ??9KFbxMatrix@fbxsdk_20102@@QBE_NABVKFbxXMatrix@1@@Z
   ??9KFbxProperty@fbxsdk_20102@@QBE_NABV01@@Z
   ??9KFbxProperty@fbxsdk_20102@@QBE_NH@Z
   ??9KFbxPropertyHandle@fbxsdk_20102@@QBE_NABV01@@Z
   ??9KFbxQuaternion@fbxsdk_20102@@QBE_NABV01@@Z
   ??9KFbxSymbol@fbxsdk_20102@@QBE_NABV01@@Z
   ??9KFbxSystemUnit@fbxsdk_20102@@QBE_NABV01@@Z
   ??9KFbxVector2@fbxsdk_20102@@QBE_NABV01@@Z
   ??9KFbxVector4@fbxsdk_20102@@QBE_NABV01@@Z
   ??9KFbxXMatrix@fbxsdk_20102@@QBE_NABV01@@Z
   ??9KgVector@fbxsdk_20102@@QBEHABV01@@Z
   ??9KIndexGroup@fbxsdk_20102@@QAE_NABV01@@Z
   ??9KString@fbxsdk_20102@@QBE_NABV01@@Z
   ??9KString@fbxsdk_20102@@QBE_NPBD@Z
   ??9KTime@fbxsdk_20102@@QBE_NABV01@@Z
   ??9KTimeSpan@fbxsdk_20102@@QAE_NAAV01@@Z
   ??A?$fbxVectorTemplate2@N@fbxsdk_20102@@QBEABNH@Z
   ??A?$fbxVectorTemplate3@N@fbxsdk_20102@@QAEAANH@Z
   ??A?$fbxVectorTemplate3@N@fbxsdk_20102@@QBEABNH@Z
   ??A?$fbxVectorTemplate4@N@fbxsdk_20102@@QAEAANH@Z
   ??A?$fbxVectorTemplate4@N@fbxsdk_20102@@QBEABNH@Z
   ??A?$fbxVectorTemplate4@V?$fbxVectorTemplate4@N@fbxsdk_20102@@@fbxsdk_20102@@QAEAAV?$fbxVectorTemplate4@N@1@H@Z
   ??A?$fbxVectorTemplate4@V?$fbxVectorTemplate4@N@fbxsdk_20102@@@fbxsdk_20102@@QBEABV?$fbxVectorTemplate4@N@1@H@Z
   ??A?$KArrayTemplate@_N@fbxsdk_20102@@QBEAA_NH@Z
   ??A?$KArrayTemplate@H@fbxsdk_20102@@QBEAAHH@Z
   ??A?$KArrayTemplate@I@fbxsdk_20102@@QBEAAIH@Z
   ??A?$KArrayTemplate@M@fbxsdk_20102@@QBEAAMH@Z
   ??A?$KArrayTemplate@N@fbxsdk_20102@@QBEAANH@Z
   ??A?$KArrayTemplate@PA_W@fbxsdk_20102@@QBEAAPA_WH@Z
   ??A?$KArrayTemplate@PAD@fbxsdk_20102@@QBEAAPADH@Z
   ??A?$KArrayTemplate@PAH@fbxsdk_20102@@QBEAAPAHH@Z
   ??A?$KArrayTemplate@PAI@fbxsdk_20102@@QBEAAPAIH@Z
   ??A?$KArrayTemplate@PAM@fbxsdk_20102@@QBEAAPAMH@Z
   ??A?$KArrayTemplate@PAN@fbxsdk_20102@@QBEAAPANH@Z
   ??A?$KArrayTemplate@PAU_xmlNode@fbxsdk_20102@@@fbxsdk_20102@@QBEAAPAU_xmlNode@1@H@Z
   ??A?$KArrayTemplate@PAUFbx6TypeReadReferenceInfo@fbxsdk_20102@@@fbxsdk_20102@@QBEAAPAUFbx6TypeReadReferenceInfo@1@H@Z
   ??A?$KArrayTemplate@PAUKFbxTimeMarker@KFbxGlobalTimeSettings@fbxsdk_20102@@@fbxsdk_20102@@QBEAAPAUKFbxTimeMarker@KFbxGlobalTimeSettings@1@H@Z
   ??A?$KArrayTemplate@PAUKLayerInfo@fbxsdk_20102@@@fbxsdk_20102@@QBEAAPAUKLayerInfo@1@H@Z
   ??A?$KArrayTemplate@PAUKTypeObjectHierarchyInfo@fbxsdk_20102@@@fbxsdk_20102@@QBEAAPAUKTypeObjectHierarchyInfo@1@H@Z
   ??A?$KArrayTemplate@PAUKTypeReadReferenceInfo@?A0xa88da042@fbxsdk_20102@@@fbxsdk_20102@@QBEAAPAUKTypeReadReferenceInfo@?A0xa88da042@1@H@Z
   ??A?$KArrayTemplate@PAUKTypeWriteReferenceInfo@?A0xce6eb6f4@fbxsdk_20102@@@fbxsdk_20102@@QBEAAPAUKTypeWriteReferenceInfo@?A0xce6eb6f4@1@H@Z
   ??A?$KArrayTemplate@PAUKTypeWriteReferenceInfo@fbxsdk_20102@@@fbxsdk_20102@@QBEAAPAUKTypeWriteReferenceInfo@1@H@Z
   ??A?$KArrayTemplate@PAUmaterial3ds@fbxsdk_20102@@@fbxsdk_20102@@QBEAAPAUmaterial3ds@1@H@Z
   ??A?$KArrayTemplate@PAUMultiTex@KFbxReader3DS@fbxsdk_20102@@@fbxsdk_20102@@QBEAAPAUMultiTex@KFbxReader3DS@1@H@Z
   ??A?$KArrayTemplate@PAUNameCell@KFbxRenamingStrategy@fbxsdk_20102@@@fbxsdk_20102@@QBEAAPAUNameCell@KFbxRenamingStrategy@1@H@Z
   ??A?$KArrayTemplate@PAUNameCell@KNumberRenamingStrategy@fbxsdk_20102@@@fbxsdk_20102@@QBEAAPAUNameCell@KNumberRenamingStrategy@1@H@Z
   ??A?$KArrayTemplate@PAUNameCell@KRenamingStrategy3DS@fbxsdk_20102@@@fbxsdk_20102@@QBEAAPAUNameCell@KRenamingStrategy3DS@1@H@Z
   ??A?$KArrayTemplate@PAUReaderPluginEntry@KFbxIOPluginRegistry@fbxsdk_20102@@@fbxsdk_20102@@QBEAAPAUReaderPluginEntry@KFbxIOPluginRegistry@1@H@Z
   ??A?$KArrayTemplate@PAUWriterPluginEntry@KFbxIOPluginRegistry@fbxsdk_20102@@@fbxsdk_20102@@QBEAAPAUWriterPluginEntry@KFbxIOPluginRegistry@1@H@Z
   ??A?$KArrayTemplate@PAV?$KArrayTemplate@H@fbxsdk_20102@@@fbxsdk_20102@@QBEAAPAV?$KArrayTemplate@H@1@H@Z
   ??A?$KArrayTemplate@PAV?$KArrayTemplate@UKElement@KFbxWeightedMapping@fbxsdk_20102@@@fbxsdk_20102@@@fbxsdk_20102@@QBEAAPAV?$KArrayTemplate@UKElement@KFbxWeightedMapping@fbxsdk_20102@@@1@H@Z
   ??A?$KArrayTemplate@PAV?$KArrayTemplate@VKDuplicateVertex@KFbxMesh@fbxsdk_20102@@@fbxsdk_20102@@@fbxsdk_20102@@QBEAAPAV?$KArrayTemplate@VKDuplicateVertex@KFbxMesh@fbxsdk_20102@@@1@H@Z
   ??A?$KArrayTemplate@PAVFbx5ObjectTypeInfo@fbxsdk_20102@@@fbxsdk_20102@@QBEAAPAVFbx5ObjectTypeInfo@1@H@Z
   ??A?$KArrayTemplate@PAVFbx6ObjectTypeInfo@fbxsdk_20102@@@fbxsdk_20102@@QBEAAPAVFbx6ObjectTypeInfo@1@H@Z
   ??A?$KArrayTemplate@PAVFbx6TypeDefinitionInfo@fbxsdk_20102@@@fbxsdk_20102@@QBEAAPAVFbx6TypeDefinitionInfo@1@H@Z
   ??A?$KArrayTemplate@PAVKBVHJoint@fbxsdk_20102@@@fbxsdk_20102@@QBEAAPAVKBVHJoint@1@H@Z
   ??A?$KArrayTemplate@PAVKFbxAsfNode@fbxsdk_20102@@@fbxsdk_20102@@QBEAAPAVKFbxAsfNode@1@H@Z
   ??A?$KArrayTemplate@PAVKFbxCluster@fbxsdk_20102@@@fbxsdk_20102@@QBEAAPAVKFbxCluster@1@H@Z
   ??A?$KArrayTemplate@PAVKFbxConnectionPoint@fbxsdk_20102@@@fbxsdk_20102@@QBEAAPAVKFbxConnectionPoint@1@H@Z
   ??A?$KArrayTemplate@PAVKFbxDefaultTakeCallback@fbxsdk_20102@@@fbxsdk_20102@@QBEAAPAVKFbxDefaultTakeCallback@1@H@Z
   ??A?$KArrayTemplate@PAVKFbxDependency@fbxsdk_20102@@@fbxsdk_20102@@QBEAAPAVKFbxDependency@1@H@Z
   ??A?$KArrayTemplate@PAVKFbxDocument@fbxsdk_20102@@@fbxsdk_20102@@QBEAAPAVKFbxDocument@1@H@Z
   ??A?$KArrayTemplate@PAVKFbxFieldInstance@fbxsdk_20102@@@fbxsdk_20102@@QBEAAPAVKFbxFieldInstance@1@H@Z
   ??A?$KArrayTemplate@PAVKFbxGenericNode@fbxsdk_20102@@@fbxsdk_20102@@QBEAAPAVKFbxGenericNode@1@H@Z
   ??A?$KArrayTemplate@PAVKFbxGobo@fbxsdk_20102@@@fbxsdk_20102@@QBEAAPAVKFbxGobo@1@H@Z
   ??A?$KArrayTemplate@PAVKFbxHtrSegment@fbxsdk_20102@@@fbxsdk_20102@@QBEAAPAVKFbxHtrSegment@1@H@Z
   ??A?$KArrayTemplate@PAVKFbxImageConverter@fbxsdk_20102@@@fbxsdk_20102@@QBEAAPAVKFbxImageConverter@1@H@Z
   ??A?$KArrayTemplate@PAVKFbxLayer@fbxsdk_20102@@@fbxsdk_20102@@QBEAAPAVKFbxLayer@1@H@Z
   ??A?$KArrayTemplate@PAVKFbxLayeredTexture@fbxsdk_20102@@@fbxsdk_20102@@QBEAAPAVKFbxLayeredTexture@1@H@Z
   ??A?$KArrayTemplate@PAVKFbxLayerElement@fbxsdk_20102@@@fbxsdk_20102@@QBEAAPAVKFbxLayerElement@1@H@Z
   ??A?$KArrayTemplate@PAVKFbxLoadingStrategy@fbxsdk_20102@@@fbxsdk_20102@@QBEAAPAVKFbxLoadingStrategy@1@H@Z
   ??A?$KArrayTemplate@PAVKFbxMesh@fbxsdk_20102@@@fbxsdk_20102@@QBEAAPAVKFbxMesh@1@H@Z
   ??A?$KArrayTemplate@PAVKFbxMessageListener@fbxsdk_20102@@@fbxsdk_20102@@QBEAAPAVKFbxMessageListener@1@H@Z
   ??A?$KArrayTemplate@PAVKFbxNode@fbxsdk_20102@@@fbxsdk_20102@@QBEAAPAVKFbxNode@1@H@Z
   ??A?$KArrayTemplate@PAVKFbxObject@fbxsdk_20102@@@fbxsdk_20102@@QBEAAPAVKFbxObject@1@H@Z
   ??A?$KArrayTemplate@PAVKFbxPlugin@fbxsdk_20102@@@fbxsdk_20102@@QBEAAPAVKFbxPlugin@1@H@Z
   ??A?$KArrayTemplate@PAVKFbxPose@fbxsdk_20102@@@fbxsdk_20102@@QBEAAPAVKFbxPose@1@H@Z
   ??A?$KArrayTemplate@PAVKFbxProductInfo@fbxsdk_20102@@@fbxsdk_20102@@QBEAAPAVKFbxProductInfo@1@H@Z
   ??A?$KArrayTemplate@PAVKFbxPropertyPage@fbxsdk_20102@@@fbxsdk_20102@@QBEAAPAVKFbxPropertyPage@1@H@Z
   ??A?$KArrayTemplate@PAVKFbxScene@fbxsdk_20102@@@fbxsdk_20102@@QBEAAPAVKFbxScene@1@H@Z
   ??A?$KArrayTemplate@PAVKFbxSelectionNode@fbxsdk_20102@@@fbxsdk_20102@@QBEAAPAVKFbxSelectionNode@1@H@Z
   ??A?$KArrayTemplate@PAVKFbxShape@fbxsdk_20102@@@fbxsdk_20102@@QBEAAPAVKFbxShape@1@H@Z
   ??A?$KArrayTemplate@PAVKFbxSurfaceMaterial@fbxsdk_20102@@@fbxsdk_20102@@QBEAAPAVKFbxSurfaceMaterial@1@H@Z
   ??A?$KArrayTemplate@PAVKFbxTakeInfo@fbxsdk_20102@@@fbxsdk_20102@@QBEAAPAVKFbxTakeInfo@1@H@Z
   ??A?$KArrayTemplate@PAVKFbxTakeNode@fbxsdk_20102@@@fbxsdk_20102@@QBEAAPAVKFbxTakeNode@1@H@Z
   ??A?$KArrayTemplate@PAVKFbxTexture@fbxsdk_20102@@@fbxsdk_20102@@QBEAAPAVKFbxTexture@1@H@Z
   ??A?$KArrayTemplate@PAVKFbxUIInstance@fbxsdk_20102@@@fbxsdk_20102@@QBEAAPAVKFbxUIInstance@1@H@Z
   ??A?$KArrayTemplate@PAVKFbxUINode@fbxsdk_20102@@@fbxsdk_20102@@QBEAAPAVKFbxUINode@1@H@Z
   ??A?$KArrayTemplate@PAVKFbxVector4@fbxsdk_20102@@@fbxsdk_20102@@QBEAAPAVKFbxVector4@1@H@Z
   ??A?$KArrayTemplate@PAVKFbxVideo@fbxsdk_20102@@@fbxsdk_20102@@QBEAAPAVKFbxVideo@1@H@Z
   ??A?$KArrayTemplate@PAVKFbxWeightInfo@fbxsdk_20102@@@fbxsdk_20102@@QBEAAPAVKFbxWeightInfo@1@H@Z
   ??A?$KArrayTemplate@PAVKFCurve@fbxsdk_20102@@@fbxsdk_20102@@QBEAAPAVKFCurve@1@H@Z
   ??A?$KArrayTemplate@PAVKFCurveNode@fbxsdk_20102@@@fbxsdk_20102@@QBEAAPAVKFCurveNode@1@H@Z
   ??A?$KArrayTemplate@PAVKString@fbxsdk_20102@@@fbxsdk_20102@@QBEAAPAVKString@1@H@Z
   ??A?$KArrayTemplate@PAVKStringListItem@fbxsdk_20102@@@fbxsdk_20102@@QBEAAPAVKStringListItem@1@H@Z
   ??A?$KArrayTemplate@PAVKTypeDefinitionInfo@?A0xce6eb6f4@fbxsdk_20102@@@fbxsdk_20102@@QBEAAPAVKTypeDefinitionInfo@?A0xce6eb6f4@1@H@Z
   ??A?$KArrayTemplate@PAVKXRefManagerProject@fbxsdk_20102@@@fbxsdk_20102@@QBEAAPAVKXRefManagerProject@1@H@Z
   ??A?$KArrayTemplate@PAVLayerInfo@fbxsdk_20102@@@fbxsdk_20102@@QBEAAPAVLayerInfo@1@H@Z
   ??A?$KArrayTemplate@PAVListItem@?$KHashMap@PAVKFbxLayeredTexture@fbxsdk_20102@@HVLayeredTextureHash@2@V?$NoOpDestruct@H@2@VLayeredTexPtrComparator@KFbxMaterialConverterImpl@2@@fbxsdk_20102@@@fbxsdk_20102@@QBEAAPAVListItem@?$KHashMap@PAVKFbxLayeredTexture@fbxsdk_20102@@HVLayeredTextureHash@2@V?$NoOpDestruct@H@2@VLayeredTexPtrComparator@KFbxMaterialConverterImpl@2@@1@H@Z
   ??A?$KArrayTemplate@PAVListItem@?$KHashMap@VkFbxClassId@fbxsdk_20102@@PAV?$KArrayTemplate@PAVKFbxPreviewGeneratorFactory@fbxsdk_20102@@@2@VClassIdHash@Impl@KFbxPreviewManager@2@V?$PtrDestruct@PAV?$KArrayTemplate@PAVKFbxPreviewGeneratorFactory@fbxsdk_20102@@@fbxsdk_20102@@@2@V?$DefaultComparator@VkFbxClassId@fbxsdk_20102@@@2@@fbxsdk_20102@@@fbxsdk_20102@@QBEAAPAVListItem@?$KHashMap@VkFbxClassId@fbxsdk_20102@@PAV?$KArrayTemplate@PAVKFbxPreviewGeneratorFactory@fbxsdk_20102@@@2@VClassIdHash@Impl@KFbxPreviewManager@2@V?$PtrDestruct@PAV?$KArrayTemplate@PAVKFbxPreviewGeneratorFactory@fbxsdk_20102@@@fbxsdk_20102@@@2@V?$DefaultComparator@VkFbxClassId@fbxsdk_20102@@@2@@1@H@Z
   ??A?$KArrayTemplate@PAVListItem@?$KHashMap@VKString@fbxsdk_20102@@UDependency@KFbxProcessorShaderDependency@2@VKStringHash@42@V?$NoOpDestruct@UDependency@KFbxProcessorShaderDependency@fbxsdk_20102@@@2@V?$DefaultComparator@VKString@fbxsdk_20102@@@2@@fbxsdk_20102@@@fbxsdk_20102@@QBEAAPAVListItem@?$KHashMap@VKString@fbxsdk_20102@@UDependency@KFbxProcessorShaderDependency@2@VKStringHash@42@V?$NoOpDestruct@UDependency@KFbxProcessorShaderDependency@fbxsdk_20102@@@2@V?$DefaultComparator@VKString@fbxsdk_20102@@@2@@1@H@Z
   ??A?$KArrayTemplate@PAVListItem@?$KHashMap@VLayerConfig@fbxsdk_20102@@HVLayerConfigHash@2@V?$NoOpDestruct@H@2@V?$DefaultComparator@VLayerConfig@fbxsdk_20102@@@2@@fbxsdk_20102@@@fbxsdk_20102@@QBEAAPAVListItem@?$KHashMap@VLayerConfig@fbxsdk_20102@@HVLayerConfigHash@2@V?$NoOpDestruct@H@2@V?$DefaultComparator@VLayerConfig@fbxsdk_20102@@@2@@1@H@Z
   ??A?$KArrayTemplate@PAVListItem@?$KHashMap@VLayerConfig@fbxsdk_20102@@PAVKFbxSurfaceMaterial@2@VLayerConfigHash@2@V?$NoOpDestruct@PAVKFbxSurfaceMaterial@fbxsdk_20102@@@2@V?$DefaultComparator@VLayerConfig@fbxsdk_20102@@@2@@fbxsdk_20102@@@fbxsdk_20102@@QBEAAPAVListItem@?$KHashMap@VLayerConfig@fbxsdk_20102@@PAVKFbxSurfaceMaterial@2@VLayerConfigHash@2@V?$NoOpDestruct@PAVKFbxSurfaceMaterial@fbxsdk_20102@@@2@V?$DefaultComparator@VLayerConfig@fbxsdk_20102@@@2@@1@H@Z
   ??A?$KArrayTemplate@PAVPropertyAssociation@fbxsdk_20102@@@fbxsdk_20102@@QBEAAPAVPropertyAssociation@1@H@Z
   ??A?$KArrayTemplate@PAX@fbxsdk_20102@@QBEAAPAXH@Z
   ??A?$KArrayTemplate@PBD@fbxsdk_20102@@QBEAAPBDH@Z
   ??A?$KArrayTemplate@PBVKFbxLayerElementUV@fbxsdk_20102@@@fbxsdk_20102@@QBEAAPBVKFbxLayerElementUV@1@H@Z
   ??A?$KArrayTemplate@PBVKFbxPlugin@fbxsdk_20102@@@fbxsdk_20102@@QBEAAPBVKFbxPlugin@1@H@Z
   ??A?$KArrayTemplate@UInputData@KFbxLayeredTexture@fbxsdk_20102@@@fbxsdk_20102@@QBEAAUInputData@KFbxLayeredTexture@1@H@Z
   ??A?$KArrayTemplate@UKElement@KFbxWeightedMapping@fbxsdk_20102@@@fbxsdk_20102@@QBEAAUKElement@KFbxWeightedMapping@1@H@Z
   ??A?$KArrayTemplate@UKFbxPolygon@KFbxMesh@fbxsdk_20102@@@fbxsdk_20102@@QBEAAUKFbxPolygon@KFbxMesh@1@H@Z
   ??A?$KArrayTemplate@UKFbxShadowPlane@KFbxGlobalLightSettings@fbxsdk_20102@@@fbxsdk_20102@@QBEAAUKFbxShadowPlane@KFbxGlobalLightSettings@1@H@Z
   ??A?$KArrayTemplate@UKFbxSplitEdgeData@KFbxMesh@fbxsdk_20102@@@fbxsdk_20102@@QBEAAUKFbxSplitEdgeData@KFbxMesh@1@H@Z
   ??A?$KArrayTemplate@UNewOld@KFbxReader3DS@fbxsdk_20102@@@fbxsdk_20102@@QBEAAUNewOld@KFbxReader3DS@1@H@Z
   ??A?$KArrayTemplate@UPreviewEntry@Impl@KFbxPreviewManager@fbxsdk_20102@@@fbxsdk_20102@@QBEAAUPreviewEntry@Impl@KFbxPreviewManager@1@H@Z
   ??A?$KArrayTemplate@V?$KPair@HH@fbxsdk_20102@@@fbxsdk_20102@@QBEAAV?$KPair@HH@1@H@Z
   ??A?$KArrayTemplate@V?$KPair@PAVKFbxLayerElementUV@fbxsdk_20102@@_N@fbxsdk_20102@@@fbxsdk_20102@@QBEAAV?$KPair@PAVKFbxLayerElementUV@fbxsdk_20102@@_N@1@H@Z
   ??A?$KArrayTemplate@V?$KPair@PAVKFbxTexture@fbxsdk_20102@@W4EBlendMode@KFbxLayerElementTexture@2@@fbxsdk_20102@@@fbxsdk_20102@@QBEAAV?$KPair@PAVKFbxTexture@fbxsdk_20102@@W4EBlendMode@KFbxLayerElementTexture@2@@1@H@Z
   ??A?$KArrayTemplate@VKConnection@KConnectionList@KFbxConnectionPoint@fbxsdk_20102@@@fbxsdk_20102@@QBEAAVKConnection@KConnectionList@KFbxConnectionPoint@1@H@Z
   ??A?$KArrayTemplate@VKDuplicateVertex@KFbxMesh@fbxsdk_20102@@@fbxsdk_20102@@QBEAAVKDuplicateVertex@KFbxMesh@1@H@Z
   ??A?$KArrayTemplate@VKFbxColor@fbxsdk_20102@@@fbxsdk_20102@@QBEAAVKFbxColor@1@H@Z
   ??A?$KArrayTemplate@VKFbxDataType@fbxsdk_20102@@@fbxsdk_20102@@QBEAAVKFbxDataType@1@H@Z
   ??A?$KArrayTemplate@VKFbxLinkToCharacter@KFbxNode_internal@fbxsdk_20102@@@fbxsdk_20102@@QBEAAVKFbxLinkToCharacter@KFbxNode_internal@1@H@Z
   ??A?$KArrayTemplate@VKFbxMatrix@fbxsdk_20102@@@fbxsdk_20102@@QBEAAVKFbxMatrix@1@H@Z
   ??A?$KArrayTemplate@VKFbxProperty@fbxsdk_20102@@@fbxsdk_20102@@QBEAAVKFbxProperty@1@H@Z
   ??A?$KArrayTemplate@VKFbxVector2@fbxsdk_20102@@@fbxsdk_20102@@QBEAAVKFbxVector2@1@H@Z
   ??A?$KArrayTemplate@VKFbxVector4@fbxsdk_20102@@@fbxsdk_20102@@QBEAAVKFbxVector4@1@H@Z
   ??A?$KArrayTemplate@VKFbxXMatrix@fbxsdk_20102@@@fbxsdk_20102@@QBEAAVKFbxXMatrix@1@H@Z
   ??A?$KArrayTemplate@VKVertexNormalInfo@KFbxMesh@fbxsdk_20102@@@fbxsdk_20102@@QBEAAVKVertexNormalInfo@KFbxMesh@1@H@Z
   ??A?$KArrayTemplate@VLayerConfig@fbxsdk_20102@@@fbxsdk_20102@@QBEAAVLayerConfig@1@H@Z
   ??A?$KArrayTemplate@W4ECharacterInputType@fbxsdk_20102@@@fbxsdk_20102@@QBEAAW4ECharacterInputType@1@H@Z
   ??A?$KArrayTemplate@W4ELayerElementType@KFbxLayerElement@fbxsdk_20102@@@fbxsdk_20102@@QBEAAW4ELayerElementType@KFbxLayerElement@1@H@Z
   ??A?$KDynamicArray@_NVKBaseAllocator@fbxsdk_20102@@@fbxsdk_20102@@QAEAA_NI@Z
   ??A?$KDynamicArray@HVKBaseAllocator@fbxsdk_20102@@@fbxsdk_20102@@QAEAAHI@Z
   ??A?$KDynamicArray@MVKBaseAllocator@fbxsdk_20102@@@fbxsdk_20102@@QAEAAMI@Z
   ??A?$KDynamicArray@UFilePathData@KFbxProcessorShaderDependency@fbxsdk_20102@@VKBaseAllocator@3@@fbxsdk_20102@@QAEAAUFilePathData@KFbxProcessorShaderDependency@1@I@Z
   ??A?$KDynamicArray@UFilePathData@KFbxProcessorShaderDependency@fbxsdk_20102@@VKBaseAllocator@3@@fbxsdk_20102@@QBEABUFilePathData@KFbxProcessorShaderDependency@1@I@Z
   ??A?$KDynamicArray@VKFbxBindingTableEntry@fbxsdk_20102@@VKBaseAllocator@2@@fbxsdk_20102@@QAEAAVKFbxBindingTableEntry@1@I@Z
   ??A?$KDynamicArray@VKFbxBindingTableEntry@fbxsdk_20102@@VKBaseAllocator@2@@fbxsdk_20102@@QBEABVKFbxBindingTableEntry@1@I@Z
   ??A?$KDynamicArray@VKString@fbxsdk_20102@@VKBaseAllocator@2@@fbxsdk_20102@@QAEAAVKString@1@I@Z
   ??A?$KFbxLayerElementArrayTemplate@H@fbxsdk_20102@@QBEHH@Z
   ??A?$KFbxLayerElementArrayTemplate@PAVKFbxSurfaceMaterial@fbxsdk_20102@@@fbxsdk_20102@@QBEPAVKFbxSurfaceMaterial@1@H@Z
   ??A?$KFbxLayerElementArrayTemplate@PAVKFbxTexture@fbxsdk_20102@@@fbxsdk_20102@@QBEPAVKFbxTexture@1@H@Z
   ??A?$KFbxLayerElementArrayTemplate@VKFbxColor@fbxsdk_20102@@@fbxsdk_20102@@QBE?AVKFbxColor@1@H@Z
   ??A?$KFbxLayerElementArrayTemplate@VKFbxVector2@fbxsdk_20102@@@fbxsdk_20102@@QBE?AVKFbxVector2@1@H@Z
   ??A?$KFbxLayerElementArrayTemplate@VKFbxVector4@fbxsdk_20102@@@fbxsdk_20102@@QBE?AVKFbxVector4@1@H@Z
   ??A?$KHashMap@PAVKFbxLayeredTexture@fbxsdk_20102@@HVLayeredTextureHash@2@V?$NoOpDestruct@H@2@VLayeredTexPtrComparator@KFbxMaterialConverterImpl@2@@fbxsdk_20102@@QAEAAHABQAVKFbxLayeredTexture@1@@Z
   ??A?$KHashMap@VkFbxClassId@fbxsdk_20102@@PAV?$KArrayTemplate@PAVKFbxPreviewGeneratorFactory@fbxsdk_20102@@@2@VClassIdHash@Impl@KFbxPreviewManager@2@V?$PtrDestruct@PAV?$KArrayTemplate@PAVKFbxPreviewGeneratorFactory@fbxsdk_20102@@@fbxsdk_20102@@@2@V?$DefaultComparator@VkFbxClassId@fbxsdk_20102@@@2@@fbxsdk_20102@@QAEAAPAV?$KArrayTemplate@PAVKFbxPreviewGeneratorFactory@fbxsdk_20102@@@1@ABVkFbxClassId@1@@Z
   ??A?$KHashMap@VKString@fbxsdk_20102@@UDependency@KFbxProcessorShaderDependency@2@VKStringHash@42@V?$NoOpDestruct@UDependency@KFbxProcessorShaderDependency@fbxsdk_20102@@@2@V?$DefaultComparator@VKString@fbxsdk_20102@@@2@@fbxsdk_20102@@QAEAAUDependency@KFbxProcessorShaderDependency@1@ABVKString@1@@Z
   ??A?$KHashMap@VLayerConfig@fbxsdk_20102@@HVLayerConfigHash@2@V?$NoOpDestruct@H@2@V?$DefaultComparator@VLayerConfig@fbxsdk_20102@@@2@@fbxsdk_20102@@QAEAAHABVLayerConfig@1@@Z
   ??A?$KHashMap@VLayerConfig@fbxsdk_20102@@PAVKFbxSurfaceMaterial@2@VLayerConfigHash@2@V?$NoOpDestruct@PAVKFbxSurfaceMaterial@fbxsdk_20102@@@2@V?$DefaultComparator@VLayerConfig@fbxsdk_20102@@@2@@fbxsdk_20102@@QAEAAPAVKFbxSurfaceMaterial@1@ABVLayerConfig@1@@Z
   ??A?$KMap@PAVKFbxObject@fbxsdk_20102@@UCloneSetElement@KFbxCloneManager@2@VKFbxObjectCompare@42@VKBaseAllocator@2@@fbxsdk_20102@@QAEAAUCloneSetElement@KFbxCloneManager@1@ABQAVKFbxObject@1@@Z
   ??A?$KMap@PAVKFbxObject@fbxsdk_20102@@V?$KSet2@UKFbxPropertyUpdate@KFbxProcessorXRefCopy@fbxsdk_20102@@U?$KFbxLessCompare@UKFbxPropertyUpdate@KFbxProcessorXRefCopy@fbxsdk_20102@@@3@VKBaseAllocator@3@@2@U?$KFbxLessCompare@PAVKFbxObject@fbxsdk_20102@@@2@VKBaseAllocator@2@@fbxsdk_20102@@QAEAAV?$KSet2@UKFbxPropertyUpdate@KFbxProcessorXRefCopy@fbxsdk_20102@@U?$KFbxLessCompare@UKFbxPropertyUpdate@KFbxProcessorXRefCopy@fbxsdk_20102@@@3@VKBaseAllocator@3@@1@ABQAVKFbxObject@1@@Z
   ??A?$KMap@PAVKFbxObject@fbxsdk_20102@@V?$KSet2@UKFbxPropertyUrlIndex@KFbxEmbeddedFilesAccumulator@fbxsdk_20102@@UKFbxPropertyUrlIndexCompare@23@VKBaseAllocator@3@@2@U?$KFbxLessCompare@PAVKFbxObject@fbxsdk_20102@@@2@VKBaseAllocator@2@@fbxsdk_20102@@QAEAAV?$KSet2@UKFbxPropertyUrlIndex@KFbxEmbeddedFilesAccumulator@fbxsdk_20102@@UKFbxPropertyUrlIndexCompare@23@VKBaseAllocator@3@@1@ABQAVKFbxObject@1@@Z
   ??A?$KMap@VKString@fbxsdk_20102@@UKFbxEmbeddedFileInfo@KFbxEmbeddedFilesAccumulator@2@U?$KFbxLessCompare@VKString@fbxsdk_20102@@@2@VKBaseAllocator@2@@fbxsdk_20102@@QAEAAUKFbxEmbeddedFileInfo@KFbxEmbeddedFilesAccumulator@1@ABVKString@1@@Z
   ??A?$KStringListTemplate@VKStringListItem@fbxsdk_20102@@@fbxsdk_20102@@QAEAAVKString@1@H@Z
   ??A?$map@DV?$Reference@Vparse@impl@fbxsdk_20102@@@aw@fbxsdk_20102@@U?$less@D@23@@aw@fbxsdk_20102@@QAEAAV?$Reference@Vparse@impl@fbxsdk_20102@@@12@ABD@Z
   ??A?$map@KPA_NU?$less@K@aw@fbxsdk_20102@@@aw@fbxsdk_20102@@QAEAAPA_NABK@Z
   ??A?$map@V?$Reference@VIdleTask@awUtil@fbxsdk_20102@@@aw@fbxsdk_20102@@Viterator@?$list@V?$Reference@VIdleTask@awUtil@fbxsdk_20102@@@aw@fbxsdk_20102@@@23@U?$less@V?$Reference@VIdleTask@awUtil@fbxsdk_20102@@@aw@fbxsdk_20102@@@23@@aw@fbxsdk_20102@@QAEAAViterator@?$list@V?$Reference@VIdleTask@awUtil@fbxsdk_20102@@@aw@fbxsdk_20102@@@12@ABV?$Reference@VIdleTask@awUtil@fbxsdk_20102@@@12@@Z
   ??A?$map@VCString@awString@fbxsdk_20102@@HU?$less@VCString@awString@fbxsdk_20102@@@aw@3@@aw@fbxsdk_20102@@QAEAAHABVCString@awString@2@@Z
   ??A?$vector@I@aw@fbxsdk_20102@@QAEAAIH@Z
   ??A?$vector@I@aw@fbxsdk_20102@@QBEABIH@Z
   ??A?$vector@PAVFileTransportFactory@awOS@fbxsdk_20102@@@aw@fbxsdk_20102@@QAEAAPAVFileTransportFactory@awOS@2@H@Z
   ??A?$vector@PAVInitializer@awUtil@fbxsdk_20102@@@aw@fbxsdk_20102@@QAEAAPAVInitializer@awUtil@2@H@Z
   ??A?$vector@V?$Reference@Voption@impl@fbxsdk_20102@@@aw@fbxsdk_20102@@@aw@fbxsdk_20102@@QAEAAV?$Reference@Voption@impl@fbxsdk_20102@@@12@H@Z
   ??A?$vector@VCString@awString@fbxsdk_20102@@@aw@fbxsdk_20102@@QBEABVCString@awString@2@H@Z
   ??A?$vector@VIString@awString@fbxsdk_20102@@@aw@fbxsdk_20102@@QAEAAVIString@awString@2@H@Z
   ??A?$vector@VIString@awString@fbxsdk_20102@@@aw@fbxsdk_20102@@QBEABVIString@awString@2@H@Z
   ??A?$vector@W4optionTypes@impl@fbxsdk_20102@@@aw@fbxsdk_20102@@QBEABW4optionTypes@impl@2@H@Z
   ??ACString@awString@fbxsdk_20102@@QAEAADI@Z
   ??ACString@awString@fbxsdk_20102@@QBEDI@Z
   ??AIString@awString@fbxsdk_20102@@QAEAA_WI@Z
   ??AIString@awString@fbxsdk_20102@@QBE_WI@Z
   ??AKCharPtrSet@fbxsdk_20102@@QAEAAIH@Z
   ??AKFbxQuaternion@fbxsdk_20102@@QAEAANH@Z
   ??AKFbxQuaternion@fbxsdk_20102@@QBEABNH@Z
   ??AKFbxVector2@fbxsdk_20102@@QAEAANH@Z
   ??AKFbxVector2@fbxsdk_20102@@QBEABNH@Z
   ??AKFbxVector4@fbxsdk_20102@@QAEAANH@Z
   ??AKFbxVector4@fbxsdk_20102@@QBEABNH@Z
   ??AKgeTVector@fbxsdk_20102@@QAEAANH@Z
   ??AKgVector@fbxsdk_20102@@QAEAANH@Z
   ??AKgVector@fbxsdk_20102@@QBENH@Z
   ??AKMpCounter@fbxsdk_20102@@QAE_K_J@Z
   ??AKString@fbxsdk_20102@@QAEAADH@Z
   ??AKString@fbxsdk_20102@@QBEDH@Z
   ??AKViconArray@fbxsdk_20102@@QAE?AV01@H@Z
   ??B?$fbxVectorTemplate3@N@fbxsdk_20102@@QAEPANXZ
   ??B?$fbxVectorTemplate4@N@fbxsdk_20102@@QBEAAV?$fbxVectorTemplate3@N@1@XZ
   ??B?$KArrayTemplate@D@fbxsdk_20102@@QAEPADXZ
   ??B?$KArrayTemplate@H@fbxsdk_20102@@QAEPAHXZ
   ??B?$KArrayTemplate@I@fbxsdk_20102@@QAEPAIXZ
   ??B?$KArrayTemplate@M@fbxsdk_20102@@QAEPAMXZ
   ??B?$KArrayTemplate@N@fbxsdk_20102@@QAEPANXZ
   ??B?$KArrayTemplate@PAD@fbxsdk_20102@@QAEPAPADXZ
   ??B?$KArrayTemplate@PAH@fbxsdk_20102@@QAEPAPAHXZ
   ??B?$KArrayTemplate@PAI@fbxsdk_20102@@QAEPAPAIXZ
   ??B?$KArrayTemplate@PAM@fbxsdk_20102@@QAEPAPAMXZ
   ??B?$KArrayTemplate@PAN@fbxsdk_20102@@QAEPAPANXZ
   ??B?$KArrayTemplate@PAVKFbxProductInfo@fbxsdk_20102@@@fbxsdk_20102@@QAEPAPAVKFbxProductInfo@1@XZ
   ??B?$KArrayTemplate@PAVKFCurve@fbxsdk_20102@@@fbxsdk_20102@@QAEPAPAVKFCurve@1@XZ
   ??B?$KArrayTemplate@PAVKString@fbxsdk_20102@@@fbxsdk_20102@@QAEPAPAVKString@1@XZ
   ??B?$KArrayTemplate@PAVKStringListItem@fbxsdk_20102@@@fbxsdk_20102@@QAEPAPAVKStringListItem@1@XZ
   ??B?$KArrayTemplate@PAX@fbxsdk_20102@@QAEPAPAXXZ
   ??B?$KArrayTemplate@UKFbxPolygon@KFbxMesh@fbxsdk_20102@@@fbxsdk_20102@@QAEPAUKFbxPolygon@KFbxMesh@1@XZ
   ??B?$KArrayTemplate@VKFbxVector2@fbxsdk_20102@@@fbxsdk_20102@@QAEPAVKFbxVector2@1@XZ
   ??B?$KArrayTemplate@VKFbxVector4@fbxsdk_20102@@@fbxsdk_20102@@QAEPAVKFbxVector4@1@XZ
   ??B?$KScopedPtr@VKFbxLibrary@fbxsdk_20102@@V?$FBXObjectDeletionPolicy@VKFbxLibrary@fbxsdk_20102@@@2@@fbxsdk_20102@@QBEPAVKFbxLibrary@1@XZ
   ??B?$KScopedPtr@VKFbxLocalization@fbxsdk_20102@@V?$DefaultDeletionPolicy@VKFbxLocalization@fbxsdk_20102@@@2@@fbxsdk_20102@@QBEPAVKFbxLocalization@1@XZ
   ??B?$KScopedPtr@VKFbxProcessorXRefCopy@fbxsdk_20102@@V?$FBXObjectDeletionPolicy@VKFbxProcessorXRefCopy@fbxsdk_20102@@@2@@fbxsdk_20102@@QBEPAVKFbxProcessorXRefCopy@1@XZ
   ??B?$KScopedPtr@VKFbxProcessorXRefCopyUserLibrary@fbxsdk_20102@@V?$FBXObjectDeletionPolicy@VKFbxProcessorXRefCopyUserLibrary@fbxsdk_20102@@@2@@fbxsdk_20102@@QBEPAVKFbxProcessorXRefCopyUserLibrary@1@XZ
   ??B?$KScopedPtr@VKMemoryAllocator@fbxsdk_20102@@V?$DefaultDeletionPolicy@VKMemoryAllocator@fbxsdk_20102@@@2@@fbxsdk_20102@@QBE_NXZ
   ??B?$KScopedPtr@VKStringList@fbxsdk_20102@@V?$DefaultDeletionPolicy@VKStringList@fbxsdk_20102@@@2@@fbxsdk_20102@@QBE_NXZ
   ??B?$Reference@Voption@impl@fbxsdk_20102@@@aw@fbxsdk_20102@@QAEPAVoption@impl@2@XZ
   ??B?$Reference@Vparse@impl@fbxsdk_20102@@@aw@fbxsdk_20102@@QAEPAVparse@impl@2@XZ
   ??B?$Reference@Vparse@impl@fbxsdk_20102@@@aw@fbxsdk_20102@@QBEPBVparse@impl@2@XZ
   ??BError@awUtil@fbxsdk_20102@@QBE_NXZ
   ??BIString@awString@fbxsdk_20102@@QBE?AVCString@12@XZ
   ??BKFbxCurrentDirectory@KFbxImpl@KFbxAssetBuilder@fbxsdk_20102@@QBEPBDXZ
   ??BKFbxMatrix@fbxsdk_20102@@QAEPANXZ
   ??BKFbxMatrix@fbxsdk_20102@@QBEPBNXZ
   ??BKFbxQuaternion@fbxsdk_20102@@QAEPANXZ
   ??BKFbxQuaternion@fbxsdk_20102@@QBEPBNXZ
   ??BKFbxStringSymbol@fbxsdk_20102@@QBEPBDXZ
   ??BKFbxTextFile@fbxsdk_20102@@QAEPADXZ
   ??BKFbxVector2@fbxsdk_20102@@QAEPANXZ
   ??BKFbxVector2@fbxsdk_20102@@QBEPBNXZ
   ??BKFbxVector4@fbxsdk_20102@@QAEPANXZ
   ??BKFbxVector4@fbxsdk_20102@@QBEPBNXZ
   ??BKFbxXMatrix@fbxsdk_20102@@QAEAAVKgeAMatrix@1@XZ
   ??BKFbxXMatrix@fbxsdk_20102@@QAEPANXZ
   ??BKFbxXMatrix@fbxsdk_20102@@QBEPBNXZ
   ??BKgeQuaternion@fbxsdk_20102@@QBEPBNXZ
   ??BKgeRVector@fbxsdk_20102@@QBEPBNXZ
   ??BKgeTVector@fbxsdk_20102@@QBEPBNXZ
   ??BKString@fbxsdk_20102@@QBEPBDXZ
   ??BKToken@fbxsdk_20102@@QAEHXZ
   ??BKViconArray@fbxsdk_20102@@QAE_JXZ
   ??BKViconArray@fbxsdk_20102@@QAE_KXZ
   ??BKViconArray@fbxsdk_20102@@QAECXZ
   ??BKViconArray@fbxsdk_20102@@QAEDXZ
   ??BKViconArray@fbxsdk_20102@@QAEEXZ
   ??BKViconArray@fbxsdk_20102@@QAEFXZ
   ??BKViconArray@fbxsdk_20102@@QAEGXZ
   ??BKViconArray@fbxsdk_20102@@QAEHXZ
   ??BKViconArray@fbxsdk_20102@@QAEIXZ
   ??BKViconArray@fbxsdk_20102@@QAEMXZ
   ??BKViconArray@fbxsdk_20102@@QAENXZ
   ??BKViconArray@fbxsdk_20102@@QAEPADXZ
   ??BOStream@awOS@fbxsdk_20102@@QBE_NXZ
   ??BUnzipFile@fbxsdk_20102@@QAEPAXXZ
   ??C?$KScopedPtr@VKFbxCondition@fbxsdk_20102@@V?$FBXObjectDeletionPolicy@VKFbxCondition@fbxsdk_20102@@@2@@fbxsdk_20102@@QBEPAVKFbxCondition@1@XZ
   ??C?$KScopedPtr@VKFbxDocumentInfo@fbxsdk_20102@@V?$FBXObjectDeletionPolicy@VKFbxDocumentInfo@fbxsdk_20102@@@2@@fbxsdk_20102@@QBEPAVKFbxDocumentInfo@1@XZ
   ??C?$KScopedPtr@VKFbxExporter@fbxsdk_20102@@V?$FBXObjectDeletionPolicy@VKFbxExporter@fbxsdk_20102@@@2@@fbxsdk_20102@@QBEPAVKFbxExporter@1@XZ
   ??C?$KScopedPtr@VKFbxImporter@fbxsdk_20102@@V?$FBXObjectDeletionPolicy@VKFbxImporter@fbxsdk_20102@@@2@@fbxsdk_20102@@QBEPAVKFbxImporter@1@XZ
   ??C?$KScopedPtr@VKFbxLibrary@fbxsdk_20102@@V?$FBXObjectDeletionPolicy@VKFbxLibrary@fbxsdk_20102@@@2@@fbxsdk_20102@@QBEPAVKFbxLibrary@1@XZ
   ??C?$KScopedPtr@VKFbxProcessorXRefCopy@fbxsdk_20102@@V?$FBXObjectDeletionPolicy@VKFbxProcessorXRefCopy@fbxsdk_20102@@@2@@fbxsdk_20102@@QBEPAVKFbxProcessorXRefCopy@1@XZ
   ??C?$KScopedPtr@VKFbxProcessorXRefCopyUserLibrary@fbxsdk_20102@@V?$FBXObjectDeletionPolicy@VKFbxProcessorXRefCopyUserLibrary@fbxsdk_20102@@@2@@fbxsdk_20102@@QBEPAVKFbxProcessorXRefCopyUserLibrary@1@XZ
   ??C?$KScopedPtr@VKFbxReaderFbx@fbxsdk_20102@@V?$DefaultDeletionPolicy@VKFbxReaderFbx@fbxsdk_20102@@@2@@fbxsdk_20102@@QBEPAVKFbxReaderFbx@1@XZ
   ??C?$KScopedPtr@VKFbxReaderFbx6@fbxsdk_20102@@V?$DefaultDeletionPolicy@VKFbxReaderFbx6@fbxsdk_20102@@@2@@fbxsdk_20102@@QBEPAVKFbxReaderFbx6@1@XZ
   ??C?$KScopedPtr@VKFbxReaderFbx7@fbxsdk_20102@@V?$DefaultDeletionPolicy@VKFbxReaderFbx7@fbxsdk_20102@@@2@@fbxsdk_20102@@QBEPAVKFbxReaderFbx7@1@XZ
   ??C?$KScopedPtr@VKFbxUIImporter@fbxsdk_20102@@V?$FBXObjectDeletionPolicy@VKFbxUIImporter@fbxsdk_20102@@@2@@fbxsdk_20102@@QBEPAVKFbxUIImporter@1@XZ
   ??C?$KScopedPtr@VKMemoryAllocator@fbxsdk_20102@@V?$DefaultDeletionPolicy@VKMemoryAllocator@fbxsdk_20102@@@2@@fbxsdk_20102@@QBEPAVKMemoryAllocator@1@XZ
   ??C?$KScopedPtr@VKString@fbxsdk_20102@@V?$DeletionPolicy@VKString@fbxsdk_20102@@@2@@fbxsdk_20102@@QBEPAVKString@1@XZ
   ??C?$KScopedPtr@VKStringList@fbxsdk_20102@@V?$DefaultDeletionPolicy@VKStringList@fbxsdk_20102@@@2@@fbxsdk_20102@@QBEPAVKStringList@1@XZ
   ??C?$Reference@VIdleTask@awUtil@fbxsdk_20102@@@aw@fbxsdk_20102@@QAEPAVIdleTask@awUtil@2@XZ
   ??C?$Reference@Voption@impl@fbxsdk_20102@@@aw@fbxsdk_20102@@QAEPAVoption@impl@2@XZ
   ??C?$Reference@Vparse@impl@fbxsdk_20102@@@aw@fbxsdk_20102@@QAEPAVparse@impl@2@XZ
   ??Cconst_iterator@?$rbtree@DV?$Reference@Vparse@impl@fbxsdk_20102@@@aw@fbxsdk_20102@@U?$less@D@23@@aw@fbxsdk_20102@@QBEPBV?$pair@$$CBDV?$Reference@Vparse@impl@fbxsdk_20102@@@aw@fbxsdk_20102@@@23@XZ
   ??Cconst_iterator@?$rbtree@VCString@awString@fbxsdk_20102@@HU?$less@VCString@awString@fbxsdk_20102@@@aw@3@@aw@fbxsdk_20102@@QBEPBV?$pair@$$CBVCString@awString@fbxsdk_20102@@H@23@XZ
   ??Citerator@?$rbtree@DV?$Reference@Vparse@impl@fbxsdk_20102@@@aw@fbxsdk_20102@@U?$less@D@23@@aw@fbxsdk_20102@@QBEPAV?$pair@$$CBDV?$Reference@Vparse@impl@fbxsdk_20102@@@aw@fbxsdk_20102@@@23@XZ
   ??Citerator@?$rbtree@KPA_NU?$less@K@aw@fbxsdk_20102@@@aw@fbxsdk_20102@@QBEPAV?$pair@$$CBKPA_N@23@XZ
   ??Citerator@?$rbtree@V?$Reference@VIdleTask@awUtil@fbxsdk_20102@@@aw@fbxsdk_20102@@Viterator@?$list@V?$Reference@VIdleTask@awUtil@fbxsdk_20102@@@aw@fbxsdk_20102@@@23@U?$less@V?$Reference@VIdleTask@awUtil@fbxsdk_20102@@@aw@fbxsdk_20102@@@23@@aw@fbxsdk_20102@@QBEPAV?$pair@$$CBV?$Reference@VIdleTask@awUtil@fbxsdk_20102@@@aw@fbxsdk_20102@@Viterator@?$list@V?$Reference@VIdleTask@awUtil@fbxsdk_20102@@@aw@fbxsdk_20102@@@23@@23@XZ
   ??D?$_Deque_const_iterator@PAU_xmlNode@fbxsdk_20102@@V?$allocator@PAU_xmlNode@fbxsdk_20102@@@std@@$0A@@std@@QBEABQAU_xmlNode@fbxsdk_20102@@XZ
   ??D?$_Deque_const_iterator@PAVInitializer@awUtil@fbxsdk_20102@@V?$allocator@PAVInitializer@awUtil@fbxsdk_20102@@@std@@$0A@@std@@QBEABQAVInitializer@awUtil@fbxsdk_20102@@XZ
   ??D?$_Deque_const_iterator@VKFbxProperty@fbxsdk_20102@@V?$allocator@VKFbxProperty@fbxsdk_20102@@@std@@$0A@@std@@QBEABVKFbxProperty@fbxsdk_20102@@XZ
   ??D?$_Deque_iterator@PAU_xmlNode@fbxsdk_20102@@V?$allocator@PAU_xmlNode@fbxsdk_20102@@@std@@$0A@@std@@QBEAAPAU_xmlNode@fbxsdk_20102@@XZ
   ??D?$_Deque_iterator@PAVInitializer@awUtil@fbxsdk_20102@@V?$allocator@PAVInitializer@awUtil@fbxsdk_20102@@@std@@$0A@@std@@QBEAAPAVInitializer@awUtil@fbxsdk_20102@@XZ
   ??D?$_Deque_iterator@VKFbxProperty@fbxsdk_20102@@V?$allocator@VKFbxProperty@fbxsdk_20102@@@std@@$0A@@std@@QBEAAVKFbxProperty@fbxsdk_20102@@XZ
   ??D?$KScopedPtr@VKFbxLibrary@fbxsdk_20102@@V?$FBXObjectDeletionPolicy@VKFbxLibrary@fbxsdk_20102@@@2@@fbxsdk_20102@@QBEAAVKFbxLibrary@1@XZ
   ??D?$KScopedPtr@VKFbxUIDefinition@fbxsdk_20102@@V?$FBXObjectDeletionPolicy@VKFbxUIDefinition@fbxsdk_20102@@@2@@fbxsdk_20102@@QBEAAVKFbxUIDefinition@1@XZ
   ??D?$KScopedPtr@VKFbxUIInstance@fbxsdk_20102@@V?$FBXObjectDeletionPolicy@VKFbxUIInstance@fbxsdk_20102@@@2@@fbxsdk_20102@@QBEAAVKFbxUIInstance@1@XZ
   ??D?$KScopedPtr@VKString@fbxsdk_20102@@V?$DeletionPolicy@VKString@fbxsdk_20102@@@2@@fbxsdk_20102@@QBEAAVKString@1@XZ
   ??Dconst_iterator@?$list@UiteratorEntry@DirectoryIterator@awOS@fbxsdk_20102@@@aw@fbxsdk_20102@@QBEABUiteratorEntry@DirectoryIterator@awOS@3@XZ
   ??Dconst_iterator@?$rbtree@DV?$Reference@Vparse@impl@fbxsdk_20102@@@aw@fbxsdk_20102@@U?$less@D@23@@aw@fbxsdk_20102@@QBEABV?$pair@$$CBDV?$Reference@Vparse@impl@fbxsdk_20102@@@aw@fbxsdk_20102@@@23@XZ
   ??Dconst_iterator@?$rbtree@KPA_NU?$less@K@aw@fbxsdk_20102@@@aw@fbxsdk_20102@@QBEABV?$pair@$$CBKPA_N@23@XZ
   ??Dconst_iterator@?$rbtree@V?$Reference@VIdleTask@awUtil@fbxsdk_20102@@@aw@fbxsdk_20102@@Viterator@?$list@V?$Reference@VIdleTask@awUtil@fbxsdk_20102@@@aw@fbxsdk_20102@@@23@U?$less@V?$Reference@VIdleTask@awUtil@fbxsdk_20102@@@aw@fbxsdk_20102@@@23@@aw@fbxsdk_20102@@QBEABV?$pair@$$CBV?$Reference@VIdleTask@awUtil@fbxsdk_20102@@@aw@fbxsdk_20102@@Viterator@?$list@V?$Reference@VIdleTask@awUtil@fbxsdk_20102@@@aw@fbxsdk_20102@@@23@@23@XZ
   ??Dconst_iterator@?$rbtree@VCString@awString@fbxsdk_20102@@HU?$less@VCString@awString@fbxsdk_20102@@@aw@3@@aw@fbxsdk_20102@@QBEABV?$pair@$$CBVCString@awString@fbxsdk_20102@@H@23@XZ
   ??DIntrusiveListIterator@?$KIntrusiveList@VKFbxEventHandler@kfbxevents@fbxsdk_20102@@$00@fbxsdk_20102@@QBEAAVKFbxEventHandler@kfbxevents@2@XZ
   ??DIntrusiveListIterator@?$KIntrusiveList@VKFbxEventHandler@kfbxevents@fbxsdk_20102@@$0A@@fbxsdk_20102@@QBEAAVKFbxEventHandler@kfbxevents@2@XZ
   ??DIntrusiveListIterator@?$KIntrusiveList@VKFbxPlugin@fbxsdk_20102@@$0A@@fbxsdk_20102@@QBEAAVKFbxPlugin@2@XZ
   ??DIntrusiveListIterator@?$KIntrusiveList@VKFbxPluginHandle@fbxsdk_20102@@$0A@@fbxsdk_20102@@QBEAAVKFbxPluginHandle@2@XZ
   ??DIterator@?$KHashMap@PAVKFbxLayeredTexture@fbxsdk_20102@@HVLayeredTextureHash@2@V?$NoOpDestruct@H@2@VLayeredTexPtrComparator@KFbxMaterialConverterImpl@2@@fbxsdk_20102@@QBE?AV?$KPair@PAVKFbxLayeredTexture@fbxsdk_20102@@H@2@XZ
   ??DIterator@?$KHashMap@VkFbxClassId@fbxsdk_20102@@PAV?$KArrayTemplate@PAVKFbxPreviewGeneratorFactory@fbxsdk_20102@@@2@VClassIdHash@Impl@KFbxPreviewManager@2@V?$PtrDestruct@PAV?$KArrayTemplate@PAVKFbxPreviewGeneratorFactory@fbxsdk_20102@@@fbxsdk_20102@@@2@V?$DefaultComparator@VkFbxClassId@fbxsdk_20102@@@2@@fbxsdk_20102@@QBE?AV?$KPair@VkFbxClassId@fbxsdk_20102@@PAV?$KArrayTemplate@PAVKFbxPreviewGeneratorFactory@fbxsdk_20102@@@2@@2@XZ
   ??DIterator@?$KHashMap@VKString@fbxsdk_20102@@UDependency@KFbxProcessorShaderDependency@2@VKStringHash@42@V?$NoOpDestruct@UDependency@KFbxProcessorShaderDependency@fbxsdk_20102@@@2@V?$DefaultComparator@VKString@fbxsdk_20102@@@2@@fbxsdk_20102@@QBE?AV?$KPair@VKString@fbxsdk_20102@@UDependency@KFbxProcessorShaderDependency@2@@2@XZ
   ??DIterator@?$KHashMap@VLayerConfig@fbxsdk_20102@@HVLayerConfigHash@2@V?$NoOpDestruct@H@2@V?$DefaultComparator@VLayerConfig@fbxsdk_20102@@@2@@fbxsdk_20102@@QBE?AV?$KPair@VLayerConfig@fbxsdk_20102@@H@2@XZ
   ??DIterator@?$KHashMap@VLayerConfig@fbxsdk_20102@@PAVKFbxSurfaceMaterial@2@VLayerConfigHash@2@V?$NoOpDestruct@PAVKFbxSurfaceMaterial@fbxsdk_20102@@@2@V?$DefaultComparator@VLayerConfig@fbxsdk_20102@@@2@@fbxsdk_20102@@QBE?AV?$KPair@VLayerConfig@fbxsdk_20102@@PAVKFbxSurfaceMaterial@2@@2@XZ
   ??Diterator@?$list@UiteratorEntry@DirectoryIterator@awOS@fbxsdk_20102@@@aw@fbxsdk_20102@@QBEAAUiteratorEntry@DirectoryIterator@awOS@3@XZ
   ??Diterator@?$list@V?$pair@PAVInitializer@awUtil@fbxsdk_20102@@PAV123@@aw@fbxsdk_20102@@@aw@fbxsdk_20102@@QBEAAV?$pair@PAVInitializer@awUtil@fbxsdk_20102@@PAV123@@23@XZ
   ??Diterator@?$list@V?$Reference@VIdleTask@awUtil@fbxsdk_20102@@@aw@fbxsdk_20102@@@aw@fbxsdk_20102@@QBEAAV?$Reference@VIdleTask@awUtil@fbxsdk_20102@@@23@XZ
   ??Diterator@?$list@VIString@awString@fbxsdk_20102@@@aw@fbxsdk_20102@@QBEAAVIString@awString@3@XZ
   ??Diterator@?$rbtree@DV?$Reference@Vparse@impl@fbxsdk_20102@@@aw@fbxsdk_20102@@U?$less@D@23@@aw@fbxsdk_20102@@QBEAAV?$pair@$$CBDV?$Reference@Vparse@impl@fbxsdk_20102@@@aw@fbxsdk_20102@@@23@XZ
   ??Diterator@?$rbtree@KPA_NU?$less@K@aw@fbxsdk_20102@@@aw@fbxsdk_20102@@QBEAAV?$pair@$$CBKPA_N@23@XZ
   ??Diterator@?$rbtree@V?$Reference@VIdleTask@awUtil@fbxsdk_20102@@@aw@fbxsdk_20102@@Viterator@?$list@V?$Reference@VIdleTask@awUtil@fbxsdk_20102@@@aw@fbxsdk_20102@@@23@U?$less@V?$Reference@VIdleTask@awUtil@fbxsdk_20102@@@aw@fbxsdk_20102@@@23@@aw@fbxsdk_20102@@QBEAAV?$pair@$$CBV?$Reference@VIdleTask@awUtil@fbxsdk_20102@@@aw@fbxsdk_20102@@Viterator@?$list@V?$Reference@VIdleTask@awUtil@fbxsdk_20102@@@aw@fbxsdk_20102@@@23@@23@XZ
   ??DKDateTime@fbxsdk_20102@@QAE?AV01@H@Z
   ??DKFbxMatrix@fbxsdk_20102@@QBE?AV01@ABV01@@Z
   ??DKFbxQuaternion@fbxsdk_20102@@QBE?AV01@ABV01@@Z
   ??DKFbxQuaternion@fbxsdk_20102@@QBE?AV01@N@Z
   ??DKFbxVector2@fbxsdk_20102@@QBE?AV01@ABV01@@Z
   ??DKFbxVector2@fbxsdk_20102@@QBE?AV01@N@Z
   ??DKFbxVector4@fbxsdk_20102@@QBE?AV01@ABV01@@Z
   ??DKFbxVector4@fbxsdk_20102@@QBE?AV01@N@Z
   ??DKFbxXMatrix@fbxsdk_20102@@QBE?AV01@ABV01@@Z
   ??DKFbxXMatrix@fbxsdk_20102@@QBE?AV01@N@Z
   ??DKFCurveCtrlPoint@fbxsdk_20102@@QAE?AV01@M@Z
   ??DKgVector@fbxsdk_20102@@QBE?AV01@ABV01@@Z
   ??DKgVector@fbxsdk_20102@@QBE?AV01@N@Z
   ??DKTime@fbxsdk_20102@@QBE?AV01@ABV01@@Z
   ??DKTime@fbxsdk_20102@@QBE?AV01@H@Z
   ??Econst_iterator@?$rbtree@VCString@awString@fbxsdk_20102@@HU?$less@VCString@awString@fbxsdk_20102@@@aw@3@@aw@fbxsdk_20102@@QAEAAV0123@XZ
   ??EIntrusiveListConstIterator@?$KIntrusiveList@VKFbxPlugin@fbxsdk_20102@@$0A@@fbxsdk_20102@@QAEAAV012@XZ
   ??EIntrusiveListIterator@?$KIntrusiveList@VKFbxEventHandler@kfbxevents@fbxsdk_20102@@$00@fbxsdk_20102@@QAEAAV012@XZ
   ??EIntrusiveListIterator@?$KIntrusiveList@VKFbxEventHandler@kfbxevents@fbxsdk_20102@@$0A@@fbxsdk_20102@@QAEAAV012@XZ
   ??EIntrusiveListIterator@?$KIntrusiveList@VKFbxPlugin@fbxsdk_20102@@$0A@@fbxsdk_20102@@QAEAAV012@XZ
   ??EIntrusiveListIterator@?$KIntrusiveList@VKFbxPluginHandle@fbxsdk_20102@@$0A@@fbxsdk_20102@@QAEAAV012@XZ
   ??Eiterator@?$list@V?$pair@PAVInitializer@awUtil@fbxsdk_20102@@PAV123@@aw@fbxsdk_20102@@@aw@fbxsdk_20102@@QAE?AV0123@H@Z
   ??Eiterator@?$list@V?$Reference@VIdleTask@awUtil@fbxsdk_20102@@@aw@fbxsdk_20102@@@aw@fbxsdk_20102@@QAEAAV0123@XZ
   ??Eiterator@?$list@VIString@awString@fbxsdk_20102@@@aw@fbxsdk_20102@@QAEAAV0123@XZ
   ??Eiterator@?$rbtree@KPA_NU?$less@K@aw@fbxsdk_20102@@@aw@fbxsdk_20102@@QAE?AV0123@H@Z
   ??Fiterator@?$list@V?$Reference@VIdleTask@awUtil@fbxsdk_20102@@@aw@fbxsdk_20102@@@aw@fbxsdk_20102@@QAEAAV0123@XZ
   ??G?$_Deque_iterator@PAU_xmlNode@fbxsdk_20102@@V?$allocator@PAU_xmlNode@fbxsdk_20102@@@std@@$0A@@std@@QBE?AV01@H@Z
   ??G?$_Deque_iterator@VKFbxProperty@fbxsdk_20102@@V?$allocator@VKFbxProperty@fbxsdk_20102@@@std@@$0A@@std@@QBE?AV01@H@Z
   ??GKDateTime@fbxsdk_20102@@QAE?AV01@ABV01@@Z
   ??GKFbxMatrix@fbxsdk_20102@@QBE?AV01@ABV01@@Z
   ??GKFbxMatrix@fbxsdk_20102@@QBE?AV01@XZ
   ??GKFbxQuaternion@fbxsdk_20102@@QBE?AV01@ABV01@@Z
   ??GKFbxQuaternion@fbxsdk_20102@@QBE?AV01@N@Z
   ??GKFbxQuaternion@fbxsdk_20102@@QBE?AV01@XZ
   ??GKFbxVector2@fbxsdk_20102@@QBE?AV01@ABV01@@Z
   ??GKFbxVector2@fbxsdk_20102@@QBE?AV01@N@Z
   ??GKFbxVector2@fbxsdk_20102@@QBE?AV01@XZ
   ??GKFbxVector4@fbxsdk_20102@@QBE?AV01@ABV01@@Z
   ??GKFbxVector4@fbxsdk_20102@@QBE?AV01@N@Z
   ??GKFbxVector4@fbxsdk_20102@@QBE?AV01@XZ
   ??GKFbxXMatrix@fbxsdk_20102@@QBE?AV01@XZ
   ??GKFCurveCtrlPoint@fbxsdk_20102@@QAE?AV01@ABV01@@Z
   ??GKgVector@fbxsdk_20102@@QBE?AV01@ABV01@@Z
   ??GKMemoryUsageCounter@fbxsdk_20102@@QAE?AV01@AAV01@@Z
   ??GKTime@fbxsdk_20102@@QBE?AV01@ABV01@@Z
   ??HawString@fbxsdk_20102@@YA?AVCString@01@ABV201@0@Z
   ??HawString@fbxsdk_20102@@YA?AVCString@01@ABV201@D@Z
   ??HawString@fbxsdk_20102@@YA?AVCString@01@ABV201@PBD@Z
   ??HawString@fbxsdk_20102@@YA?AVIString@01@ABV201@_W@Z
   ??HawString@fbxsdk_20102@@YA?AVIString@01@ABV201@0@Z
   ??HawString@fbxsdk_20102@@YA?AVIString@01@ABV201@PB_W@Z
   ??HawString@fbxsdk_20102@@YA?AVIString@01@ABV201@PBD@Z
   ??HawString@fbxsdk_20102@@YA?AVIString@01@PBDABV201@@Z
   ??Hfbxsdk_20102@@YA?AVKString@0@ABV10@0@Z
   ??Hfbxsdk_20102@@YA?AVKString@0@ABV10@D@Z
   ??Hfbxsdk_20102@@YA?AVKString@0@ABV10@H@Z
   ??Hfbxsdk_20102@@YA?AVKString@0@ABV10@M@Z
   ??Hfbxsdk_20102@@YA?AVKString@0@ABV10@PBD@Z
   ??HKDateTime@fbxsdk_20102@@QAE?AV01@ABV01@@Z
   ??HKFbxMatrix@fbxsdk_20102@@QBE?AV01@ABV01@@Z
   ??HKFbxQuaternion@fbxsdk_20102@@QBE?AV01@ABV01@@Z
   ??HKFbxQuaternion@fbxsdk_20102@@QBE?AV01@N@Z
   ??HKFbxVector2@fbxsdk_20102@@QBE?AV01@ABV01@@Z
   ??HKFbxVector2@fbxsdk_20102@@QBE?AV01@N@Z
   ??HKFbxVector4@fbxsdk_20102@@QBE?AV01@ABV01@@Z
   ??HKFbxVector4@fbxsdk_20102@@QBE?AV01@N@Z
   ??HKFCurveCtrlPoint@fbxsdk_20102@@QAE?AV01@ABV01@@Z
   ??HKgVector@fbxsdk_20102@@QBE?AV01@ABV01@@Z
   ??HKMemoryUsageCounter@fbxsdk_20102@@QAE?AV01@AAV01@@Z
   ??HKTime@fbxsdk_20102@@QBE?AV01@ABV01@@Z
   ??IBitField@awUtil@fbxsdk_20102@@QBE?AV012@ABV012@@Z
   ??IBitFieldAuto@awUtil@fbxsdk_20102@@QBE?AV012@ABV012@@Z
   ??IKTimeSpan@fbxsdk_20102@@QBE?AV01@AAV01@@Z
   ??IKTimeSpan@fbxsdk_20102@@QBE_NAAVKTime@1@@Z
   ??KKDateTime@fbxsdk_20102@@QAE?AV01@H@Z
   ??KKFbxQuaternion@fbxsdk_20102@@QBE?AV01@ABV01@@Z
   ??KKFbxQuaternion@fbxsdk_20102@@QBE?AV01@N@Z
   ??KKFbxVector2@fbxsdk_20102@@QBE?AV01@ABV01@@Z
   ??KKFbxVector2@fbxsdk_20102@@QBE?AV01@N@Z
   ??KKFbxVector4@fbxsdk_20102@@QBE?AV01@ABV01@@Z
   ??KKFbxVector4@fbxsdk_20102@@QBE?AV01@N@Z
   ??KKFbxXMatrix@fbxsdk_20102@@QBE?AV01@N@Z
   ??KKgVector@fbxsdk_20102@@QBE?AV01@N@Z
   ??KKTime@fbxsdk_20102@@QBE?AV01@ABV01@@Z
   ??M?$Reference@VIdleTask@awUtil@fbxsdk_20102@@@aw@fbxsdk_20102@@QBE_NABV012@@Z
   ??M?A0xefc851d3@fbxsdk_20102@@YA_NABUMemoryBlock@01@0@Z
   ??MawString@fbxsdk_20102@@YA_NABVCString@01@0@Z
   ??MInterval@awUtil@fbxsdk_20102@@QBE_NABV012@@Z
   ??MKDateTime@fbxsdk_20102@@QBE_NABV01@@Z
   ??MKFbxPropertyUpdate@KFbxProcessorXRefCopy@fbxsdk_20102@@QBE_NABU012@@Z
   ??MKString@fbxsdk_20102@@QBE_NABV01@@Z
   ??MKString@fbxsdk_20102@@QBE_NPBD@Z
   ??MKTime@fbxsdk_20102@@QBE_NABV01@@Z
   ??NKDateTime@fbxsdk_20102@@QBE_NABV01@@Z
   ??NKString@fbxsdk_20102@@QBE_NABV01@@Z
   ??NKString@fbxsdk_20102@@QBE_NPBD@Z
   ??NKTime@fbxsdk_20102@@QBE_NABV01@@Z
   ??OKDateTime@fbxsdk_20102@@QBE_NABV01@@Z
   ??OKString@fbxsdk_20102@@QBE_NABV01@@Z
   ??OKString@fbxsdk_20102@@QBE_NPBD@Z
   ??OKTime@fbxsdk_20102@@QBE_NABV01@@Z
   ??PKDateTime@fbxsdk_20102@@QBE_NABV01@@Z
   ??PKString@fbxsdk_20102@@QBE_NABV01@@Z
   ??PKString@fbxsdk_20102@@QBE_NPBD@Z
   ??PKTime@fbxsdk_20102@@QBE_NABV01@@Z
   ??R?$KFbxLessCompare@_J@fbxsdk_20102@@QBEHAB_J0@Z
   ??R?$KFbxLessCompare@H@fbxsdk_20102@@QBEHABH0@Z
   ??R?$KFbxLessCompare@PAVKFbxClassIdInfo@fbxsdk_20102@@@fbxsdk_20102@@QBEHABQAVKFbxClassIdInfo@1@0@Z
   ??R?$KFbxLessCompare@PAVKFbxObject@fbxsdk_20102@@@fbxsdk_20102@@QBEHABQAVKFbxObject@1@0@Z
   ??R?$KFbxLessCompare@UKFbxPropertyUpdate@KFbxProcessorXRefCopy@fbxsdk_20102@@@fbxsdk_20102@@QBEHABUKFbxPropertyUpdate@KFbxProcessorXRefCopy@1@0@Z
   ??R?$KFbxLessCompare@VKString@fbxsdk_20102@@@fbxsdk_20102@@QBEHABVKString@1@0@Z
   ??R?$less@D@aw@fbxsdk_20102@@QBE_NABD0@Z
   ??R?$less@K@aw@fbxsdk_20102@@QBE_NABK0@Z
   ??R?$less@PAU_xmlDoc@fbxsdk_20102@@@std@@QBE_NABQAU_xmlDoc@fbxsdk_20102@@0@Z
   ??R?$less@PAVKFbxDocument@fbxsdk_20102@@@std@@QBE_NABQAVKFbxDocument@fbxsdk_20102@@0@Z
   ??R?$less@PAVKFbxImplementation@fbxsdk_20102@@@std@@QBE_NABQAVKFbxImplementation@fbxsdk_20102@@0@Z
   ??R?$less@PAVKFbxObject@fbxsdk_20102@@@std@@QBE_NABQAVKFbxObject@fbxsdk_20102@@0@Z
   ??R?$less@PBVKFbxObject@fbxsdk_20102@@@std@@QBE_NABQBVKFbxObject@fbxsdk_20102@@0@Z
   ??R?$less@V?$Reference@VIdleTask@awUtil@fbxsdk_20102@@@aw@fbxsdk_20102@@@aw@fbxsdk_20102@@QBE_NABV?$Reference@VIdleTask@awUtil@fbxsdk_20102@@@12@0@Z
   ??R?$less@VCString@awString@fbxsdk_20102@@@aw@fbxsdk_20102@@QBE_NABVCString@awString@2@0@Z
   ??R?$less@VKString@fbxsdk_20102@@@std@@QBE_NABVKString@fbxsdk_20102@@0@Z
   ??R?$PropertyConverter@_N_N@?A0x7e486995@fbxsdk_20102@@QBEXPBVKFbxObject@2@PAV32@PBD2@Z
   ??R?$PropertyConverter@HH@?A0x7e486995@fbxsdk_20102@@QBEXPBVKFbxObject@2@PAV32@PBD2@Z
   ??R?$PropertyConverter@NN@?A0x7e486995@fbxsdk_20102@@QBEXPBVKFbxObject@2@PAV32@PBD2@Z
   ??R?$PropertyConverter@V?$fbxVectorTemplate4@N@fbxsdk_20102@@V?$fbxVectorTemplate3@N@2@@?A0x7e486995@fbxsdk_20102@@QBEXPBVKFbxObject@2@PAV32@PBD2@Z
   ??R?$PropertyConverter@V?$fbxVectorTemplate4@N@fbxsdk_20102@@V12@@?A0x7e486995@fbxsdk_20102@@QBEXPBVKFbxObject@2@PAV32@PBD2@Z
   ??R?$PropertyConverter@VfbxReference@fbxsdk_20102@@VKString@2@@?A0x7e486995@fbxsdk_20102@@QBEXPAVKFbxObject@2@0PBD1@Z
   ??RAppOutputStream@awOS@fbxsdk_20102@@QBAXHPBDZZ
   ??RAppOutputStream@awOS@fbxsdk_20102@@QBAXPBDZZ
   ??RCacheItemLess@?A0x05c75dd8@fbxsdk_20102@@QBE_NPBVCacheItem@awUtil@2@0@Z
   ??RCaseInsensitiveCompare@fbxsdk_20102@@QBE_NABVKString@1@0@Z
   ??RClassIdHash@Impl@KFbxPreviewManager@fbxsdk_20102@@QBEIABVkFbxClassId@3@@Z
   ??RCollectAll@?A0xce6eb6f4@fbxsdk_20102@@QAE_NPAVKFbxObject@2@@Z
   ??RCollectExcept@?A0xce6eb6f4@fbxsdk_20102@@QAE_NPAVKFbxObject@2@@Z
   ??RCollectGenericObject@?A0xce6eb6f4@fbxsdk_20102@@QAE_NPAVKFbxObject@2@@Z
   ??RCompareKStringNoCase@KFbxWriterFbx7Impl@fbxsdk_20102@@QBE_NABVKString@2@0@Z
   ??RCompareTypeInfoPtr@KTypeDefinition@?A0xce6eb6f4@fbxsdk_20102@@QBE_NPAVKTypeDefinitionInfo@23@0@Z
   ??RCountOrdering@?A0x1cd43906@fbxsdk_20102@@QAE_NPBVInitializer@awUtil@2@0@Z
   ??RKCharCompare@fbxsdk_20102@@QBEHPBD0@Z
   ??RkFbxClassIdCompare@ClassTemplateMap@?A0xa88da042@fbxsdk_20102@@QBEHABVkFbxClassId@3@0@Z
   ??RkFbxClassIdCompare@Fbx6ClassTemplateMap@fbxsdk_20102@@QBEHABVkFbxClassId@2@0@Z
   ??RKFbxDependencyBindFunctor@fbxsdk_20102@@QAEXAAVKFbxUINode@1@@Z
   ??RKFbxDisabledFunctor@fbxsdk_20102@@QAEXAAVKFbxUINode@1@@Z
   ??RKFbxEnabledFunctor@fbxsdk_20102@@QAEXAAVKFbxUINode@1@@Z
   ??RKFbxExternalDocumentInfoComparator@fbxsdk_20102@@QBE_NABUKFbxExternalDocumentInfo@1@0@Z
   ??RKFbxHideFunctor@fbxsdk_20102@@QAEXAAVKFbxUINode@1@@Z
   ??RKFbxMapKStringCompare@fbxsdk_20102@@QBEHABVKString@1@0@Z
   ??RKFbxObjectCompare@KFbxCloneManager@fbxsdk_20102@@QBEHABQAVKFbxObject@2@0@Z
   ??RKFbxPropertyLess@?A0x97f478f8@fbxsdk_20102@@QBE_NABVKFbxProperty@2@0@Z
   ??RKFbxPropertyLess@fbxsdk_20102@@QBE_NABVKFbxProperty@1@0@Z
   ??RKFbxPropertyUrlIndexCompare@KFbxEmbeddedFilesAccumulator@fbxsdk_20102@@QBEHABUKFbxPropertyUrlIndex@12@0@Z
   ??RKFbxScriptBindFunctor@fbxsdk_20102@@QAEXAAVKFbxUINode@1@@Z
   ??RKFbxShowFunctor@fbxsdk_20102@@QAEXAAVKFbxUINode@1@@Z
   ??RKFbxStringCompare@KFbxUIBuilder@fbxsdk_20102@@QBEHABVKString@2@0@Z
   ??RKFbxUIUpdateFunctor@fbxsdk_20102@@QAEXAAVKFbxUINode@1@@Z
   ??RKFbxUpdateFunctor@fbxsdk_20102@@QAEXAAVKFbxUINode@1@@Z
   ??RKFindNextSetBit@fbxsdk_20102@@QAE_NH_NPAX@Z
   ??RKNameMapCompare@fbxsdk_20102@@QBEHABV?$KPair@HPBD@1@0@Z
   ??RkNewFbxClassIdCompare@fbxsdk_20102@@QBEHABVkFbxClassId@1@0@Z
   ??RkNewFbxFileClassIdCompare@fbxsdk_20102@@QBEHABVkFbxClassId@1@0@Z
   ??RKStringCompare@fbxsdk_20102@@QBEHABVKString@1@0@Z
   ??RKStringHash@KFbxProcessorShaderDependency@fbxsdk_20102@@QBEIABVKString@2@@Z
   ??RKStringPairCompare@fbxsdk_20102@@QBEHABV?$KPair@VKString@fbxsdk_20102@@V12@@1@0@Z
   ??RLayerConfigHash@fbxsdk_20102@@QBEIABVLayerConfig@1@@Z
   ??RLayeredTextureHash@fbxsdk_20102@@QBEIABQAVKFbxLayeredTexture@1@@Z
   ??RMemoryBlockPtrLess@?A0xefc851d3@fbxsdk_20102@@QAE_NABUMemoryBlock@12@0@Z
   ??RPointsToEdgeComparator@fbxsdk_20102@@QBEHABV?$KPair@HH@1@0@Z
   ??RStringCompare@fbxsdk_20102@@QBE_NPBD0@Z
   ??SBitField@awUtil@fbxsdk_20102@@QBE?AV012@XZ
   ??TBitField@awUtil@fbxsdk_20102@@QBE?AV012@ABV012@@Z
   ??TBitFieldAuto@awUtil@fbxsdk_20102@@QBE?AV012@ABV012@@Z
   ??TKgVector@fbxsdk_20102@@QBENABV01@@Z
   ??UBitField@awUtil@fbxsdk_20102@@QBE?AV012@ABV012@@Z
   ??UBitFieldAuto@awUtil@fbxsdk_20102@@QBE?AV012@ABV012@@Z
   ??VKFbxCriteria@fbxsdk_20102@@QBE?AV01@ABV01@@Z
   ??WKFbxCriteria@fbxsdk_20102@@QBE?AV01@ABV01@@Z
   ??XKFbxMatrix@fbxsdk_20102@@QAEAAV01@ABV01@@Z
   ??XKFbxQuaternion@fbxsdk_20102@@QAEAAV01@ABV01@@Z
   ??XKFbxQuaternion@fbxsdk_20102@@QAEAAV01@N@Z
   ??XKFbxVector2@fbxsdk_20102@@QAEAAV01@ABV01@@Z
   ??XKFbxVector2@fbxsdk_20102@@QAEAAV01@N@Z
   ??XKFbxVector4@fbxsdk_20102@@QAEAAV01@ABV01@@Z
   ??XKFbxVector4@fbxsdk_20102@@QAEAAV01@N@Z
   ??XKFbxXMatrix@fbxsdk_20102@@QAEAAV01@ABV01@@Z
   ??XKFbxXMatrix@fbxsdk_20102@@QAEAAV01@N@Z
   ??XKgVector@fbxsdk_20102@@QAEAAV01@ABV01@@Z
   ??XKgVector@fbxsdk_20102@@QAEAAV01@N@Z
   ??YawString@fbxsdk_20102@@YAAAVCString@01@AAV201@ABV201@@Z
   ??YawString@fbxsdk_20102@@YAAAVCString@01@AAV201@D@Z
   ??YawString@fbxsdk_20102@@YAAAVCString@01@AAV201@PBD@Z
   ??YawString@fbxsdk_20102@@YAAAVIString@01@AAV201@ABV201@@Z
   ??YawString@fbxsdk_20102@@YAAAVIString@01@AAV201@ABVCString@01@@Z
   ??YawString@fbxsdk_20102@@YAAAVIString@01@AAV201@D@Z
   ??YawString@fbxsdk_20102@@YAAAVIString@01@AAV201@PB_W@Z
   ??YawString@fbxsdk_20102@@YAAAVIString@01@AAV201@PBD@Z
   ??YKFbxMatrix@fbxsdk_20102@@QAEAAV01@ABV01@@Z
   ??YKFbxQuaternion@fbxsdk_20102@@QAEAAV01@ABV01@@Z
   ??YKFbxQuaternion@fbxsdk_20102@@QAEAAV01@N@Z
   ??YKFbxVector2@fbxsdk_20102@@QAEAAV01@ABV01@@Z
   ??YKFbxVector2@fbxsdk_20102@@QAEAAV01@N@Z
   ??YKFbxVector4@fbxsdk_20102@@QAEAAV01@ABV01@@Z
   ??YKFbxVector4@fbxsdk_20102@@QAEAAV01@N@Z
   ??YKgVector@fbxsdk_20102@@QAEAAV01@ABV01@@Z
   ??YKString@fbxsdk_20102@@QAEABV01@ABV01@@Z
   ??YKString@fbxsdk_20102@@QAEABV01@D@Z
   ??YKString@fbxsdk_20102@@QAEABV01@H@Z
   ??YKString@fbxsdk_20102@@QAEABV01@M@Z
   ??YKString@fbxsdk_20102@@QAEABV01@PBD@Z
   ??YKTime@fbxsdk_20102@@QAEAAV01@ABV01@@Z
   ??ZKFbxMatrix@fbxsdk_20102@@QAEAAV01@ABV01@@Z
   ??ZKFbxQuaternion@fbxsdk_20102@@QAEAAV01@ABV01@@Z
   ??ZKFbxQuaternion@fbxsdk_20102@@QAEAAV01@N@Z
   ??ZKFbxVector2@fbxsdk_20102@@QAEAAV01@ABV01@@Z
   ??ZKFbxVector2@fbxsdk_20102@@QAEAAV01@N@Z
   ??ZKFbxVector4@fbxsdk_20102@@QAEAAV01@ABV01@@Z
   ??ZKFbxVector4@fbxsdk_20102@@QAEAAV01@N@Z
   ??ZKgVector@fbxsdk_20102@@QAEAAV01@ABV01@@Z
   ?__exp__D@fbxsdk_20102@@YANNN@Z
   ?__oldXMLWDcompatibility@fbxsdk_20102@@YAPAHXZ
   ?__xmlBufferAllocScheme@fbxsdk_20102@@YAPAW4xmlBufferAllocationScheme@1@XZ
   ?__xmlDefaultBufferSize@fbxsdk_20102@@YAPAHXZ
   ?__xmlDefaultSAXHandler@fbxsdk_20102@@YAPAU_xmlSAXHandlerV1@1@XZ
   ?__xmlDefaultSAXLocator@fbxsdk_20102@@YAPAU_xmlSAXLocator@1@XZ
   ?__xmlDeregisterNodeDefaultValue@fbxsdk_20102@@YAPAP6AXPAU_xmlNode@1@@ZXZ
   ?__xmlDoValidityCheckingDefaultValue@fbxsdk_20102@@YAPAHXZ
   ?__xmlErrEncoding@fbxsdk_20102@@YAXPAU_xmlParserCtxt@1@W4xmlParserErrors@1@PBDPBE3@Z
   ?__xmlGenericError@fbxsdk_20102@@YAPAP6AXPAXPBDZZXZ
   ?__xmlGenericErrorContext@fbxsdk_20102@@YAPAPAXXZ
   ?__xmlGetWarningsDefaultValue@fbxsdk_20102@@YAPAHXZ
   ?__xmlIndentTreeOutput@fbxsdk_20102@@YAPAHXZ
   ?__xmlIOErr@fbxsdk_20102@@YAXHHPBD@Z
   ?__xmlKeepBlanksDefaultValue@fbxsdk_20102@@YAPAHXZ
   ?__xmlLastError@fbxsdk_20102@@YAPAU_xmlError@1@XZ
   ?__xmlLineNumbersDefaultValue@fbxsdk_20102@@YAPAHXZ
   ?__xmlLoaderErr@fbxsdk_20102@@YAXPAXPBD1@Z
   ?__xmlLoadExtDtdDefaultValue@fbxsdk_20102@@YAPAHXZ
   ?__xmlParserDebugEntities@fbxsdk_20102@@YAPAHXZ
   ?__xmlParserVersion@fbxsdk_20102@@YAPAPBDXZ
   ?__xmlPedanticParserDefaultValue@fbxsdk_20102@@YAPAHXZ
   ?__xmlRaiseError@fbxsdk_20102@@YAXP6AXPAXPAU_xmlError@1@@ZP6AX0PBDZZ000HHW4xmlErrorLevel@1@3H333HH3ZZ
   ?__xmlRegisterCallbacks@fbxsdk_20102@@3HA
   ?__xmlRegisterNodeDefaultValue@fbxsdk_20102@@YAPAP6AXPAU_xmlNode@1@@ZXZ
   ?__xmlSaveNoEmptyTags@fbxsdk_20102@@YAPAHXZ
   ?__xmlSimpleError@fbxsdk_20102@@YAXHHPAU_xmlNode@1@PBD1@Z
   ?__xmlStructuredError@fbxsdk_20102@@YAPAP6AXPAXPAU_xmlError@1@@ZXZ
   ?__xmlSubstituteEntitiesDefaultValue@fbxsdk_20102@@YAPAHXZ
   ?__xmlTreeIndentString@fbxsdk_20102@@YAPAPBDXZ
   ?_dist_code@fbxsdk_20102@@3QBEB
   ?_FbxTypeOf@fbxsdk_20102@@YA?AW4EFbxType@1@AB_N@Z
   ?_FbxTypeOf@fbxsdk_20102@@YA?AW4EFbxType@1@ABH@Z
   ?_FbxTypeOf@fbxsdk_20102@@YA?AW4EFbxType@1@ABM@Z
   ?_FbxTypeOf@fbxsdk_20102@@YA?AW4EFbxType@1@ABN@Z
   ?_FbxTypeOf@fbxsdk_20102@@YA?AW4EFbxType@1@ABV?$fbxVectorTemplate2@N@1@@Z
   ?_FbxTypeOf@fbxsdk_20102@@YA?AW4EFbxType@1@ABV?$fbxVectorTemplate4@N@1@@Z
   ?_FbxTypeOf@fbxsdk_20102@@YA?AW4EFbxType@1@ABVKFbxColor@1@@Z
   ?_length_code@fbxsdk_20102@@3QBEB
   ?_startup@KMpThread@fbxsdk_20102@@CGJPAX@Z
   ?_TIFFBuiltinCODECS@fbxsdk_20102@@3PAUTIFFCodec@1@A
   ?_TIFFDefaultStripSize@fbxsdk_20102@@YAKPAUtiff@1@K@Z
   ?_TIFFDefaultTileSize@fbxsdk_20102@@YAXPAUtiff@1@PAK1@Z
   ?_TIFFerrorHandler@fbxsdk_20102@@3P6AXPBD0PAD@ZA
   ?_TIFFFieldWithTag@fbxsdk_20102@@YAPBUTIFFFieldInfo@1@PAUtiff@1@K@Z
   ?_TIFFFindFieldInfo@fbxsdk_20102@@YAPBUTIFFFieldInfo@1@PAUtiff@1@KW4TIFFDataType@1@@Z
   ?_TIFFfree@fbxsdk_20102@@YAXPAX@Z
   ?_TIFFgetMode@fbxsdk_20102@@YAHPBD0@Z
   ?_TIFFmalloc@fbxsdk_20102@@YAPAXJ@Z
   ?_TIFFmemcmp@fbxsdk_20102@@YAHQAX0J@Z
   ?_TIFFmemcpy@fbxsdk_20102@@YAXPAXQAXJ@Z
   ?_TIFFmemset@fbxsdk_20102@@YAXPAXHJ@Z
   ?_TIFFMergeFieldInfo@fbxsdk_20102@@YAXPAUtiff@1@QBUTIFFFieldInfo@1@H@Z
   ?_TIFFNoPostDecode@fbxsdk_20102@@YAXPAUtiff@1@PAEJ@Z
   ?_TIFFNoPreCode@fbxsdk_20102@@YAHPAUtiff@1@G@Z
   ?_TIFFNoRowDecode@fbxsdk_20102@@YAHPAUtiff@1@PAEJG@Z
   ?_TIFFNoRowEncode@fbxsdk_20102@@YAHPAUtiff@1@PAEJG@Z
   ?_TIFFNoSeek@fbxsdk_20102@@YAHPAUtiff@1@K@Z
   ?_TIFFNoStripDecode@fbxsdk_20102@@YAHPAUtiff@1@PAEJG@Z
   ?_TIFFNoStripEncode@fbxsdk_20102@@YAHPAUtiff@1@PAEJG@Z
   ?_TIFFNoTileDecode@fbxsdk_20102@@YAHPAUtiff@1@PAEJG@Z
   ?_TIFFNoTileEncode@fbxsdk_20102@@YAHPAUtiff@1@PAEJG@Z
   ?_TIFFprintAscii@fbxsdk_20102@@YAXPAU_iobuf@@PBD@Z
   ?_TIFFprintAsciiTag@fbxsdk_20102@@YAXPAU_iobuf@@PBD1@Z
   ?_TIFFPrintFieldInfo@fbxsdk_20102@@YAXPAUtiff@1@PAU_iobuf@@@Z
   ?_TIFFrealloc@fbxsdk_20102@@YAPAXPAXJ@Z
   ?_TIFFSampleToTagType@fbxsdk_20102@@YA?AW4TIFFDataType@1@PAUtiff@1@@Z
   ?_TIFFsetByteArray@fbxsdk_20102@@YAXPAPAXPAXJ@Z
   ?_TIFFSetDefaultCompressionState@fbxsdk_20102@@YAXPAUtiff@1@@Z
   ?_TIFFsetDoubleArray@fbxsdk_20102@@YAXPAPANPANJ@Z
   ?_TIFFsetFloatArray@fbxsdk_20102@@YAXPAPAMPAMJ@Z
   ?_TIFFsetLongArray@fbxsdk_20102@@YAXPAPAKPAKJ@Z
   ?_TIFFsetNString@fbxsdk_20102@@YAXPAPADPADJ@Z
   ?_TIFFsetShortArray@fbxsdk_20102@@YAXPAPAGPAGJ@Z
   ?_TIFFsetString@fbxsdk_20102@@YAXPAPADPAD@Z
   ?_TIFFSetupFieldInfo@fbxsdk_20102@@YAXPAUtiff@1@@Z
   ?_TIFFSwab16BitData@fbxsdk_20102@@YAXPAUtiff@1@PAEJ@Z
   ?_TIFFSwab32BitData@fbxsdk_20102@@YAXPAUtiff@1@PAEJ@Z
   ?_TIFFSwab64BitData@fbxsdk_20102@@YAXPAUtiff@1@PAEJ@Z
   ?_TIFFwarningHandler@fbxsdk_20102@@3P6AXPBD0PAD@ZA
   ?_tr_align@fbxsdk_20102@@YAXPAUinternal_state@1@@Z
   ?_tr_flush_block@fbxsdk_20102@@YAXPAUinternal_state@1@PADKH@Z
   ?_tr_init@fbxsdk_20102@@YAXPAUinternal_state@1@@Z
   ?_tr_stored_block@fbxsdk_20102@@YAXPAUinternal_state@1@PADKH@Z
   ?_tr_tally@fbxsdk_20102@@YAHPAUinternal_state@1@II@Z
   ?aBool@AppOutputStream@awOS@fbxsdk_20102@@QAEPBD_N@Z
   ?abort@GetOpt@awOS@fbxsdk_20102@@QAEXXZ
   ?Access@fbxBlob@fbxsdk_20102@@QBEPBXXZ
   ?accumulateAsset@KFbxAssetBuilder@fbxsdk_20102@@QAEXPAU_xmlNode@2@@Z
   ?accumulatePreset@KFbxAssetBuilder@fbxsdk_20102@@QAEXPAU_xmlNode@2@@Z
   ?AccumulatorClear@KFbxUserNotification@fbxsdk_20102@@MAEXXZ
   ?AccumulatorInit@KFbxUserNotification@fbxsdk_20102@@MAEXXZ
   ?acos@fbxsdk_20102@@YAMM@Z
   ?Acquire@KFbxMutex@kfbxmp@fbxsdk_20102@@QAEXXZ
   ?acquire@KMpLock@fbxsdk_20102@@QAE_NXZ
   ?acquire@KMpMutex@fbxsdk_20102@@QAE_NXZ
   ?ActivePropertyName@KFbxVertexCacheDeformer@fbxsdk_20102@@2PBDB
   ?actLikeShell@SearchPath@awOS@fbxsdk_20102@@QAEX_N@Z
   ?Add@?$KArrayTemplate@_N@fbxsdk_20102@@QAEH_N@Z
   ?Add@?$KArrayTemplate@H@fbxsdk_20102@@QAEHH@Z
   ?Add@?$KArrayTemplate@I@fbxsdk_20102@@QAEHI@Z
   ?Add@?$KArrayTemplate@M@fbxsdk_20102@@QAEHM@Z
   ?Add@?$KArrayTemplate@N@fbxsdk_20102@@QAEHN@Z
   ?Add@?$KArrayTemplate@PA_W@fbxsdk_20102@@QAEHPA_W@Z
   ?Add@?$KArrayTemplate@PAD@fbxsdk_20102@@QAEHPAD@Z
   ?Add@?$KArrayTemplate@PAH@fbxsdk_20102@@QAEHPAH@Z
   ?Add@?$KArrayTemplate@PAI@fbxsdk_20102@@QAEHPAI@Z
   ?Add@?$KArrayTemplate@PAM@fbxsdk_20102@@QAEHPAM@Z
   ?Add@?$KArrayTemplate@PAN@fbxsdk_20102@@QAEHPAN@Z
   ?Add@?$KArrayTemplate@PAU_iobuf@@@fbxsdk_20102@@QAEHPAU_iobuf@@@Z
   ?Add@?$KArrayTemplate@PAU_xmlNode@fbxsdk_20102@@@fbxsdk_20102@@QAEHPAU_xmlNode@2@@Z
   ?Add@?$KArrayTemplate@PAUFbx6TypeReadReferenceInfo@fbxsdk_20102@@@fbxsdk_20102@@QAEHPAUFbx6TypeReadReferenceInfo@2@@Z
   ?Add@?$KArrayTemplate@PAUKFbxPoseInfo@fbxsdk_20102@@@fbxsdk_20102@@QAEHPAUKFbxPoseInfo@2@@Z
   ?Add@?$KArrayTemplate@PAUKFbxTimeMarker@KFbxGlobalTimeSettings@fbxsdk_20102@@@fbxsdk_20102@@QAEHPAUKFbxTimeMarker@KFbxGlobalTimeSettings@2@@Z
   ?Add@?$KArrayTemplate@PAUKLayerInfo@fbxsdk_20102@@@fbxsdk_20102@@QAEHPAUKLayerInfo@2@@Z
   ?Add@?$KArrayTemplate@PAUKTypeObjectHierarchyInfo@fbxsdk_20102@@@fbxsdk_20102@@QAEHPAUKTypeObjectHierarchyInfo@2@@Z
   ?Add@?$KArrayTemplate@PAUKTypeReadReferenceInfo@?A0xa88da042@fbxsdk_20102@@@fbxsdk_20102@@QAEHPAUKTypeReadReferenceInfo@?A0xa88da042@2@@Z
   ?Add@?$KArrayTemplate@PAUKTypeWriteReferenceInfo@?A0xce6eb6f4@fbxsdk_20102@@@fbxsdk_20102@@QAEHPAUKTypeWriteReferenceInfo@?A0xce6eb6f4@2@@Z
   ?Add@?$KArrayTemplate@PAUKTypeWriteReferenceInfo@fbxsdk_20102@@@fbxsdk_20102@@QAEHPAUKTypeWriteReferenceInfo@2@@Z
   ?Add@?$KArrayTemplate@PAUModifiedPropertyInfo@KFbxWriterFbx6@fbxsdk_20102@@@fbxsdk_20102@@QAEHPAUModifiedPropertyInfo@KFbxWriterFbx6@2@@Z
   ?Add@?$KArrayTemplate@PAUNameCell@KFbxRenamingStrategy@fbxsdk_20102@@@fbxsdk_20102@@QAEHPAUNameCell@KFbxRenamingStrategy@2@@Z
   ?Add@?$KArrayTemplate@PAUNameCell@KNumberRenamingStrategy@fbxsdk_20102@@@fbxsdk_20102@@QAEHPAUNameCell@KNumberRenamingStrategy@2@@Z
   ?Add@?$KArrayTemplate@PAUNameCell@KRenamingStrategy3DS@fbxsdk_20102@@@fbxsdk_20102@@QAEHPAUNameCell@KRenamingStrategy3DS@2@@Z
   ?Add@?$KArrayTemplate@PAUReaderPluginEntry@KFbxIOPluginRegistry@fbxsdk_20102@@@fbxsdk_20102@@QAEHPAUReaderPluginEntry@KFbxIOPluginRegistry@2@@Z
   ?Add@?$KArrayTemplate@PAUWriterPluginEntry@KFbxIOPluginRegistry@fbxsdk_20102@@@fbxsdk_20102@@QAEHPAUWriterPluginEntry@KFbxIOPluginRegistry@2@@Z
   ?Add@?$KArrayTemplate@PAV?$KArrayTemplate@H@fbxsdk_20102@@@fbxsdk_20102@@QAEHPAV?$KArrayTemplate@H@2@@Z
   ?Add@?$KArrayTemplate@PAV?$KArrayTemplate@UKElement@KFbxWeightedMapping@fbxsdk_20102@@@fbxsdk_20102@@@fbxsdk_20102@@QAEHPAV?$KArrayTemplate@UKElement@KFbxWeightedMapping@fbxsdk_20102@@@2@@Z
   ?Add@?$KArrayTemplate@PAVAccumulatorEntry@fbxsdk_20102@@@fbxsdk_20102@@QAEHPAVAccumulatorEntry@2@@Z
   ?Add@?$KArrayTemplate@PAVAESequence@KFbxUserNotification@fbxsdk_20102@@@fbxsdk_20102@@QAEHPAVAESequence@KFbxUserNotification@2@@Z
   ?Add@?$KArrayTemplate@PAVFbx5ObjectTypeInfo@fbxsdk_20102@@@fbxsdk_20102@@QAEHPAVFbx5ObjectTypeInfo@2@@Z
   ?Add@?$KArrayTemplate@PAVFbx6ObjectTypeInfo@fbxsdk_20102@@@fbxsdk_20102@@QAEHPAVFbx6ObjectTypeInfo@2@@Z
   ?Add@?$KArrayTemplate@PAVFbx6TypeDefinitionInfo@fbxsdk_20102@@@fbxsdk_20102@@QAEHPAVFbx6TypeDefinitionInfo@2@@Z
   ?Add@?$KArrayTemplate@PAVKBVHJoint@fbxsdk_20102@@@fbxsdk_20102@@QAEHPAVKBVHJoint@2@@Z
   ?Add@?$KArrayTemplate@PAVKFbxAsfNode@fbxsdk_20102@@@fbxsdk_20102@@QAEHPAVKFbxAsfNode@2@@Z
   ?Add@?$KArrayTemplate@PAVKFbxCluster@fbxsdk_20102@@@fbxsdk_20102@@QAEHPAVKFbxCluster@2@@Z
